
axi_ddr200.elf:     file format elf32-littleriscv
axi_ddr200.elf
architecture: riscv:rv32, flags 0x00000112:
EXEC_P, HAS_SYMS, D_PAGED
start address 0x80000000

Program Header:
    LOAD off    0x00001000 vaddr 0x80000000 paddr 0x80000000 align 2**12
         filesz 0x000064b4 memsz 0x000064b4 flags rwx
    LOAD off    0x00008000 vaddr 0x90000000 paddr 0x800064b4 align 2**12
         filesz 0x00000234 memsz 0x00000234 flags rw-
    LOAD off    0x00000234 vaddr 0x90000234 paddr 0x90000234 align 2**12
         filesz 0x00000000 memsz 0x00000134 flags rw-
    LOAD off    0x00000800 vaddr 0x9000f800 paddr 0x90000368 align 2**12
         filesz 0x00000000 memsz 0x00000800 flags rw-

Sections:
Idx Name              Size      VMA       LMA       File off  Algn  Flags
  0 .init             000000ba  80000000  80000000  00001000  2**0  CONTENTS, ALLOC, LOAD, READONLY, CODE
  1 .ilalign          00000002  800000ba  800000ba  000010ba  2**0  ALLOC
  2 .text             00005d5e  800000bc  800000bc  000010bc  2**2  CONTENTS, ALLOC, LOAD, READONLY, CODE
  3 .rodata           00000694  80005e20  80005e20  00006e20  2**3  CONTENTS, ALLOC, LOAD, READONLY, DATA
  4 .lalign           00000000  800064b4  800064b4  00008234  2**0  CONTENTS
  5 .dalign           00000000  90000000  90000000  00008234  2**0  CONTENTS
  6 .data             00000234  90000000  800064b4  00008000  2**3  CONTENTS, ALLOC, LOAD, DATA
  7 .bss              00000134  90000234  90000234  00008234  2**2  ALLOC
  8 .stack            00000800  9000f800  90000368  00008800  2**0  ALLOC
  9 .debug_info       000062ef  00000000  00000000  00008234  2**0  CONTENTS, READONLY, DEBUGGING, OCTETS
 10 .debug_abbrev     00002340  00000000  00000000  0000e523  2**0  CONTENTS, READONLY, DEBUGGING, OCTETS
 11 .debug_loc        00006d39  00000000  00000000  00010863  2**0  CONTENTS, READONLY, DEBUGGING, OCTETS
 12 .debug_aranges    00000538  00000000  00000000  000175a0  2**3  CONTENTS, READONLY, DEBUGGING, OCTETS
 13 .debug_ranges     00001530  00000000  00000000  00017ad8  2**0  CONTENTS, READONLY, DEBUGGING, OCTETS
 14 .debug_line       00009440  00000000  00000000  00019008  2**0  CONTENTS, READONLY, DEBUGGING, OCTETS
 15 .debug_str        00001d4f  00000000  00000000  00022448  2**0  CONTENTS, READONLY, DEBUGGING, OCTETS
 16 .comment          00000012  00000000  00000000  00024197  2**0  CONTENTS, READONLY
 17 .riscv.attributes 0000002f  00000000  00000000  000241a9  2**0  CONTENTS, READONLY
 18 .debug_frame      000007f8  00000000  00000000  000241d8  2**2  CONTENTS, READONLY, DEBUGGING, OCTETS
SYMBOL TABLE:
80000000 l    d  .init	00000000 .init
800000ba l    d  .ilalign	00000000 .ilalign
800000bc l    d  .text	00000000 .text
80005e20 l    d  .rodata	00000000 .rodata
800064b4 l    d  .lalign	00000000 .lalign
90000000 l    d  .dalign	00000000 .dalign
90000000 l    d  .data	00000000 .data
90000234 l    d  .bss	00000000 .bss
9000f800 l    d  .stack	00000000 .stack
00000000 l    d  .debug_info	00000000 .debug_info
00000000 l    d  .debug_abbrev	00000000 .debug_abbrev
00000000 l    d  .debug_loc	00000000 .debug_loc
00000000 l    d  .debug_aranges	00000000 .debug_aranges
00000000 l    d  .debug_ranges	00000000 .debug_ranges
00000000 l    d  .debug_line	00000000 .debug_line
00000000 l    d  .debug_str	00000000 .debug_str
00000000 l    d  .comment	00000000 .comment
00000000 l    d  .riscv.attributes	00000000 .riscv.attributes
00000000 l    d  .debug_frame	00000000 .debug_frame
00000000 l    df *ABS*	00000000 main.c
00000000 l    df *ABS*	00000000 close.c
00000000 l    df *ABS*	00000000 exit.c
00000000 l    df *ABS*	00000000 fstat.c
00000000 l    df *ABS*	00000000 getpid.c
00000000 l    df *ABS*	00000000 isatty.c
00000000 l    df *ABS*	00000000 kill.c
00000000 l    df *ABS*	00000000 lseek.c
00000000 l    df *ABS*	00000000 read.c
00000000 l    df *ABS*	00000000 sbrk.c
900001d0 l     O .data	00000004 curbrk.0
00000000 l    df *ABS*	00000000 write.c
00000000 l    df *ABS*	00000000 hbirdv2_gpio.c
00000000 l    df *ABS*	00000000 hbirdv2_uart.c
00000000 l    df *ABS*	00000000 hbirdv2_common.c
00000000 l    df *ABS*	00000000 system_hbirdv2.c
80000888 l     F .text	00000044 system_default_exception_handler
800008d0 l     F .text	00000048 system_default_interrupt_handler
90000244 l     O .bss	00000028 SystemCoreInterruptHandlers
9000026c l     O .bss	0000002c SystemExceptionHandlers
90000298 l     O .bss	00000044 SystemExtInterruptHandlers
00000000 l    df *ABS*	00000000 libgcc2.c
00000000 l    df *ABS*	00000000 atexit.c
00000000 l    df *ABS*	00000000 fini.c
00000000 l    df *ABS*	00000000 init.c
00000000 l    df *ABS*	00000000 nano-vfprintf_float.c
00000000 l    df *ABS*	00000000 nano-vfprintf_i.c
00000000 l    df *ABS*	00000000 printf.c
00000000 l    df *ABS*	00000000 puts.c
00000000 l    df *ABS*	00000000 strlen.c
00000000 l    df *ABS*	00000000 sysisatty.c
00000000 l    df *ABS*	00000000 wbuf.c
00000000 l    df *ABS*	00000000 wsetup.c
00000000 l    df *ABS*	00000000 __atexit.c
900002dc l     O .bss	0000008c _global_atexit0
00000000 l    df *ABS*	00000000 dtoa.c
80001e7e l     F .text	0000012c quorem
00000000 l    df *ABS*	00000000 fflush.c
00000000 l    df *ABS*	00000000 findfp.c
80002daa l     F .text	00000068 std
00000000 l    df *ABS*	00000000 fwalk.c
00000000 l    df *ABS*	00000000 localeconv.c
00000000 l    df *ABS*	00000000 makebuf.c
00000000 l    df *ABS*	00000000 malloc.c
00000000 l    df *ABS*	00000000 memchr.c
00000000 l    df *ABS*	00000000 memcpy.c
00000000 l    df *ABS*	00000000 mprec.c
800062c8 l     O .rodata	0000000c p05.0
00000000 l    df *ABS*	00000000 nano-mallocr.c
00000000 l    df *ABS*	00000000 nano-mallocr.c
00000000 l    df *ABS*	00000000 nano-mallocr.c
00000000 l    df *ABS*	00000000 nano-vfprintf.c
80003ca0 l     F .text	0000002a __sfputc_r
00000000 l    df *ABS*	00000000 sbrkr.c
00000000 l    df *ABS*	00000000 stdio.c
00000000 l    df *ABS*	00000000 writer.c
00000000 l    df *ABS*	00000000 assert.c
00000000 l    df *ABS*	00000000 closer.c
00000000 l    df *ABS*	00000000 fprintf.c
00000000 l    df *ABS*	00000000 fstatr.c
00000000 l    df *ABS*	00000000 isattyr.c
00000000 l    df *ABS*	00000000 lseekr.c
00000000 l    df *ABS*	00000000 mbtowc_r.c
00000000 l    df *ABS*	00000000 mlock.c
00000000 l    df *ABS*	00000000 readr.c
00000000 l    df *ABS*	00000000 wctomb_r.c
00000000 l    df *ABS*	00000000 abort.c
00000000 l    df *ABS*	00000000 signal.c
00000000 l    df *ABS*	00000000 signalr.c
00000000 l    df *ABS*	00000000 adddf3.c
00000000 l    df *ABS*	00000000 divdf3.c
00000000 l    df *ABS*	00000000 eqdf2.c
00000000 l    df *ABS*	00000000 gedf2.c
00000000 l    df *ABS*	00000000 ledf2.c
00000000 l    df *ABS*	00000000 muldf3.c
00000000 l    df *ABS*	00000000 subdf3.c
00000000 l    df *ABS*	00000000 unorddf2.c
00000000 l    df *ABS*	00000000 fixdfsi.c
00000000 l    df *ABS*	00000000 floatsidf.c
00000000 l    df *ABS*	00000000 floatunsidf.c
00000000 l    df *ABS*	00000000 trunctfdf2.c
00000000 l    df *ABS*	00000000 libgcc2.c
00000000 l    df *ABS*	00000000 libgcc2.c
00000000 l    df *ABS*	00000000 locale.c
00000000 l    df *ABS*	00000000 ctype_.c
00000000 l    df *ABS*	00000000 impure.c
90000000 l     O .data	00000060 impure_data
00000000 l    df *ABS*	00000000 
800064b4 l       .rodata	00000000 __fini_array_end
800064b4 l       .rodata	00000000 __fini_array_start
800064b4 l       .rodata	00000000 __init_array_end
800064b4 l       .rodata	00000000 __preinit_array_end
800064b4 l       .rodata	00000000 __init_array_start
800064b4 l       .rodata	00000000 __preinit_array_start
8000111a g     F .text	000000ec __cvt
8000416e g     F .text	00000028 _isatty_r
80000158  w    F .text	00000004 _getpid
80001b34 g     F .text	000000de _puts_r
80004196 g     F .text	0000002c _lseek_r
80004e40 g     F .text	0000006a .hidden __eqdf2
800042c8 g     F .text	0000002a _kill_r
80001af4 g     F .text	00000040 printf
900009d0 g       .data	00000000 __global_pointer$
80004050 g     F .text	00000036 __sseek
80002e62 g     F .text	00000066 __sinit
80001c34 g     F .text	000000c6 __swbuf_r
80002e1c g     F .text	00000046 __sfmoreglue
800041fe g     F .text	00000002 __malloc_unlock
8000327c g     F .text	000000ac _Balloc
80004eaa g     F .text	000000a6 .hidden __gtdf2
80004144 g     F .text	0000002a _fstat_r
90000234 g     O .bss	00000004 errno
00000800 g       *ABS*	00000000 __stack_size
8000053c g     F .text	00000064 uart_write
800064b4 g       .rodata	00000000 __rt_init_start
800064b4 g       .rodata	00000000 __fsymtab_end
800000bc g       .ilalign	00000000 _ilm_lma
800030f8 g     F .text	000000dc memcpy
80002e12 g     F .text	0000000a _cleanup_r
80005aee g     F .text	00000066 .hidden __floatsidf
80004f50 g     F .text	000000a6 .hidden __ltdf2
80001c12 g     F .text	0000000c puts
800064b4 g       .rodata	00000000 __rt_init_end
900001d4 g     O .data	00000004 SystemCoreClock
800030d0 g     F .text	0000000e malloc
80001c30 g     F .text	00000004 isatty
8000425a g     F .text	00000062 _raise_r
80000138  w    F .text	0000001e _fstat
800040b8 g     F .text	0000003a __assert_func
80000608 g     F .text	0000027e get_cpu_freq
80006200 g     O .rodata	000000c8 __mprec_tens
800042f2 g     F .text	00000004 _getpid_r
80002fca g     F .text	0000000a _localeconv_r
800034f2 g     F .text	00000036 __i2b
80003faa g     F .text	00000028 _sbrk_r
80004200 g     F .text	0000002c _read_r
800064b4 g       .rodata	00000000 _eilm
800042f6 g     F .text	0000060a .hidden __adddf3
9000f800 g       .stack	00000000 _heap_end
80000160  w    F .text	00000004 _isatty
90000230 g     O .data	00000004 _global_impure_ptr
800010bc g     F .text	0000005e __libc_init_array
80000d1a g     F .text	00000360 .hidden __udivdi3
800061d8 g     O .rodata	00000028 __mprec_bigtens
8000424c g     F .text	0000000e abort
80005b54 g     F .text	0000004e .hidden __floatunsidf
800001a4  w    F .text	0000002e _sbrk
8000387c g     F .text	00000036 __mcmp
80000d14 g     F .text	00000002 _init
80001086 g     F .text	00000036 __libc_fini_array
80003442 g     F .text	00000046 __hi0bits
800000bc g       .ilalign	00000000 _ilm
80005a8a g     F .text	00000064 .hidden __fixdfsi
800009fc g     F .text	00000314 _premain_init
8000411a g     F .text	0000002a fprintf
80004f50 g     F .text	000000a6 .hidden __ledf2
800036a6 g     F .text	000000d2 __pow5mult
80006120 g     O .rodata	00000020 __sf_fake_stderr
80000930 g     F .text	000000ca core_trap_handler
80005dde g     F .text	0000003c .hidden __clzsi2
80003cca g     F .text	00000042 __sfputs_r
800004f4 g     F .text	00000044 uart_init
800030de g     F .text	0000001a memchr
800012a2  w    F .text	000004d4 _printf_float
80003b32 g     F .text	0000009e _free_r
90000238 g     O .bss	00000004 _global_atexit
90010000 g       .stack	00000000 _sp
80000000 g     F .init	00000000 _start
80000174  w    F .text	00000004 _lseek
80003778 g     F .text	00000104 __lshift
80001e0a g     F .text	00000074 __register_exitproc
80003528 g     F .text	0000017e __multiply
80003a0e g     F .text	000000ee __d2b
800040f2 g     F .text	00000028 _close_r
80001cfa g     F .text	00000110 __swsetup_r
80004900 g     F .text	00000540 .hidden __divdf3
80002ec8 g     F .text	00000098 __sfp
80004ff6 g     F .text	00000442 .hidden __muldf3
80003fd2 g     F .text	00000030 __sread
800041fc g     F .text	00000002 __malloc_lock
80002d46 g     F .text	00000064 _fflush_r
80003afc g     F .text	00000036 _calloc_r
80006140 g     O .rodata	00000020 __sf_fake_stdin
90000234 g       .bss	00000000 __bss_start
800031d4 g     F .text	000000a8 memset
800000bc g     F .text	0000004a main
80000464  w      .text	00000000 trap_entry
80004086 g     F .text	00000006 __sclose
80001faa g     F .text	00000c54 _dtoa_r
80003bd0 g     F .text	000000d0 _malloc_r
8000422c g     F .text	00000020 __ascii_wctomb
800064b4 g       .rodata	00000000 __vsymtab_start
8000091c g     F .text	00000012 SystemInit
80004e40 g     F .text	0000006a .hidden __nedf2
80000d18 g     F .text	00000002 _fini
80001af4 g     F .text	00000040 iprintf
80005efc g     O .rodata	00000100 .hidden __clz_tab
80001206 g     F .text	0000009c __exponent
8000107a g     F .text	0000000c atexit
8000408c g     F .text	0000002c _write_r
80001776 g     F .text	0000010c _printf_common
900001d8 g     O .data	00000004 _impure_ptr
80002bfe g     F .text	00000148 __sflush_r
800041c2 g     F .text	0000003a __ascii_mbtowc
90000000 g       .dalign	00000000 _data
800064b4 g       .rodata	00000000 __vsymtab_end
80002fd4 g     F .text	0000005c __swhatbuf_r
800001d4  w    F .text	0000028e _write
90000234 g       .bss	00000000 _edata
80000d10 g     F .text	00000002 _postmain_fini
90000368 g       .bss	00000000 _end
800064b4 g       .lalign	00000000 _data_lma
800005a0 g     F .text	00000066 uart_read
80004002 g     F .text	0000004e __swrite
8000411a g     F .text	0000002a fiprintf
80003d0c g     F .text	0000029e _vfiprintf_r
80002f60 g     F .text	0000006a _fwalk_reent
800038b2 g     F .text	0000015c __mdiff
80000168  w    F .text	0000000a _kill
80006160 g     O .rodata	00000020 __sf_fake_stdout
80006338 g     O .rodata	00000101 _ctype_
8000017c  w    F .text	00000026 _read
80005a50 g     F .text	0000003a .hidden __unorddf2
80000114  w    F .text	00000022 _exit
80003030 g     F .text	000000a0 __smakebuf_r
80001c1e g     F .text	00000012 strlen
80001882 g     F .text	00000272 _printf_i
80004eaa g     F .text	000000a6 .hidden __gedf2
90000240 g     O .bss	00000004 __malloc_sbrk_start
9000023c g     O .bss	00000004 __malloc_free_list
800064b4 g       .rodata	00000000 __fsymtab_start
80005438 g     F .text	00000618 .hidden __subdf3
80003d0c g     F .text	0000029e _vfprintf_r
80003488 g     F .text	0000006a __lo0bits
90000060 g     O .data	0000016c __global_locale
800004dc g     F .text	00000014 gpio_iof_config
80005ba2 g     F .text	0000023c .hidden __trunctfdf2
800042bc g     F .text	0000000c raise
80000108  w    F .text	0000000a _close
80003388 g     F .text	000000ba __multadd
80003328 g     F .text	00000060 _Bfree



Disassembly of section .init:

80000000 <_start>:
_start():
C:\Users\zzh\NucleiStudio_workspace\axi_ddr200\Debug/../hbird_sdk/SoC/hbirdv2/Common/Source/GCC/startup_hbirdv2.S:40
 * Reset Handler called on controller reset
 */
_start:
    /* ===== Startup Stage 1 ===== */
    /* Disable Global Interrupt */
    csrc CSR_MSTATUS, MSTATUS_MIE
80000000:	30047073          	csrci	mstatus,8
C:\Users\zzh\NucleiStudio_workspace\axi_ddr200\Debug/../hbird_sdk/SoC/hbirdv2/Common/Source/GCC/startup_hbirdv2.S:42
    /* Disable all interrupts controlled by CSR MIE */
    csrw CSR_MIE, 0x0
80000004:	30405073          	csrwi	mie,0
C:\Users\zzh\NucleiStudio_workspace\axi_ddr200\Debug/../hbird_sdk/SoC/hbirdv2/Common/Source/GCC/startup_hbirdv2.S:47

    /* Initialize GP and Stack Pointer SP */
    .option push
    .option norelax
    la gp, __global_pointer$
80000008:	10001197          	auipc	gp,0x10001
8000000c:	9c818193          	addi	gp,gp,-1592 # 900009d0 <__global_pointer$>
C:\Users\zzh\NucleiStudio_workspace\axi_ddr200\Debug/../hbird_sdk/SoC/hbirdv2/Common/Source/GCC/startup_hbirdv2.S:49
    .option pop
    la sp, _sp
80000010:	10010117          	auipc	sp,0x10010
80000014:	ff010113          	addi	sp,sp,-16 # 90010000 <_sp>
C:\Users\zzh\NucleiStudio_workspace\axi_ddr200\Debug/../hbird_sdk/SoC/hbirdv2/Common/Source/GCC/startup_hbirdv2.S:54

    /*
     * Set Trap Entry MTVEC to trap_entry
     */
    la t0, trap_entry
80000018:	00000297          	auipc	t0,0x0
8000001c:	44c28293          	addi	t0,t0,1100 # 80000464 <trap_entry>
C:\Users\zzh\NucleiStudio_workspace\axi_ddr200\Debug/../hbird_sdk/SoC/hbirdv2/Common/Source/GCC/startup_hbirdv2.S:55
    csrw CSR_MTVEC, t0
80000020:	30529073          	csrw	mtvec,t0
C:\Users\zzh\NucleiStudio_workspace\axi_ddr200\Debug/../hbird_sdk/SoC/hbirdv2/Common/Source/GCC/startup_hbirdv2.S:58

    /* Direct Mode: All exceptions set pc to BASE. */
    csrc CSR_MTVEC, 0x3
80000024:	3051f073          	csrci	mtvec,3
C:\Users\zzh\NucleiStudio_workspace\axi_ddr200\Debug/../hbird_sdk/SoC/hbirdv2/Common/Source/GCC/startup_hbirdv2.S:74
    /* ===== Startup Stage 3 ===== */
    /*
     * Load code section frm FLASH to ILM
     * when code LMA is different with VMA
     */
    la a0, _ilm_lma
80000028:	00000517          	auipc	a0,0x0
8000002c:	09450513          	addi	a0,a0,148 # 800000bc <main>
C:\Users\zzh\NucleiStudio_workspace\axi_ddr200\Debug/../hbird_sdk/SoC/hbirdv2/Common/Source/GCC/startup_hbirdv2.S:75
    la a1, _ilm
80000030:	00000597          	auipc	a1,0x0
80000034:	08c58593          	addi	a1,a1,140 # 800000bc <main>
C:\Users\zzh\NucleiStudio_workspace\axi_ddr200\Debug/../hbird_sdk/SoC/hbirdv2/Common/Source/GCC/startup_hbirdv2.S:77
    /* If the ILM phy-address same as the logic-address, then quit */
    beq a0, a1, 2f
80000038:	02b50063          	beq	a0,a1,80000058 <_start+0x58>
C:\Users\zzh\NucleiStudio_workspace\axi_ddr200\Debug/../hbird_sdk/SoC/hbirdv2/Common/Source/GCC/startup_hbirdv2.S:78
    la a2, _eilm
8000003c:	00006617          	auipc	a2,0x6
80000040:	47860613          	addi	a2,a2,1144 # 800064b4 <__fsymtab_end>
C:\Users\zzh\NucleiStudio_workspace\axi_ddr200\Debug/../hbird_sdk/SoC/hbirdv2/Common/Source/GCC/startup_hbirdv2.S:79
    bgeu a1, a2, 2f
80000044:	00c5fa63          	bgeu	a1,a2,80000058 <_start+0x58>
C:\Users\zzh\NucleiStudio_workspace\axi_ddr200\Debug/../hbird_sdk/SoC/hbirdv2/Common/Source/GCC/startup_hbirdv2.S:83

1:
    /* Load code section if necessary */
    lw t0, (a0)
80000048:	00052283          	lw	t0,0(a0)
C:\Users\zzh\NucleiStudio_workspace\axi_ddr200\Debug/../hbird_sdk/SoC/hbirdv2/Common/Source/GCC/startup_hbirdv2.S:84
    sw t0, (a1)
8000004c:	0055a023          	sw	t0,0(a1)
C:\Users\zzh\NucleiStudio_workspace\axi_ddr200\Debug/../hbird_sdk/SoC/hbirdv2/Common/Source/GCC/startup_hbirdv2.S:85
    addi a0, a0, 4
80000050:	0511                	addi	a0,a0,4
C:\Users\zzh\NucleiStudio_workspace\axi_ddr200\Debug/../hbird_sdk/SoC/hbirdv2/Common/Source/GCC/startup_hbirdv2.S:86
    addi a1, a1, 4
80000052:	0591                	addi	a1,a1,4
C:\Users\zzh\NucleiStudio_workspace\axi_ddr200\Debug/../hbird_sdk/SoC/hbirdv2/Common/Source/GCC/startup_hbirdv2.S:87
    bltu a1, a2, 1b
80000054:	fec5eae3          	bltu	a1,a2,80000048 <_start+0x48>
C:\Users\zzh\NucleiStudio_workspace\axi_ddr200\Debug/../hbird_sdk/SoC/hbirdv2/Common/Source/GCC/startup_hbirdv2.S:90
2:
    /* Load data section */
    la a0, _data_lma
80000058:	00006517          	auipc	a0,0x6
8000005c:	45c50513          	addi	a0,a0,1116 # 800064b4 <__fsymtab_end>
C:\Users\zzh\NucleiStudio_workspace\axi_ddr200\Debug/../hbird_sdk/SoC/hbirdv2/Common/Source/GCC/startup_hbirdv2.S:91
    la a1, _data
80000060:	10000597          	auipc	a1,0x10000
80000064:	fa058593          	addi	a1,a1,-96 # 90000000 <impure_data>
C:\Users\zzh\NucleiStudio_workspace\axi_ddr200\Debug/../hbird_sdk/SoC/hbirdv2/Common/Source/GCC/startup_hbirdv2.S:92
    la a2, _edata
80000068:	86418613          	addi	a2,gp,-1948 # 90000234 <errno>
C:\Users\zzh\NucleiStudio_workspace\axi_ddr200\Debug/../hbird_sdk/SoC/hbirdv2/Common/Source/GCC/startup_hbirdv2.S:93
    bgeu a1, a2, 2f
8000006c:	00c5fa63          	bgeu	a1,a2,80000080 <_start+0x80>
C:\Users\zzh\NucleiStudio_workspace\axi_ddr200\Debug/../hbird_sdk/SoC/hbirdv2/Common/Source/GCC/startup_hbirdv2.S:95
1:
    lw t0, (a0)
80000070:	00052283          	lw	t0,0(a0)
C:\Users\zzh\NucleiStudio_workspace\axi_ddr200\Debug/../hbird_sdk/SoC/hbirdv2/Common/Source/GCC/startup_hbirdv2.S:96
    sw t0, (a1)
80000074:	0055a023          	sw	t0,0(a1)
C:\Users\zzh\NucleiStudio_workspace\axi_ddr200\Debug/../hbird_sdk/SoC/hbirdv2/Common/Source/GCC/startup_hbirdv2.S:97
    addi a0, a0, 4
80000078:	0511                	addi	a0,a0,4
C:\Users\zzh\NucleiStudio_workspace\axi_ddr200\Debug/../hbird_sdk/SoC/hbirdv2/Common/Source/GCC/startup_hbirdv2.S:98
    addi a1, a1, 4
8000007a:	0591                	addi	a1,a1,4
C:\Users\zzh\NucleiStudio_workspace\axi_ddr200\Debug/../hbird_sdk/SoC/hbirdv2/Common/Source/GCC/startup_hbirdv2.S:99
    bltu a1, a2, 1b
8000007c:	fec5eae3          	bltu	a1,a2,80000070 <_start+0x70>
C:\Users\zzh\NucleiStudio_workspace\axi_ddr200\Debug/../hbird_sdk/SoC/hbirdv2/Common/Source/GCC/startup_hbirdv2.S:102
2:
    /* Clear bss section */
    la a0, __bss_start
80000080:	86418513          	addi	a0,gp,-1948 # 90000234 <errno>
C:\Users\zzh\NucleiStudio_workspace\axi_ddr200\Debug/../hbird_sdk/SoC/hbirdv2/Common/Source/GCC/startup_hbirdv2.S:103
    la a1, _end
80000084:	99818593          	addi	a1,gp,-1640 # 90000368 <_end>
C:\Users\zzh\NucleiStudio_workspace\axi_ddr200\Debug/../hbird_sdk/SoC/hbirdv2/Common/Source/GCC/startup_hbirdv2.S:104
    bgeu a0, a1, 2f
80000088:	00b57763          	bgeu	a0,a1,80000096 <_start+0x96>
C:\Users\zzh\NucleiStudio_workspace\axi_ddr200\Debug/../hbird_sdk/SoC/hbirdv2/Common/Source/GCC/startup_hbirdv2.S:106
1:
    sw zero, (a0)
8000008c:	00052023          	sw	zero,0(a0)
C:\Users\zzh\NucleiStudio_workspace\axi_ddr200\Debug/../hbird_sdk/SoC/hbirdv2/Common/Source/GCC/startup_hbirdv2.S:107
    addi a0, a0, 4
80000090:	0511                	addi	a0,a0,4
C:\Users\zzh\NucleiStudio_workspace\axi_ddr200\Debug/../hbird_sdk/SoC/hbirdv2/Common/Source/GCC/startup_hbirdv2.S:108
    bltu a0, a1, 1b
80000092:	feb56de3          	bltu	a0,a1,8000008c <_start+0x8c>
C:\Users\zzh\NucleiStudio_workspace\axi_ddr200\Debug/../hbird_sdk/SoC/hbirdv2/Common/Source/GCC/startup_hbirdv2.S:115

    /*
     * Call vendor defined SystemInit to
     * initialize the micro-controller system
     */
    call SystemInit
80000096:	087000ef          	jal	ra,8000091c <SystemInit>
C:\Users\zzh\NucleiStudio_workspace\axi_ddr200\Debug/../hbird_sdk/SoC/hbirdv2/Common/Source/GCC/startup_hbirdv2.S:118

    /* Call global constructors */
    la a0, __libc_fini_array
8000009a:	00001517          	auipc	a0,0x1
8000009e:	fec50513          	addi	a0,a0,-20 # 80001086 <__libc_fini_array>
C:\Users\zzh\NucleiStudio_workspace\axi_ddr200\Debug/../hbird_sdk/SoC/hbirdv2/Common/Source/GCC/startup_hbirdv2.S:119
    call atexit
800000a2:	7d9000ef          	jal	ra,8000107a <atexit>
C:\Users\zzh\NucleiStudio_workspace\axi_ddr200\Debug/../hbird_sdk/SoC/hbirdv2/Common/Source/GCC/startup_hbirdv2.S:121
    /* Call C/C++ constructor start up code */
    call __libc_init_array
800000a6:	016010ef          	jal	ra,800010bc <__libc_init_array>
C:\Users\zzh\NucleiStudio_workspace\axi_ddr200\Debug/../hbird_sdk/SoC/hbirdv2/Common/Source/GCC/startup_hbirdv2.S:124

    /* do pre-init steps before main */
    call _premain_init
800000aa:	153000ef          	jal	ra,800009fc <_premain_init>
C:\Users\zzh\NucleiStudio_workspace\axi_ddr200\Debug/../hbird_sdk/SoC/hbirdv2/Common/Source/GCC/startup_hbirdv2.S:127
    /* ===== Call Main Function  ===== */
    /* argc = argv = 0 */
    li a0, 0
800000ae:	4501                	li	a0,0
C:\Users\zzh\NucleiStudio_workspace\axi_ddr200\Debug/../hbird_sdk/SoC/hbirdv2/Common/Source/GCC/startup_hbirdv2.S:128
    li a1, 0
800000b0:	4581                	li	a1,0
C:\Users\zzh\NucleiStudio_workspace\axi_ddr200\Debug/../hbird_sdk/SoC/hbirdv2/Common/Source/GCC/startup_hbirdv2.S:134

#ifdef RTOS_RTTHREAD
    // Call entry function when using RT-Thread
    call entry
#else
    call main
800000b2:	2029                	jal	800000bc <main>
C:\Users\zzh\NucleiStudio_workspace\axi_ddr200\Debug/../hbird_sdk/SoC/hbirdv2/Common/Source/GCC/startup_hbirdv2.S:137
#endif
    /* do post-main steps after main */
    call _postmain_fini
800000b4:	45d000ef          	jal	ra,80000d10 <_postmain_fini>
C:\Users\zzh\NucleiStudio_workspace\axi_ddr200\Debug/../hbird_sdk/SoC/hbirdv2/Common/Source/GCC/startup_hbirdv2.S:140

1:
    j 1b
800000b8:	a001                	j	800000b8 <_start+0xb8>

Disassembly of section .text:

800000bc <main>:
main():
C:\Users\zzh\NucleiStudio_workspace\axi_ddr200\Debug/../application/main.c:26
 */

#define USER_DEF_GPIO_BASE 0xB0000000

int main(void)
{
800000bc:	1101                	addi	sp,sp,-32
800000be:	ca26                	sw	s1,20(sp)
C:\Users\zzh\NucleiStudio_workspace\axi_ddr200\Debug/../application/main.c:34
	  unsigned int * pu32;
	  pu32 = (unsigned int *)USER_DEF_GPIO_BASE;
	  *pu32 = 0xffffffff;
	  printf("LED off\r\n");
	  for(i=0;i<500;i++);
	  *pu32 = 0xaaaaaaaa;
800000c0:	aaaab4b7          	lui	s1,0xaaaab
C:\Users\zzh\NucleiStudio_workspace\axi_ddr200\Debug/../application/main.c:26
{
800000c4:	cc22                	sw	s0,24(sp)
800000c6:	c84a                	sw	s2,16(sp)
800000c8:	c64e                	sw	s3,12(sp)
800000ca:	c452                	sw	s4,8(sp)
800000cc:	ce06                	sw	ra,28(sp)
C:\Users\zzh\NucleiStudio_workspace\axi_ddr200\Debug/../application/main.c:31
	  *pu32 = 0xffffffff;
800000ce:	b0000437          	lui	s0,0xb0000
800000d2:	5a7d                	li	s4,-1
C:\Users\zzh\NucleiStudio_workspace\axi_ddr200\Debug/../application/main.c:32
	  printf("LED off\r\n");
800000d4:	00006997          	auipc	s3,0x6
800000d8:	e1498993          	addi	s3,s3,-492 # 80005ee8 <__clzsi2+0x10a>
C:\Users\zzh\NucleiStudio_workspace\axi_ddr200\Debug/../application/main.c:34
	  *pu32 = 0xaaaaaaaa;
800000dc:	aaa48493          	addi	s1,s1,-1366 # aaaaaaaa <_sp+0x1aa9aaaa>
C:\Users\zzh\NucleiStudio_workspace\axi_ddr200\Debug/../application/main.c:35
	  printf("LED on\r\n");
800000e0:	00006917          	auipc	s2,0x6
800000e4:	e1490913          	addi	s2,s2,-492 # 80005ef4 <__clzsi2+0x116>
C:\Users\zzh\NucleiStudio_workspace\axi_ddr200\Debug/../application/main.c:31
	  *pu32 = 0xffffffff;
800000e8:	01442023          	sw	s4,0(s0) # b0000000 <_sp+0x1fff0000>
C:\Users\zzh\NucleiStudio_workspace\axi_ddr200\Debug/../application/main.c:32
	  printf("LED off\r\n");
800000ec:	854e                	mv	a0,s3
800000ee:	325010ef          	jal	ra,80001c12 <puts>
C:\Users\zzh\NucleiStudio_workspace\axi_ddr200\Debug/../application/main.c:35
	  printf("LED on\r\n");
800000f2:	854a                	mv	a0,s2
C:\Users\zzh\NucleiStudio_workspace\axi_ddr200\Debug/../application/main.c:34
	  *pu32 = 0xaaaaaaaa;
800000f4:	c004                	sw	s1,0(s0)
C:\Users\zzh\NucleiStudio_workspace\axi_ddr200\Debug/../application/main.c:35
	  printf("LED on\r\n");
800000f6:	31d010ef          	jal	ra,80001c12 <puts>
800000fa:	1f400793          	li	a5,500
800000fe:	0001                	nop
C:\Users\zzh\NucleiStudio_workspace\axi_ddr200\Debug/../application/main.c:36 (discriminator 3)
	  for(i=0;i<500;i++);
80000100:	17d9                	addi	a5,a5,-10
80000102:	fffd                	bnez	a5,80000100 <main+0x44>
80000104:	b7d5                	j	800000e8 <main+0x2c>
	...

80000108 <_close>:
_close():
C:\Users\zzh\NucleiStudio_workspace\axi_ddr200\Debug/../hbird_sdk/SoC/hbirdv2/Common/Source/Stubs/close.c:10
#undef errno
extern int errno;

__WEAK int _close(int fd)
{
    errno = EBADF;
80000108:	47a5                	li	a5,9
8000010a:	86f1a223          	sw	a5,-1948(gp) # 90000234 <errno>
C:\Users\zzh\NucleiStudio_workspace\axi_ddr200\Debug/../hbird_sdk/SoC/hbirdv2/Common/Source/Stubs/close.c:12
    return -1;
}
8000010e:	557d                	li	a0,-1
80000110:	8082                	ret
	...

80000114 <_exit>:
__WFI():
C:\Users\zzh\NucleiStudio_workspace\axi_ddr200\hbird_sdk\NMSIS\Core\Include/core_feature_base.h:598 (discriminator 1)
 * the hardware platform that suitable interrupts should
 * preferentially be routed to this hart.
 */
__STATIC_FORCEINLINE void __WFI(void)
{
    __ASM volatile("wfi");
80000114:	10500073          	wfi
80000118:	10500073          	wfi
8000011c:	10500073          	wfi
80000120:	10500073          	wfi
80000124:	10500073          	wfi
80000128:	10500073          	wfi
8000012c:	10500073          	wfi
80000130:	10500073          	wfi
80000134:	b7c5                	j	80000114 <_exit>
	...

80000138 <_fstat>:
_fstat():
C:\Users\zzh\NucleiStudio_workspace\axi_ddr200\Debug/../hbird_sdk/SoC/hbirdv2/Common/Source/Stubs/fstat.c:12
#undef errno
extern int errno;

__WEAK int _fstat(int file, struct stat *st)
{
    if ((STDOUT_FILENO == file) || (STDERR_FILENO == file)) {
80000138:	157d                	addi	a0,a0,-1
8000013a:	4785                	li	a5,1
8000013c:	00a7e863          	bltu	a5,a0,8000014c <_fstat+0x14>
C:\Users\zzh\NucleiStudio_workspace\axi_ddr200\Debug/../hbird_sdk/SoC/hbirdv2/Common/Source/Stubs/fstat.c:13
        st->st_mode = S_IFCHR;
80000140:	6309                	lui	t1,0x2
C:\Users\zzh\NucleiStudio_workspace\axi_ddr200\Debug/../hbird_sdk/SoC/hbirdv2/Common/Source/Stubs/fstat.c:14
        return 0;
80000142:	4501                	li	a0,0
C:\Users\zzh\NucleiStudio_workspace\axi_ddr200\Debug/../hbird_sdk/SoC/hbirdv2/Common/Source/Stubs/fstat.c:13
        st->st_mode = S_IFCHR;
80000144:	0065a223          	sw	t1,4(a1)
C:\Users\zzh\NucleiStudio_workspace\axi_ddr200\Debug/../hbird_sdk/SoC/hbirdv2/Common/Source/Stubs/fstat.c:14
        return 0;
80000148:	8082                	ret
8000014a:	0001                	nop
C:\Users\zzh\NucleiStudio_workspace\axi_ddr200\Debug/../hbird_sdk/SoC/hbirdv2/Common/Source/Stubs/fstat.c:16
    } else {
        errno = EBADF;
8000014c:	42a5                	li	t0,9
C:\Users\zzh\NucleiStudio_workspace\axi_ddr200\Debug/../hbird_sdk/SoC/hbirdv2/Common/Source/Stubs/fstat.c:17
        return -1;
8000014e:	557d                	li	a0,-1
C:\Users\zzh\NucleiStudio_workspace\axi_ddr200\Debug/../hbird_sdk/SoC/hbirdv2/Common/Source/Stubs/fstat.c:16
        errno = EBADF;
80000150:	8651a223          	sw	t0,-1948(gp) # 90000234 <errno>
C:\Users\zzh\NucleiStudio_workspace\axi_ddr200\Debug/../hbird_sdk/SoC/hbirdv2/Common/Source/Stubs/fstat.c:19
    }
}
80000154:	8082                	ret
	...

80000158 <_getpid>:
_getpid():
C:\Users\zzh\NucleiStudio_workspace\axi_ddr200\Debug/../hbird_sdk/SoC/hbirdv2/Common/Source/Stubs/getpid.c:8
#include <errno.h>

__WEAK int _getpid(void)
{
    return 1;
}
80000158:	4505                	li	a0,1
8000015a:	8082                	ret
8000015c:	0000                	unimp
	...

80000160 <_isatty>:
_isatty():
C:\Users\zzh\NucleiStudio_workspace\axi_ddr200\Debug/../hbird_sdk/SoC/hbirdv2/Common/Source/Stubs/isatty.c:8
#include <unistd.h>

__WEAK int _isatty(int fd)
{
    return 1;
}
80000160:	4505                	li	a0,1
80000162:	8082                	ret
80000164:	0000                	unimp
	...

80000168 <_kill>:
_kill():
C:\Users\zzh\NucleiStudio_workspace\axi_ddr200\Debug/../hbird_sdk/SoC/hbirdv2/Common/Source/Stubs/kill.c:9
#undef errno
extern int errno;

__WEAK int _kill(int pid, int sig)
{
    errno = EINVAL;
80000168:	47d9                	li	a5,22
8000016a:	86f1a223          	sw	a5,-1948(gp) # 90000234 <errno>
C:\Users\zzh\NucleiStudio_workspace\axi_ddr200\Debug/../hbird_sdk/SoC/hbirdv2/Common/Source/Stubs/kill.c:11
    return -1;
}
8000016e:	557d                	li	a0,-1
80000170:	8082                	ret
	...

80000174 <_lseek>:
_lseek():
C:\Users\zzh\NucleiStudio_workspace\axi_ddr200\Debug/../hbird_sdk/SoC/hbirdv2/Common/Source/Stubs/lseek.c:11
extern int errno;

__WEAK int _lseek(int file, int offset, int whence)
{
    return 0;
}
80000174:	4501                	li	a0,0
80000176:	8082                	ret
80000178:	0000                	unimp
	...

8000017c <_read>:
_read():
C:\Users\zzh\NucleiStudio_workspace\axi_ddr200\Debug/../hbird_sdk/SoC/hbirdv2/Common/Source/Stubs/read.c:12

// #define UART_AUTO_ECHO

__WEAK ssize_t _read(int fd, void* ptr, size_t len)
{
    if (fd != STDIN_FILENO) {
8000017c:	c501                	beqz	a0,80000184 <_read+0x8>
C:\Users\zzh\NucleiStudio_workspace\axi_ddr200\Debug/../hbird_sdk/SoC/hbirdv2/Common/Source/Stubs/read.c:13
        return -1;
8000017e:	557d                	li	a0,-1
C:\Users\zzh\NucleiStudio_workspace\axi_ddr200\Debug/../hbird_sdk/SoC/hbirdv2/Common/Source/Stubs/read.c:22
    readbuf[0] = uart_read(SOC_DEBUG_UART);
#ifdef UART_AUTO_ECHO
    uart_write(SOC_DEBUG_UART, readbuf[0]);
#endif
    return 1;
}
80000180:	8082                	ret
80000182:	0001                	nop
C:\Users\zzh\NucleiStudio_workspace\axi_ddr200\Debug/../hbird_sdk/SoC/hbirdv2/Common/Source/Stubs/read.c:11
{
80000184:	1141                	addi	sp,sp,-16
C:\Users\zzh\NucleiStudio_workspace\axi_ddr200\Debug/../hbird_sdk/SoC/hbirdv2/Common/Source/Stubs/read.c:17
    readbuf[0] = uart_read(SOC_DEBUG_UART);
80000186:	10013537          	lui	a0,0x10013
C:\Users\zzh\NucleiStudio_workspace\axi_ddr200\Debug/../hbird_sdk/SoC/hbirdv2/Common/Source/Stubs/read.c:11
{
8000018a:	c422                	sw	s0,8(sp)
8000018c:	c606                	sw	ra,12(sp)
8000018e:	842e                	mv	s0,a1
C:\Users\zzh\NucleiStudio_workspace\axi_ddr200\Debug/../hbird_sdk/SoC/hbirdv2/Common/Source/Stubs/read.c:17
    readbuf[0] = uart_read(SOC_DEBUG_UART);
80000190:	2901                	jal	800005a0 <uart_read>
80000192:	87aa                	mv	a5,a0
80000194:	00f40023          	sb	a5,0(s0)
C:\Users\zzh\NucleiStudio_workspace\axi_ddr200\Debug/../hbird_sdk/SoC/hbirdv2/Common/Source/Stubs/read.c:22
}
80000198:	40b2                	lw	ra,12(sp)
8000019a:	4422                	lw	s0,8(sp)
C:\Users\zzh\NucleiStudio_workspace\axi_ddr200\Debug/../hbird_sdk/SoC/hbirdv2/Common/Source/Stubs/read.c:21
    return 1;
8000019c:	4505                	li	a0,1
C:\Users\zzh\NucleiStudio_workspace\axi_ddr200\Debug/../hbird_sdk/SoC/hbirdv2/Common/Source/Stubs/read.c:22
}
8000019e:	0141                	addi	sp,sp,16
800001a0:	8082                	ret
	...

800001a4 <_sbrk>:
_sbrk():
C:\Users\zzh\NucleiStudio_workspace\axi_ddr200\Debug/../hbird_sdk/SoC/hbirdv2/Common/Source/Stubs/sbrk.c:13
{
    extern char _end[];
    extern char _heap_end[];
    static char *curbrk = _end;

    if ((curbrk + incr < _end) || (curbrk + incr > _heap_end)) {
800001a4:	10000717          	auipc	a4,0x10000
800001a8:	02c70713          	addi	a4,a4,44 # 900001d0 <curbrk.0>
800001ac:	431c                	lw	a5,0(a4)
800001ae:	99818693          	addi	a3,gp,-1640 # 90000368 <_end>
800001b2:	953e                	add	a0,a0,a5
800001b4:	00d56c63          	bltu	a0,a3,800001cc <_sbrk+0x28>
C:\Users\zzh\NucleiStudio_workspace\axi_ddr200\Debug/../hbird_sdk/SoC/hbirdv2/Common/Source/Stubs/sbrk.c:13 (discriminator 1)
800001b8:	1000f297          	auipc	t0,0x1000f
800001bc:	64828293          	addi	t0,t0,1608 # 9000f800 <_heap_end>
800001c0:	00a2e663          	bltu	t0,a0,800001cc <_sbrk+0x28>
C:\Users\zzh\NucleiStudio_workspace\axi_ddr200\Debug/../hbird_sdk/SoC/hbirdv2/Common/Source/Stubs/sbrk.c:17
        return (void *)(-1);
    }

    curbrk += incr;
800001c4:	c308                	sw	a0,0(a4)
C:\Users\zzh\NucleiStudio_workspace\axi_ddr200\Debug/../hbird_sdk/SoC/hbirdv2/Common/Source/Stubs/sbrk.c:19
    return (void *)(curbrk - incr);
}
800001c6:	853e                	mv	a0,a5
800001c8:	8082                	ret
800001ca:	0001                	nop
C:\Users\zzh\NucleiStudio_workspace\axi_ddr200\Debug/../hbird_sdk/SoC/hbirdv2/Common/Source/Stubs/sbrk.c:14
        return (void *)(-1);
800001cc:	57fd                	li	a5,-1
C:\Users\zzh\NucleiStudio_workspace\axi_ddr200\Debug/../hbird_sdk/SoC/hbirdv2/Common/Source/Stubs/sbrk.c:19
}
800001ce:	853e                	mv	a0,a5
800001d0:	8082                	ret
	...

800001d4 <_write>:
_write():
C:\Users\zzh\NucleiStudio_workspace\axi_ddr200\Debug/../hbird_sdk/SoC/hbirdv2/Common/Source/Stubs/write.c:9
#include <unistd.h>
#include <sys/types.h>
#include <hbird_sdk_hal.h>

__WEAK ssize_t _write(int fd, const void* ptr, size_t len)
{
800001d4:	1101                	addi	sp,sp,-32
800001d6:	c84a                	sw	s2,16(sp)
800001d8:	c64e                	sw	s3,12(sp)
800001da:	ce06                	sw	ra,28(sp)
800001dc:	cc22                	sw	s0,24(sp)
800001de:	ca26                	sw	s1,20(sp)
800001e0:	c452                	sw	s4,8(sp)
800001e2:	892e                	mv	s2,a1
800001e4:	89b2                	mv	s3,a2
C:\Users\zzh\NucleiStudio_workspace\axi_ddr200\Debug/../hbird_sdk/SoC/hbirdv2/Common/Source/Stubs/write.c:10
    if (!isatty(fd)) {
800001e6:	24b010ef          	jal	ra,80001c30 <isatty>
800001ea:	26050a63          	beqz	a0,8000045e <_write+0x28a>
800001ee:	844a                	mv	s0,s2
800001f0:	01390a33          	add	s4,s2,s3
C:\Users\zzh\NucleiStudio_workspace\axi_ddr200\Debug/../hbird_sdk/SoC/hbirdv2/Common/Source/Stubs/write.c:15
        return -1;
    }

    const uint8_t *writebuf = (const uint8_t *)ptr;
    for (size_t i = 0; i < len; i++) {
800001f4:	0a098663          	beqz	s3,800002a0 <_write+0xcc>
800001f8:	412a07b3          	sub	a5,s4,s2
800001fc:	0077f093          	andi	ra,a5,7
C:\Users\zzh\NucleiStudio_workspace\axi_ddr200\Debug/../hbird_sdk/SoC/hbirdv2/Common/Source/Stubs/write.c:16
        if (writebuf[i] == '\n') {
80000200:	44a9                	li	s1,10
80000202:	12008963          	beqz	ra,80000334 <_write+0x160>
80000206:	4705                	li	a4,1
80000208:	08e08263          	beq	ra,a4,8000028c <_write+0xb8>
8000020c:	4289                	li	t0,2
8000020e:	06508763          	beq	ra,t0,8000027c <_write+0xa8>
80000212:	430d                	li	t1,3
80000214:	04608c63          	beq	ra,t1,8000026c <_write+0x98>
80000218:	4391                	li	t2,4
8000021a:	04708163          	beq	ra,t2,8000025c <_write+0x88>
8000021e:	4515                	li	a0,5
80000220:	02a08663          	beq	ra,a0,8000024c <_write+0x78>
80000224:	4599                	li	a1,6
80000226:	00b08b63          	beq	ra,a1,8000023c <_write+0x68>
8000022a:	00094583          	lbu	a1,0(s2)
8000022e:	22958163          	beq	a1,s1,80000450 <_write+0x27c>
C:\Users\zzh\NucleiStudio_workspace\axi_ddr200\Debug/../hbird_sdk/SoC/hbirdv2/Common/Source/Stubs/write.c:19
            uart_write(SOC_DEBUG_UART, '\r');
        }
        uart_write(SOC_DEBUG_UART, writebuf[i]);
80000232:	10013537          	lui	a0,0x10013
80000236:	2619                	jal	8000053c <uart_write>
C:\Users\zzh\NucleiStudio_workspace\axi_ddr200\Debug/../hbird_sdk/SoC/hbirdv2/Common/Source/Stubs/write.c:15
    for (size_t i = 0; i < len; i++) {
80000238:	00190413          	addi	s0,s2,1
C:\Users\zzh\NucleiStudio_workspace\axi_ddr200\Debug/../hbird_sdk/SoC/hbirdv2/Common/Source/Stubs/write.c:16
        if (writebuf[i] == '\n') {
8000023c:	00044583          	lbu	a1,0(s0)
80000240:	20958163          	beq	a1,s1,80000442 <_write+0x26e>
C:\Users\zzh\NucleiStudio_workspace\axi_ddr200\Debug/../hbird_sdk/SoC/hbirdv2/Common/Source/Stubs/write.c:19
        uart_write(SOC_DEBUG_UART, writebuf[i]);
80000244:	10013537          	lui	a0,0x10013
80000248:	2cd5                	jal	8000053c <uart_write>
C:\Users\zzh\NucleiStudio_workspace\axi_ddr200\Debug/../hbird_sdk/SoC/hbirdv2/Common/Source/Stubs/write.c:15
    for (size_t i = 0; i < len; i++) {
8000024a:	0405                	addi	s0,s0,1
C:\Users\zzh\NucleiStudio_workspace\axi_ddr200\Debug/../hbird_sdk/SoC/hbirdv2/Common/Source/Stubs/write.c:16
        if (writebuf[i] == '\n') {
8000024c:	00044583          	lbu	a1,0(s0)
80000250:	1e958263          	beq	a1,s1,80000434 <_write+0x260>
C:\Users\zzh\NucleiStudio_workspace\axi_ddr200\Debug/../hbird_sdk/SoC/hbirdv2/Common/Source/Stubs/write.c:19
        uart_write(SOC_DEBUG_UART, writebuf[i]);
80000254:	10013537          	lui	a0,0x10013
80000258:	24d5                	jal	8000053c <uart_write>
C:\Users\zzh\NucleiStudio_workspace\axi_ddr200\Debug/../hbird_sdk/SoC/hbirdv2/Common/Source/Stubs/write.c:15
    for (size_t i = 0; i < len; i++) {
8000025a:	0405                	addi	s0,s0,1
C:\Users\zzh\NucleiStudio_workspace\axi_ddr200\Debug/../hbird_sdk/SoC/hbirdv2/Common/Source/Stubs/write.c:16
        if (writebuf[i] == '\n') {
8000025c:	00044583          	lbu	a1,0(s0)
80000260:	1c958363          	beq	a1,s1,80000426 <_write+0x252>
C:\Users\zzh\NucleiStudio_workspace\axi_ddr200\Debug/../hbird_sdk/SoC/hbirdv2/Common/Source/Stubs/write.c:19
        uart_write(SOC_DEBUG_UART, writebuf[i]);
80000264:	10013537          	lui	a0,0x10013
80000268:	2cd1                	jal	8000053c <uart_write>
C:\Users\zzh\NucleiStudio_workspace\axi_ddr200\Debug/../hbird_sdk/SoC/hbirdv2/Common/Source/Stubs/write.c:15
    for (size_t i = 0; i < len; i++) {
8000026a:	0405                	addi	s0,s0,1
C:\Users\zzh\NucleiStudio_workspace\axi_ddr200\Debug/../hbird_sdk/SoC/hbirdv2/Common/Source/Stubs/write.c:16
        if (writebuf[i] == '\n') {
8000026c:	00044583          	lbu	a1,0(s0)
80000270:	18958463          	beq	a1,s1,800003f8 <_write+0x224>
C:\Users\zzh\NucleiStudio_workspace\axi_ddr200\Debug/../hbird_sdk/SoC/hbirdv2/Common/Source/Stubs/write.c:19
        uart_write(SOC_DEBUG_UART, writebuf[i]);
80000274:	10013537          	lui	a0,0x10013
80000278:	24d1                	jal	8000053c <uart_write>
C:\Users\zzh\NucleiStudio_workspace\axi_ddr200\Debug/../hbird_sdk/SoC/hbirdv2/Common/Source/Stubs/write.c:15
    for (size_t i = 0; i < len; i++) {
8000027a:	0405                	addi	s0,s0,1
C:\Users\zzh\NucleiStudio_workspace\axi_ddr200\Debug/../hbird_sdk/SoC/hbirdv2/Common/Source/Stubs/write.c:16
        if (writebuf[i] == '\n') {
8000027c:	00044583          	lbu	a1,0(s0)
80000280:	18958c63          	beq	a1,s1,80000418 <_write+0x244>
C:\Users\zzh\NucleiStudio_workspace\axi_ddr200\Debug/../hbird_sdk/SoC/hbirdv2/Common/Source/Stubs/write.c:19
        uart_write(SOC_DEBUG_UART, writebuf[i]);
80000284:	10013537          	lui	a0,0x10013
80000288:	2c55                	jal	8000053c <uart_write>
C:\Users\zzh\NucleiStudio_workspace\axi_ddr200\Debug/../hbird_sdk/SoC/hbirdv2/Common/Source/Stubs/write.c:15
    for (size_t i = 0; i < len; i++) {
8000028a:	0405                	addi	s0,s0,1
C:\Users\zzh\NucleiStudio_workspace\axi_ddr200\Debug/../hbird_sdk/SoC/hbirdv2/Common/Source/Stubs/write.c:16
        if (writebuf[i] == '\n') {
8000028c:	00044583          	lbu	a1,0(s0)
80000290:	16958c63          	beq	a1,s1,80000408 <_write+0x234>
C:\Users\zzh\NucleiStudio_workspace\axi_ddr200\Debug/../hbird_sdk/SoC/hbirdv2/Common/Source/Stubs/write.c:15
    for (size_t i = 0; i < len; i++) {
80000294:	0405                	addi	s0,s0,1
C:\Users\zzh\NucleiStudio_workspace\axi_ddr200\Debug/../hbird_sdk/SoC/hbirdv2/Common/Source/Stubs/write.c:19
        uart_write(SOC_DEBUG_UART, writebuf[i]);
80000296:	10013537          	lui	a0,0x10013
8000029a:	244d                	jal	8000053c <uart_write>
C:\Users\zzh\NucleiStudio_workspace\axi_ddr200\Debug/../hbird_sdk/SoC/hbirdv2/Common/Source/Stubs/write.c:15
    for (size_t i = 0; i < len; i++) {
8000029c:	09441c63          	bne	s0,s4,80000334 <_write+0x160>
C:\Users\zzh\NucleiStudio_workspace\axi_ddr200\Debug/../hbird_sdk/SoC/hbirdv2/Common/Source/Stubs/write.c:21
    }
    return len;
800002a0:	854e                	mv	a0,s3
C:\Users\zzh\NucleiStudio_workspace\axi_ddr200\Debug/../hbird_sdk/SoC/hbirdv2/Common/Source/Stubs/write.c:22
}
800002a2:	40f2                	lw	ra,28(sp)
800002a4:	4462                	lw	s0,24(sp)
800002a6:	44d2                	lw	s1,20(sp)
800002a8:	4942                	lw	s2,16(sp)
800002aa:	49b2                	lw	s3,12(sp)
800002ac:	4a22                	lw	s4,8(sp)
800002ae:	6105                	addi	sp,sp,32
800002b0:	8082                	ret
800002b2:	0001                	nop
C:\Users\zzh\NucleiStudio_workspace\axi_ddr200\Debug/../hbird_sdk/SoC/hbirdv2/Common/Source/Stubs/write.c:17
            uart_write(SOC_DEBUG_UART, '\r');
800002b4:	45b5                	li	a1,13
800002b6:	10013537          	lui	a0,0x10013
800002ba:	2449                	jal	8000053c <uart_write>
C:\Users\zzh\NucleiStudio_workspace\axi_ddr200\Debug/../hbird_sdk/SoC/hbirdv2/Common/Source/Stubs/write.c:19
        uart_write(SOC_DEBUG_UART, writebuf[i]);
800002bc:	00044583          	lbu	a1,0(s0)
800002c0:	10013537          	lui	a0,0x10013
C:\Users\zzh\NucleiStudio_workspace\axi_ddr200\Debug/../hbird_sdk/SoC/hbirdv2/Common/Source/Stubs/write.c:15
    for (size_t i = 0; i < len; i++) {
800002c4:	00140913          	addi	s2,s0,1
C:\Users\zzh\NucleiStudio_workspace\axi_ddr200\Debug/../hbird_sdk/SoC/hbirdv2/Common/Source/Stubs/write.c:19
        uart_write(SOC_DEBUG_UART, writebuf[i]);
800002c8:	2c95                	jal	8000053c <uart_write>
C:\Users\zzh\NucleiStudio_workspace\axi_ddr200\Debug/../hbird_sdk/SoC/hbirdv2/Common/Source/Stubs/write.c:16
        if (writebuf[i] == '\n') {
800002ca:	00144583          	lbu	a1,1(s0)
800002ce:	08958063          	beq	a1,s1,8000034e <_write+0x17a>
C:\Users\zzh\NucleiStudio_workspace\axi_ddr200\Debug/../hbird_sdk/SoC/hbirdv2/Common/Source/Stubs/write.c:19
        uart_write(SOC_DEBUG_UART, writebuf[i]);
800002d2:	10013537          	lui	a0,0x10013
800002d6:	249d                	jal	8000053c <uart_write>
C:\Users\zzh\NucleiStudio_workspace\axi_ddr200\Debug/../hbird_sdk/SoC/hbirdv2/Common/Source/Stubs/write.c:16
        if (writebuf[i] == '\n') {
800002d8:	00194583          	lbu	a1,1(s2)
800002dc:	08958663          	beq	a1,s1,80000368 <_write+0x194>
C:\Users\zzh\NucleiStudio_workspace\axi_ddr200\Debug/../hbird_sdk/SoC/hbirdv2/Common/Source/Stubs/write.c:19
        uart_write(SOC_DEBUG_UART, writebuf[i]);
800002e0:	10013537          	lui	a0,0x10013
800002e4:	2ca1                	jal	8000053c <uart_write>
C:\Users\zzh\NucleiStudio_workspace\axi_ddr200\Debug/../hbird_sdk/SoC/hbirdv2/Common/Source/Stubs/write.c:16
        if (writebuf[i] == '\n') {
800002e6:	00294583          	lbu	a1,2(s2)
800002ea:	08958c63          	beq	a1,s1,80000382 <_write+0x1ae>
C:\Users\zzh\NucleiStudio_workspace\axi_ddr200\Debug/../hbird_sdk/SoC/hbirdv2/Common/Source/Stubs/write.c:19
        uart_write(SOC_DEBUG_UART, writebuf[i]);
800002ee:	10013537          	lui	a0,0x10013
800002f2:	24a9                	jal	8000053c <uart_write>
C:\Users\zzh\NucleiStudio_workspace\axi_ddr200\Debug/../hbird_sdk/SoC/hbirdv2/Common/Source/Stubs/write.c:16
        if (writebuf[i] == '\n') {
800002f4:	00394583          	lbu	a1,3(s2)
800002f8:	0a958263          	beq	a1,s1,8000039c <_write+0x1c8>
C:\Users\zzh\NucleiStudio_workspace\axi_ddr200\Debug/../hbird_sdk/SoC/hbirdv2/Common/Source/Stubs/write.c:19
        uart_write(SOC_DEBUG_UART, writebuf[i]);
800002fc:	10013537          	lui	a0,0x10013
80000300:	2c35                	jal	8000053c <uart_write>
C:\Users\zzh\NucleiStudio_workspace\axi_ddr200\Debug/../hbird_sdk/SoC/hbirdv2/Common/Source/Stubs/write.c:16
        if (writebuf[i] == '\n') {
80000302:	00494583          	lbu	a1,4(s2)
80000306:	0a958863          	beq	a1,s1,800003b6 <_write+0x1e2>
C:\Users\zzh\NucleiStudio_workspace\axi_ddr200\Debug/../hbird_sdk/SoC/hbirdv2/Common/Source/Stubs/write.c:19
        uart_write(SOC_DEBUG_UART, writebuf[i]);
8000030a:	10013537          	lui	a0,0x10013
8000030e:	243d                	jal	8000053c <uart_write>
C:\Users\zzh\NucleiStudio_workspace\axi_ddr200\Debug/../hbird_sdk/SoC/hbirdv2/Common/Source/Stubs/write.c:16
        if (writebuf[i] == '\n') {
80000310:	00594583          	lbu	a1,5(s2)
80000314:	0a958e63          	beq	a1,s1,800003d0 <_write+0x1fc>
C:\Users\zzh\NucleiStudio_workspace\axi_ddr200\Debug/../hbird_sdk/SoC/hbirdv2/Common/Source/Stubs/write.c:19
        uart_write(SOC_DEBUG_UART, writebuf[i]);
80000318:	10013537          	lui	a0,0x10013
8000031c:	2405                	jal	8000053c <uart_write>
C:\Users\zzh\NucleiStudio_workspace\axi_ddr200\Debug/../hbird_sdk/SoC/hbirdv2/Common/Source/Stubs/write.c:16
        if (writebuf[i] == '\n') {
8000031e:	00694583          	lbu	a1,6(s2)
80000322:	0c958463          	beq	a1,s1,800003ea <_write+0x216>
C:\Users\zzh\NucleiStudio_workspace\axi_ddr200\Debug/../hbird_sdk/SoC/hbirdv2/Common/Source/Stubs/write.c:15
    for (size_t i = 0; i < len; i++) {
80000326:	00790413          	addi	s0,s2,7
C:\Users\zzh\NucleiStudio_workspace\axi_ddr200\Debug/../hbird_sdk/SoC/hbirdv2/Common/Source/Stubs/write.c:19
        uart_write(SOC_DEBUG_UART, writebuf[i]);
8000032a:	10013537          	lui	a0,0x10013
8000032e:	2439                	jal	8000053c <uart_write>
C:\Users\zzh\NucleiStudio_workspace\axi_ddr200\Debug/../hbird_sdk/SoC/hbirdv2/Common/Source/Stubs/write.c:15
    for (size_t i = 0; i < len; i++) {
80000330:	f74408e3          	beq	s0,s4,800002a0 <_write+0xcc>
C:\Users\zzh\NucleiStudio_workspace\axi_ddr200\Debug/../hbird_sdk/SoC/hbirdv2/Common/Source/Stubs/write.c:16
        if (writebuf[i] == '\n') {
80000334:	00044583          	lbu	a1,0(s0)
80000338:	f6958ee3          	beq	a1,s1,800002b4 <_write+0xe0>
C:\Users\zzh\NucleiStudio_workspace\axi_ddr200\Debug/../hbird_sdk/SoC/hbirdv2/Common/Source/Stubs/write.c:19
        uart_write(SOC_DEBUG_UART, writebuf[i]);
8000033c:	10013537          	lui	a0,0x10013
80000340:	2af5                	jal	8000053c <uart_write>
C:\Users\zzh\NucleiStudio_workspace\axi_ddr200\Debug/../hbird_sdk/SoC/hbirdv2/Common/Source/Stubs/write.c:16
        if (writebuf[i] == '\n') {
80000342:	00144583          	lbu	a1,1(s0)
C:\Users\zzh\NucleiStudio_workspace\axi_ddr200\Debug/../hbird_sdk/SoC/hbirdv2/Common/Source/Stubs/write.c:15
    for (size_t i = 0; i < len; i++) {
80000346:	00140913          	addi	s2,s0,1
C:\Users\zzh\NucleiStudio_workspace\axi_ddr200\Debug/../hbird_sdk/SoC/hbirdv2/Common/Source/Stubs/write.c:16
        if (writebuf[i] == '\n') {
8000034a:	f89594e3          	bne	a1,s1,800002d2 <_write+0xfe>
C:\Users\zzh\NucleiStudio_workspace\axi_ddr200\Debug/../hbird_sdk/SoC/hbirdv2/Common/Source/Stubs/write.c:17
            uart_write(SOC_DEBUG_UART, '\r');
8000034e:	45b5                	li	a1,13
80000350:	10013537          	lui	a0,0x10013
80000354:	22e5                	jal	8000053c <uart_write>
C:\Users\zzh\NucleiStudio_workspace\axi_ddr200\Debug/../hbird_sdk/SoC/hbirdv2/Common/Source/Stubs/write.c:19
        uart_write(SOC_DEBUG_UART, writebuf[i]);
80000356:	00144583          	lbu	a1,1(s0)
8000035a:	10013537          	lui	a0,0x10013
8000035e:	2af9                	jal	8000053c <uart_write>
C:\Users\zzh\NucleiStudio_workspace\axi_ddr200\Debug/../hbird_sdk/SoC/hbirdv2/Common/Source/Stubs/write.c:16
        if (writebuf[i] == '\n') {
80000360:	00194583          	lbu	a1,1(s2)
80000364:	f6959ee3          	bne	a1,s1,800002e0 <_write+0x10c>
C:\Users\zzh\NucleiStudio_workspace\axi_ddr200\Debug/../hbird_sdk/SoC/hbirdv2/Common/Source/Stubs/write.c:17
            uart_write(SOC_DEBUG_UART, '\r');
80000368:	45b5                	li	a1,13
8000036a:	10013537          	lui	a0,0x10013
8000036e:	22f9                	jal	8000053c <uart_write>
C:\Users\zzh\NucleiStudio_workspace\axi_ddr200\Debug/../hbird_sdk/SoC/hbirdv2/Common/Source/Stubs/write.c:19
        uart_write(SOC_DEBUG_UART, writebuf[i]);
80000370:	00194583          	lbu	a1,1(s2)
80000374:	10013537          	lui	a0,0x10013
80000378:	22d1                	jal	8000053c <uart_write>
C:\Users\zzh\NucleiStudio_workspace\axi_ddr200\Debug/../hbird_sdk/SoC/hbirdv2/Common/Source/Stubs/write.c:16
        if (writebuf[i] == '\n') {
8000037a:	00294583          	lbu	a1,2(s2)
8000037e:	f69598e3          	bne	a1,s1,800002ee <_write+0x11a>
C:\Users\zzh\NucleiStudio_workspace\axi_ddr200\Debug/../hbird_sdk/SoC/hbirdv2/Common/Source/Stubs/write.c:17
            uart_write(SOC_DEBUG_UART, '\r');
80000382:	45b5                	li	a1,13
80000384:	10013537          	lui	a0,0x10013
80000388:	2a55                	jal	8000053c <uart_write>
C:\Users\zzh\NucleiStudio_workspace\axi_ddr200\Debug/../hbird_sdk/SoC/hbirdv2/Common/Source/Stubs/write.c:19
        uart_write(SOC_DEBUG_UART, writebuf[i]);
8000038a:	00294583          	lbu	a1,2(s2)
8000038e:	10013537          	lui	a0,0x10013
80000392:	226d                	jal	8000053c <uart_write>
C:\Users\zzh\NucleiStudio_workspace\axi_ddr200\Debug/../hbird_sdk/SoC/hbirdv2/Common/Source/Stubs/write.c:16
        if (writebuf[i] == '\n') {
80000394:	00394583          	lbu	a1,3(s2)
80000398:	f69592e3          	bne	a1,s1,800002fc <_write+0x128>
C:\Users\zzh\NucleiStudio_workspace\axi_ddr200\Debug/../hbird_sdk/SoC/hbirdv2/Common/Source/Stubs/write.c:17
            uart_write(SOC_DEBUG_UART, '\r');
8000039c:	45b5                	li	a1,13
8000039e:	10013537          	lui	a0,0x10013
800003a2:	2a69                	jal	8000053c <uart_write>
C:\Users\zzh\NucleiStudio_workspace\axi_ddr200\Debug/../hbird_sdk/SoC/hbirdv2/Common/Source/Stubs/write.c:19
        uart_write(SOC_DEBUG_UART, writebuf[i]);
800003a4:	00394583          	lbu	a1,3(s2)
800003a8:	10013537          	lui	a0,0x10013
800003ac:	2a41                	jal	8000053c <uart_write>
C:\Users\zzh\NucleiStudio_workspace\axi_ddr200\Debug/../hbird_sdk/SoC/hbirdv2/Common/Source/Stubs/write.c:16
        if (writebuf[i] == '\n') {
800003ae:	00494583          	lbu	a1,4(s2)
800003b2:	f4959ce3          	bne	a1,s1,8000030a <_write+0x136>
C:\Users\zzh\NucleiStudio_workspace\axi_ddr200\Debug/../hbird_sdk/SoC/hbirdv2/Common/Source/Stubs/write.c:17
            uart_write(SOC_DEBUG_UART, '\r');
800003b6:	45b5                	li	a1,13
800003b8:	10013537          	lui	a0,0x10013
800003bc:	2241                	jal	8000053c <uart_write>
C:\Users\zzh\NucleiStudio_workspace\axi_ddr200\Debug/../hbird_sdk/SoC/hbirdv2/Common/Source/Stubs/write.c:19
        uart_write(SOC_DEBUG_UART, writebuf[i]);
800003be:	00494583          	lbu	a1,4(s2)
800003c2:	10013537          	lui	a0,0x10013
800003c6:	2a9d                	jal	8000053c <uart_write>
C:\Users\zzh\NucleiStudio_workspace\axi_ddr200\Debug/../hbird_sdk/SoC/hbirdv2/Common/Source/Stubs/write.c:16
        if (writebuf[i] == '\n') {
800003c8:	00594583          	lbu	a1,5(s2)
800003cc:	f49596e3          	bne	a1,s1,80000318 <_write+0x144>
C:\Users\zzh\NucleiStudio_workspace\axi_ddr200\Debug/../hbird_sdk/SoC/hbirdv2/Common/Source/Stubs/write.c:17
            uart_write(SOC_DEBUG_UART, '\r');
800003d0:	45b5                	li	a1,13
800003d2:	10013537          	lui	a0,0x10013
800003d6:	229d                	jal	8000053c <uart_write>
C:\Users\zzh\NucleiStudio_workspace\axi_ddr200\Debug/../hbird_sdk/SoC/hbirdv2/Common/Source/Stubs/write.c:19
        uart_write(SOC_DEBUG_UART, writebuf[i]);
800003d8:	00594583          	lbu	a1,5(s2)
800003dc:	10013537          	lui	a0,0x10013
800003e0:	2ab1                	jal	8000053c <uart_write>
C:\Users\zzh\NucleiStudio_workspace\axi_ddr200\Debug/../hbird_sdk/SoC/hbirdv2/Common/Source/Stubs/write.c:16
        if (writebuf[i] == '\n') {
800003e2:	00694583          	lbu	a1,6(s2)
800003e6:	f49590e3          	bne	a1,s1,80000326 <_write+0x152>
C:\Users\zzh\NucleiStudio_workspace\axi_ddr200\Debug/../hbird_sdk/SoC/hbirdv2/Common/Source/Stubs/write.c:17
            uart_write(SOC_DEBUG_UART, '\r');
800003ea:	45b5                	li	a1,13
800003ec:	10013537          	lui	a0,0x10013
800003f0:	22b1                	jal	8000053c <uart_write>
C:\Users\zzh\NucleiStudio_workspace\axi_ddr200\Debug/../hbird_sdk/SoC/hbirdv2/Common/Source/Stubs/write.c:19
        uart_write(SOC_DEBUG_UART, writebuf[i]);
800003f2:	00694583          	lbu	a1,6(s2)
800003f6:	bf05                	j	80000326 <_write+0x152>
C:\Users\zzh\NucleiStudio_workspace\axi_ddr200\Debug/../hbird_sdk/SoC/hbirdv2/Common/Source/Stubs/write.c:17
            uart_write(SOC_DEBUG_UART, '\r');
800003f8:	45b5                	li	a1,13
800003fa:	10013537          	lui	a0,0x10013
800003fe:	2a3d                	jal	8000053c <uart_write>
C:\Users\zzh\NucleiStudio_workspace\axi_ddr200\Debug/../hbird_sdk/SoC/hbirdv2/Common/Source/Stubs/write.c:19
        uart_write(SOC_DEBUG_UART, writebuf[i]);
80000400:	00044583          	lbu	a1,0(s0)
80000404:	bd85                	j	80000274 <_write+0xa0>
80000406:	0001                	nop
C:\Users\zzh\NucleiStudio_workspace\axi_ddr200\Debug/../hbird_sdk/SoC/hbirdv2/Common/Source/Stubs/write.c:17
            uart_write(SOC_DEBUG_UART, '\r');
80000408:	45b5                	li	a1,13
8000040a:	10013537          	lui	a0,0x10013
8000040e:	223d                	jal	8000053c <uart_write>
C:\Users\zzh\NucleiStudio_workspace\axi_ddr200\Debug/../hbird_sdk/SoC/hbirdv2/Common/Source/Stubs/write.c:19
        uart_write(SOC_DEBUG_UART, writebuf[i]);
80000410:	00044583          	lbu	a1,0(s0)
80000414:	b541                	j	80000294 <_write+0xc0>
80000416:	0001                	nop
C:\Users\zzh\NucleiStudio_workspace\axi_ddr200\Debug/../hbird_sdk/SoC/hbirdv2/Common/Source/Stubs/write.c:17
            uart_write(SOC_DEBUG_UART, '\r');
80000418:	45b5                	li	a1,13
8000041a:	10013537          	lui	a0,0x10013
8000041e:	2a39                	jal	8000053c <uart_write>
C:\Users\zzh\NucleiStudio_workspace\axi_ddr200\Debug/../hbird_sdk/SoC/hbirdv2/Common/Source/Stubs/write.c:19
        uart_write(SOC_DEBUG_UART, writebuf[i]);
80000420:	00044583          	lbu	a1,0(s0)
80000424:	b585                	j	80000284 <_write+0xb0>
C:\Users\zzh\NucleiStudio_workspace\axi_ddr200\Debug/../hbird_sdk/SoC/hbirdv2/Common/Source/Stubs/write.c:17
            uart_write(SOC_DEBUG_UART, '\r');
80000426:	45b5                	li	a1,13
80000428:	10013537          	lui	a0,0x10013
8000042c:	2a01                	jal	8000053c <uart_write>
C:\Users\zzh\NucleiStudio_workspace\axi_ddr200\Debug/../hbird_sdk/SoC/hbirdv2/Common/Source/Stubs/write.c:19
        uart_write(SOC_DEBUG_UART, writebuf[i]);
8000042e:	00044583          	lbu	a1,0(s0)
80000432:	bd0d                	j	80000264 <_write+0x90>
C:\Users\zzh\NucleiStudio_workspace\axi_ddr200\Debug/../hbird_sdk/SoC/hbirdv2/Common/Source/Stubs/write.c:17
            uart_write(SOC_DEBUG_UART, '\r');
80000434:	45b5                	li	a1,13
80000436:	10013537          	lui	a0,0x10013
8000043a:	2209                	jal	8000053c <uart_write>
C:\Users\zzh\NucleiStudio_workspace\axi_ddr200\Debug/../hbird_sdk/SoC/hbirdv2/Common/Source/Stubs/write.c:19
        uart_write(SOC_DEBUG_UART, writebuf[i]);
8000043c:	00044583          	lbu	a1,0(s0)
80000440:	bd11                	j	80000254 <_write+0x80>
C:\Users\zzh\NucleiStudio_workspace\axi_ddr200\Debug/../hbird_sdk/SoC/hbirdv2/Common/Source/Stubs/write.c:17
            uart_write(SOC_DEBUG_UART, '\r');
80000442:	45b5                	li	a1,13
80000444:	10013537          	lui	a0,0x10013
80000448:	28d5                	jal	8000053c <uart_write>
C:\Users\zzh\NucleiStudio_workspace\axi_ddr200\Debug/../hbird_sdk/SoC/hbirdv2/Common/Source/Stubs/write.c:19
        uart_write(SOC_DEBUG_UART, writebuf[i]);
8000044a:	00044583          	lbu	a1,0(s0)
8000044e:	bbdd                	j	80000244 <_write+0x70>
C:\Users\zzh\NucleiStudio_workspace\axi_ddr200\Debug/../hbird_sdk/SoC/hbirdv2/Common/Source/Stubs/write.c:17
            uart_write(SOC_DEBUG_UART, '\r');
80000450:	45b5                	li	a1,13
80000452:	10013537          	lui	a0,0x10013
80000456:	20dd                	jal	8000053c <uart_write>
C:\Users\zzh\NucleiStudio_workspace\axi_ddr200\Debug/../hbird_sdk/SoC/hbirdv2/Common/Source/Stubs/write.c:19
        uart_write(SOC_DEBUG_UART, writebuf[i]);
80000458:	00094583          	lbu	a1,0(s2)
8000045c:	bbd9                	j	80000232 <_write+0x5e>
C:\Users\zzh\NucleiStudio_workspace\axi_ddr200\Debug/../hbird_sdk/SoC/hbirdv2/Common/Source/Stubs/write.c:11
        return -1;
8000045e:	557d                	li	a0,-1
80000460:	b589                	j	800002a2 <_write+0xce>
	...

80000464 <trap_entry>:
trap_entry():
C:\Users\zzh\NucleiStudio_workspace\axi_ddr200\Debug/../hbird_sdk/SoC/hbirdv2/Common/Source/GCC/intexc_hbirdv2.S:159
.align 2
.global trap_entry
.weak trap_entry
trap_entry:
    /* Save the caller saving registers (context) */
    SAVE_CONTEXT
80000464:	715d                	addi	sp,sp,-80
80000466:	c006                	sw	ra,0(sp)
80000468:	c212                	sw	tp,4(sp)
8000046a:	c416                	sw	t0,8(sp)
8000046c:	c61a                	sw	t1,12(sp)
8000046e:	c81e                	sw	t2,16(sp)
80000470:	ca2a                	sw	a0,20(sp)
80000472:	cc2e                	sw	a1,24(sp)
80000474:	ce32                	sw	a2,28(sp)
80000476:	d036                	sw	a3,32(sp)
80000478:	d23a                	sw	a4,36(sp)
8000047a:	d43e                	sw	a5,40(sp)
8000047c:	dc42                	sw	a6,56(sp)
8000047e:	de46                	sw	a7,60(sp)
80000480:	c0f2                	sw	t3,64(sp)
80000482:	c2f6                	sw	t4,68(sp)
80000484:	c4fa                	sw	t5,72(sp)
80000486:	c6fe                	sw	t6,76(sp)
C:\Users\zzh\NucleiStudio_workspace\axi_ddr200\Debug/../hbird_sdk/SoC/hbirdv2/Common/Source/GCC/intexc_hbirdv2.S:161
    /* Save the necessary CSR registers */
    SAVE_CSR_CONTEXT
80000488:	341022f3          	csrr	t0,mepc
8000048c:	d616                	sw	t0,44(sp)
8000048e:	342022f3          	csrr	t0,mcause
80000492:	d816                	sw	t0,48(sp)
80000494:	300022f3          	csrr	t0,mstatus
80000498:	da16                	sw	t0,52(sp)
C:\Users\zzh\NucleiStudio_workspace\axi_ddr200\Debug/../hbird_sdk/SoC/hbirdv2/Common/Source/GCC/intexc_hbirdv2.S:168
    /*
     * Set the exception handler function arguments
     * argument 1: mcause value
     * argument 2: current stack point(SP) value
     */
    csrr a0, mcause
8000049a:	34202573          	csrr	a0,mcause
C:\Users\zzh\NucleiStudio_workspace\axi_ddr200\Debug/../hbird_sdk/SoC/hbirdv2/Common/Source/GCC/intexc_hbirdv2.S:169
    mv a1, sp
8000049e:	858a                	mv	a1,sp
C:\Users\zzh\NucleiStudio_workspace\axi_ddr200\Debug/../hbird_sdk/SoC/hbirdv2/Common/Source/GCC/intexc_hbirdv2.S:175
    /*
     * TODO: Call the trap handler function
     * By default, the function template is provided in
     * system_Device.c, you can adjust it as you want
     */
    call core_trap_handler
800004a0:	2941                	jal	80000930 <core_trap_handler>
C:\Users\zzh\NucleiStudio_workspace\axi_ddr200\Debug/../hbird_sdk/SoC/hbirdv2/Common/Source/GCC/intexc_hbirdv2.S:178

    /* Restore the necessary CSR registers */
    RESTORE_CSR_CONTEXT
800004a2:	52b2                	lw	t0,44(sp)
800004a4:	34129073          	csrw	mepc,t0
800004a8:	52c2                	lw	t0,48(sp)
800004aa:	34229073          	csrw	mcause,t0
800004ae:	52d2                	lw	t0,52(sp)
800004b0:	30029073          	csrw	mstatus,t0
C:\Users\zzh\NucleiStudio_workspace\axi_ddr200\Debug/../hbird_sdk/SoC/hbirdv2/Common/Source/GCC/intexc_hbirdv2.S:180
    /* Restore the caller saving registers (context) */
    RESTORE_CONTEXT
800004b4:	4082                	lw	ra,0(sp)
800004b6:	4212                	lw	tp,4(sp)
800004b8:	42a2                	lw	t0,8(sp)
800004ba:	4332                	lw	t1,12(sp)
800004bc:	43c2                	lw	t2,16(sp)
800004be:	4552                	lw	a0,20(sp)
800004c0:	45e2                	lw	a1,24(sp)
800004c2:	4672                	lw	a2,28(sp)
800004c4:	5682                	lw	a3,32(sp)
800004c6:	5712                	lw	a4,36(sp)
800004c8:	57a2                	lw	a5,40(sp)
800004ca:	5862                	lw	a6,56(sp)
800004cc:	58f2                	lw	a7,60(sp)
800004ce:	4e06                	lw	t3,64(sp)
800004d0:	4e96                	lw	t4,68(sp)
800004d2:	4f26                	lw	t5,72(sp)
800004d4:	4fb6                	lw	t6,76(sp)
800004d6:	6161                	addi	sp,sp,80
C:\Users\zzh\NucleiStudio_workspace\axi_ddr200\Debug/../hbird_sdk/SoC/hbirdv2/Common/Source/GCC/intexc_hbirdv2.S:183

    /* Return to regular code */
    mret
800004d8:	30200073          	mret

800004dc <gpio_iof_config>:
gpio_iof_config():
C:\Users\zzh\NucleiStudio_workspace\axi_ddr200\Debug/../hbird_sdk/SoC/hbirdv2/Common/Source/Drivers/hbirdv2_gpio.c:5
#include "hbirdv2.h"
#include "hbirdv2_gpio.h"

int32_t gpio_iof_config(GPIO_TypeDef *gpio, uint32_t mask)
{
800004dc:	87aa                	mv	a5,a0
C:\Users\zzh\NucleiStudio_workspace\axi_ddr200\Debug/../hbird_sdk/SoC/hbirdv2/Common/Source/Drivers/hbirdv2_gpio.c:6
    if (__RARELY(gpio == NULL)) {
800004de:	c519                	beqz	a0,800004ec <gpio_iof_config+0x10>
C:\Users\zzh\NucleiStudio_workspace\axi_ddr200\Debug/../hbird_sdk/SoC/hbirdv2/Common/Source/Drivers/hbirdv2_gpio.c:9
        return -1;
    }
    gpio->IOFCFG |= mask;
800004e0:	4d58                	lw	a4,28(a0)
C:\Users\zzh\NucleiStudio_workspace\axi_ddr200\Debug/../hbird_sdk/SoC/hbirdv2/Common/Source/Drivers/hbirdv2_gpio.c:11

    return 0;
800004e2:	4501                	li	a0,0
C:\Users\zzh\NucleiStudio_workspace\axi_ddr200\Debug/../hbird_sdk/SoC/hbirdv2/Common/Source/Drivers/hbirdv2_gpio.c:9
    gpio->IOFCFG |= mask;
800004e4:	8dd9                	or	a1,a1,a4
800004e6:	cfcc                	sw	a1,28(a5)
C:\Users\zzh\NucleiStudio_workspace\axi_ddr200\Debug/../hbird_sdk/SoC/hbirdv2/Common/Source/Drivers/hbirdv2_gpio.c:11
    return 0;
800004e8:	8082                	ret
800004ea:	0001                	nop
C:\Users\zzh\NucleiStudio_workspace\axi_ddr200\Debug/../hbird_sdk/SoC/hbirdv2/Common/Source/Drivers/hbirdv2_gpio.c:7
        return -1;
800004ec:	557d                	li	a0,-1
C:\Users\zzh\NucleiStudio_workspace\axi_ddr200\Debug/../hbird_sdk/SoC/hbirdv2/Common/Source/Drivers/hbirdv2_gpio.c:12
}
800004ee:	8082                	ret
800004f0:	0000                	unimp
	...

800004f4 <uart_init>:
uart_init():
C:\Users\zzh\NucleiStudio_workspace\axi_ddr200\Debug/../hbird_sdk/SoC/hbirdv2/Common/Source/Drivers/hbirdv2_uart.c:5
#include "hbirdv2.h"
#include "hbirdv2_uart.h"

int32_t uart_init(UART_TypeDef *uart, uint32_t baudrate)
{
800004f4:	87aa                	mv	a5,a0
C:\Users\zzh\NucleiStudio_workspace\axi_ddr200\Debug/../hbird_sdk/SoC/hbirdv2/Common/Source/Drivers/hbirdv2_uart.c:6
    if (__RARELY(uart == NULL)) {
800004f6:	cd1d                	beqz	a0,80000534 <uart_init+0x40>
C:\Users\zzh\NucleiStudio_workspace\axi_ddr200\Debug/../hbird_sdk/SoC/hbirdv2/Common/Source/Drivers/hbirdv2_uart.c:10
        return -1;
    }

    unsigned int uart_div = SystemCoreClock / baudrate - 1;
800004f8:	10000717          	auipc	a4,0x10000
800004fc:	cdc72703          	lw	a4,-804(a4) # 900001d4 <SystemCoreClock>
80000500:	02b755b3          	divu	a1,a4,a1
C:\Users\zzh\NucleiStudio_workspace\axi_ddr200\Debug/../hbird_sdk/SoC/hbirdv2/Common/Source/Drivers/hbirdv2_uart.c:11
    uart->LCR = 0x80;
80000504:	08000293          	li	t0,128
80000508:	00552623          	sw	t0,12(a0) # 1001300c <__stack_size+0x1001280c>
C:\Users\zzh\NucleiStudio_workspace\axi_ddr200\Debug/../hbird_sdk/SoC/hbirdv2/Common/Source/Drivers/hbirdv2_uart.c:14
    uart->DLM = (uart_div >> 8) & 0xFF;
    uart->DLL = uart_div        & 0xFF;
    uart->FCR = 0xC6;
8000050c:	0c600813          	li	a6,198
C:\Users\zzh\NucleiStudio_workspace\axi_ddr200\Debug/../hbird_sdk/SoC/hbirdv2/Common/Source/Drivers/hbirdv2_uart.c:15
    uart->LCR = 0x03;
80000510:	488d                	li	a7,3
C:\Users\zzh\NucleiStudio_workspace\axi_ddr200\Debug/../hbird_sdk/SoC/hbirdv2/Common/Source/Drivers/hbirdv2_uart.c:17

    return 0;
80000512:	4501                	li	a0,0
C:\Users\zzh\NucleiStudio_workspace\axi_ddr200\Debug/../hbird_sdk/SoC/hbirdv2/Common/Source/Drivers/hbirdv2_uart.c:10
    unsigned int uart_div = SystemCoreClock / baudrate - 1;
80000514:	fff58313          	addi	t1,a1,-1
C:\Users\zzh\NucleiStudio_workspace\axi_ddr200\Debug/../hbird_sdk/SoC/hbirdv2/Common/Source/Drivers/hbirdv2_uart.c:12
    uart->DLM = (uart_div >> 8) & 0xFF;
80000518:	00835393          	srli	t2,t1,0x8
8000051c:	0ff3f613          	zext.b	a2,t2
80000520:	c3d0                	sw	a2,4(a5)
C:\Users\zzh\NucleiStudio_workspace\axi_ddr200\Debug/../hbird_sdk/SoC/hbirdv2/Common/Source/Drivers/hbirdv2_uart.c:13
    uart->DLL = uart_div        & 0xFF;
80000522:	0ff37693          	zext.b	a3,t1
80000526:	c394                	sw	a3,0(a5)
C:\Users\zzh\NucleiStudio_workspace\axi_ddr200\Debug/../hbird_sdk/SoC/hbirdv2/Common/Source/Drivers/hbirdv2_uart.c:14
    uart->FCR = 0xC6;
80000528:	0107a423          	sw	a6,8(a5)
C:\Users\zzh\NucleiStudio_workspace\axi_ddr200\Debug/../hbird_sdk/SoC/hbirdv2/Common/Source/Drivers/hbirdv2_uart.c:15
    uart->LCR = 0x03;
8000052c:	0117a623          	sw	a7,12(a5)
C:\Users\zzh\NucleiStudio_workspace\axi_ddr200\Debug/../hbird_sdk/SoC/hbirdv2/Common/Source/Drivers/hbirdv2_uart.c:17
    return 0;
80000530:	8082                	ret
80000532:	0001                	nop
C:\Users\zzh\NucleiStudio_workspace\axi_ddr200\Debug/../hbird_sdk/SoC/hbirdv2/Common/Source/Drivers/hbirdv2_uart.c:7
        return -1;
80000534:	557d                	li	a0,-1
C:\Users\zzh\NucleiStudio_workspace\axi_ddr200\Debug/../hbird_sdk/SoC/hbirdv2/Common/Source/Drivers/hbirdv2_uart.c:18
}
80000536:	8082                	ret
80000538:	0000                	unimp
	...

8000053c <uart_write>:
uart_write():
C:\Users\zzh\NucleiStudio_workspace\axi_ddr200\Debug/../hbird_sdk/SoC/hbirdv2/Common/Source/Drivers/hbirdv2_uart.c:67

    return 0;
}

int32_t uart_write(UART_TypeDef *uart, uint8_t val)
{
8000053c:	87aa                	mv	a5,a0
C:\Users\zzh\NucleiStudio_workspace\axi_ddr200\Debug/../hbird_sdk/SoC/hbirdv2/Common/Source/Drivers/hbirdv2_uart.c:68
    if (__RARELY(uart == NULL)) {
8000053e:	cd39                	beqz	a0,8000059c <uart_write+0x60>
C:\Users\zzh\NucleiStudio_workspace\axi_ddr200\Debug/../hbird_sdk/SoC/hbirdv2/Common/Source/Drivers/hbirdv2_uart.c:73 (discriminator 1)
        return -1;
    }
#ifndef SIMULATION_SPIKE
#ifndef SIMULATION_XLSPIKE
    while ((uart->LSR & 0x20) == 0);
80000540:	4bd8                	lw	a4,20(a5)
80000542:	02077293          	andi	t0,a4,32
80000546:	04029863          	bnez	t0,80000596 <uart_write+0x5a>
C:\Users\zzh\NucleiStudio_workspace\axi_ddr200\Debug/../hbird_sdk/SoC/hbirdv2/Common/Source/Drivers/hbirdv2_uart.c:73
8000054a:	0147a303          	lw	t1,20(a5)
8000054e:	02037393          	andi	t2,t1,32
80000552:	04039263          	bnez	t2,80000596 <uart_write+0x5a>
80000556:	4bc8                	lw	a0,20(a5)
80000558:	02057613          	andi	a2,a0,32
8000055c:	ee0d                	bnez	a2,80000596 <uart_write+0x5a>
8000055e:	4bd4                	lw	a3,20(a5)
80000560:	0206f813          	andi	a6,a3,32
80000564:	02081963          	bnez	a6,80000596 <uart_write+0x5a>
80000568:	0147a883          	lw	a7,20(a5)
8000056c:	0208fe13          	andi	t3,a7,32
80000570:	020e1363          	bnez	t3,80000596 <uart_write+0x5a>
80000574:	0147ae83          	lw	t4,20(a5)
80000578:	020eff13          	andi	t5,t4,32
8000057c:	000f1d63          	bnez	t5,80000596 <uart_write+0x5a>
80000580:	0147af83          	lw	t6,20(a5)
80000584:	020ff713          	andi	a4,t6,32
80000588:	e719                	bnez	a4,80000596 <uart_write+0x5a>
8000058a:	0147a283          	lw	t0,20(a5)
8000058e:	0202f313          	andi	t1,t0,32
80000592:	fa0307e3          	beqz	t1,80000540 <uart_write+0x4>
C:\Users\zzh\NucleiStudio_workspace\axi_ddr200\Debug/../hbird_sdk/SoC/hbirdv2/Common/Source/Drivers/hbirdv2_uart.c:80
    uart->THR = val;
#else
    extern void htif_putc(char ch);
    htif_putc(val);
#endif
    return 0;
80000596:	4501                	li	a0,0
C:\Users\zzh\NucleiStudio_workspace\axi_ddr200\Debug/../hbird_sdk/SoC/hbirdv2/Common/Source/Drivers/hbirdv2_uart.c:75
    uart->THR = val;
80000598:	c38c                	sw	a1,0(a5)
C:\Users\zzh\NucleiStudio_workspace\axi_ddr200\Debug/../hbird_sdk/SoC/hbirdv2/Common/Source/Drivers/hbirdv2_uart.c:80
    return 0;
8000059a:	8082                	ret
C:\Users\zzh\NucleiStudio_workspace\axi_ddr200\Debug/../hbird_sdk/SoC/hbirdv2/Common/Source/Drivers/hbirdv2_uart.c:69
        return -1;
8000059c:	557d                	li	a0,-1
C:\Users\zzh\NucleiStudio_workspace\axi_ddr200\Debug/../hbird_sdk/SoC/hbirdv2/Common/Source/Drivers/hbirdv2_uart.c:81
}
8000059e:	8082                	ret

800005a0 <uart_read>:
uart_read():
C:\Users\zzh\NucleiStudio_workspace\axi_ddr200\Debug/../hbird_sdk/SoC/hbirdv2/Common/Source/Drivers/hbirdv2_uart.c:86

uint8_t uart_read(UART_TypeDef *uart)
{
    uint32_t reg;
    if (__RARELY(uart == NULL)) {
800005a0:	c125                	beqz	a0,80000600 <uart_read+0x60>
C:\Users\zzh\NucleiStudio_workspace\axi_ddr200\Debug/../hbird_sdk/SoC/hbirdv2/Common/Source/Drivers/hbirdv2_uart.c:90 (discriminator 1)
        return -1;
    }
    
    while ((uart->LSR & 0x1) == 0);
800005a2:	495c                	lw	a5,20(a0)
800005a4:	0017f293          	andi	t0,a5,1
800005a8:	04029763          	bnez	t0,800005f6 <uart_read+0x56>
C:\Users\zzh\NucleiStudio_workspace\axi_ddr200\Debug/../hbird_sdk/SoC/hbirdv2/Common/Source/Drivers/hbirdv2_uart.c:90
800005ac:	01452303          	lw	t1,20(a0)
800005b0:	00137393          	andi	t2,t1,1
800005b4:	04039163          	bnez	t2,800005f6 <uart_read+0x56>
800005b8:	494c                	lw	a1,20(a0)
800005ba:	0015f613          	andi	a2,a1,1
800005be:	ee05                	bnez	a2,800005f6 <uart_read+0x56>
800005c0:	4954                	lw	a3,20(a0)
800005c2:	0016f713          	andi	a4,a3,1
800005c6:	eb05                	bnez	a4,800005f6 <uart_read+0x56>
800005c8:	01452803          	lw	a6,20(a0)
800005cc:	00187893          	andi	a7,a6,1
800005d0:	02089363          	bnez	a7,800005f6 <uart_read+0x56>
800005d4:	01452e03          	lw	t3,20(a0)
800005d8:	001e7e93          	andi	t4,t3,1
800005dc:	000e9d63          	bnez	t4,800005f6 <uart_read+0x56>
800005e0:	01452f03          	lw	t5,20(a0)
800005e4:	001f7f93          	andi	t6,t5,1
800005e8:	000f9763          	bnez	t6,800005f6 <uart_read+0x56>
800005ec:	495c                	lw	a5,20(a0)
800005ee:	0017f293          	andi	t0,a5,1
800005f2:	fa0288e3          	beqz	t0,800005a2 <uart_read+0x2>
C:\Users\zzh\NucleiStudio_workspace\axi_ddr200\Debug/../hbird_sdk/SoC/hbirdv2/Common/Source/Drivers/hbirdv2_uart.c:91
    reg = uart->RBR;
800005f6:	4108                	lw	a0,0(a0)
C:\Users\zzh\NucleiStudio_workspace\axi_ddr200\Debug/../hbird_sdk/SoC/hbirdv2/Common/Source/Drivers/hbirdv2_uart.c:93
    
    return (uint8_t)(reg & 0xFF);
800005f8:	0ff57513          	zext.b	a0,a0
800005fc:	8082                	ret
800005fe:	0001                	nop
C:\Users\zzh\NucleiStudio_workspace\axi_ddr200\Debug/../hbird_sdk/SoC/hbirdv2/Common/Source/Drivers/hbirdv2_uart.c:87
        return -1;
80000600:	0ff00513          	li	a0,255
C:\Users\zzh\NucleiStudio_workspace\axi_ddr200\Debug/../hbird_sdk/SoC/hbirdv2/Common/Source/Drivers/hbirdv2_uart.c:94
}
80000604:	8082                	ret
	...

80000608 <get_cpu_freq>:
SysTimer_GetLoadValue():
C:\Users\zzh\NucleiStudio_workspace\axi_ddr200\hbird_sdk\NMSIS\Core\Include/core_feature_timer.h:106
 * - Load value is 64bits wide.
 * - \ref SysTimer_SetLoadValue
 */
__STATIC_FORCEINLINE uint64_t SysTimer_GetLoadValue(void)
{
    return SysTimer->MTIME;
80000608:	0200c7b7          	lui	a5,0x200c
8000060c:	ff87a703          	lw	a4,-8(a5) # 200bff8 <__stack_size+0x200b7f8>
80000610:	ffc7a783          	lw	a5,-4(a5)
get_cpu_freq():
C:\Users\zzh\NucleiStudio_workspace\axi_ddr200\Debug/../hbird_sdk/SoC/hbirdv2/Common/Source/hbirdv2_common.c:31
    return (delta_mcycle / delta_mtime) * mtime_freq
           + ((delta_mcycle % delta_mtime) * mtime_freq) / delta_mtime;
}

uint32_t get_cpu_freq(void)
{
80000614:	1141                	addi	sp,sp,-16
80000616:	c606                	sw	ra,12(sp)
80000618:	c422                	sw	s0,8(sp)
8000061a:	c226                	sw	s1,4(sp)
SysTimer_GetLoadValue():
C:\Users\zzh\NucleiStudio_workspace\axi_ddr200\hbird_sdk\NMSIS\Core\Include/core_feature_timer.h:106
8000061c:	0200c637          	lui	a2,0x200c
80000620:	ff862803          	lw	a6,-8(a2) # 200bff8 <__stack_size+0x200b7f8>
80000624:	ffc62883          	lw	a7,-4(a2)
measure_cpu_freq():
C:\Users\zzh\NucleiStudio_workspace\axi_ddr200\Debug/../hbird_sdk/SoC/hbirdv2/Common/Source/hbirdv2_common.c:18
        start_mcycle = __RV_CSR_READ(CSR_MCYCLE);
80000628:	b00026f3          	csrr	a3,mcycle
C:\Users\zzh\NucleiStudio_workspace\axi_ddr200\Debug/../hbird_sdk/SoC/hbirdv2/Common/Source/hbirdv2_common.c:19
    } while (start_mtime == tmp);
8000062c:	07071a63          	bne	a4,a6,800006a0 <get_cpu_freq+0x98>
SysTimer_GetLoadValue():
C:\Users\zzh\NucleiStudio_workspace\axi_ddr200\hbird_sdk\NMSIS\Core\Include/core_feature_timer.h:106
80000630:	ff862803          	lw	a6,-8(a2)
80000634:	ffc62883          	lw	a7,-4(a2)
measure_cpu_freq():
C:\Users\zzh\NucleiStudio_workspace\axi_ddr200\Debug/../hbird_sdk/SoC/hbirdv2/Common/Source/hbirdv2_common.c:18
        start_mcycle = __RV_CSR_READ(CSR_MCYCLE);
80000638:	b00026f3          	csrr	a3,mcycle
C:\Users\zzh\NucleiStudio_workspace\axi_ddr200\Debug/../hbird_sdk/SoC/hbirdv2/Common/Source/hbirdv2_common.c:19
    } while (start_mtime == tmp);
8000063c:	07071263          	bne	a4,a6,800006a0 <get_cpu_freq+0x98>
SysTimer_GetLoadValue():
C:\Users\zzh\NucleiStudio_workspace\axi_ddr200\hbird_sdk\NMSIS\Core\Include/core_feature_timer.h:106
80000640:	ff862803          	lw	a6,-8(a2)
80000644:	ffc62883          	lw	a7,-4(a2)
measure_cpu_freq():
C:\Users\zzh\NucleiStudio_workspace\axi_ddr200\Debug/../hbird_sdk/SoC/hbirdv2/Common/Source/hbirdv2_common.c:18
        start_mcycle = __RV_CSR_READ(CSR_MCYCLE);
80000648:	b00026f3          	csrr	a3,mcycle
C:\Users\zzh\NucleiStudio_workspace\axi_ddr200\Debug/../hbird_sdk/SoC/hbirdv2/Common/Source/hbirdv2_common.c:19
    } while (start_mtime == tmp);
8000064c:	05071a63          	bne	a4,a6,800006a0 <get_cpu_freq+0x98>
SysTimer_GetLoadValue():
C:\Users\zzh\NucleiStudio_workspace\axi_ddr200\hbird_sdk\NMSIS\Core\Include/core_feature_timer.h:106
80000650:	ff862803          	lw	a6,-8(a2)
80000654:	ffc62883          	lw	a7,-4(a2)
measure_cpu_freq():
C:\Users\zzh\NucleiStudio_workspace\axi_ddr200\Debug/../hbird_sdk/SoC/hbirdv2/Common/Source/hbirdv2_common.c:18
        start_mcycle = __RV_CSR_READ(CSR_MCYCLE);
80000658:	b00026f3          	csrr	a3,mcycle
C:\Users\zzh\NucleiStudio_workspace\axi_ddr200\Debug/../hbird_sdk/SoC/hbirdv2/Common/Source/hbirdv2_common.c:19
    } while (start_mtime == tmp);
8000065c:	05071263          	bne	a4,a6,800006a0 <get_cpu_freq+0x98>
SysTimer_GetLoadValue():
C:\Users\zzh\NucleiStudio_workspace\axi_ddr200\hbird_sdk\NMSIS\Core\Include/core_feature_timer.h:106
80000660:	ff862803          	lw	a6,-8(a2)
80000664:	ffc62883          	lw	a7,-4(a2)
measure_cpu_freq():
C:\Users\zzh\NucleiStudio_workspace\axi_ddr200\Debug/../hbird_sdk/SoC/hbirdv2/Common/Source/hbirdv2_common.c:18
        start_mcycle = __RV_CSR_READ(CSR_MCYCLE);
80000668:	b00026f3          	csrr	a3,mcycle
C:\Users\zzh\NucleiStudio_workspace\axi_ddr200\Debug/../hbird_sdk/SoC/hbirdv2/Common/Source/hbirdv2_common.c:19
    } while (start_mtime == tmp);
8000066c:	03071a63          	bne	a4,a6,800006a0 <get_cpu_freq+0x98>
SysTimer_GetLoadValue():
C:\Users\zzh\NucleiStudio_workspace\axi_ddr200\hbird_sdk\NMSIS\Core\Include/core_feature_timer.h:106
80000670:	ff862803          	lw	a6,-8(a2)
80000674:	ffc62883          	lw	a7,-4(a2)
measure_cpu_freq():
C:\Users\zzh\NucleiStudio_workspace\axi_ddr200\Debug/../hbird_sdk/SoC/hbirdv2/Common/Source/hbirdv2_common.c:18
        start_mcycle = __RV_CSR_READ(CSR_MCYCLE);
80000678:	b00026f3          	csrr	a3,mcycle
C:\Users\zzh\NucleiStudio_workspace\axi_ddr200\Debug/../hbird_sdk/SoC/hbirdv2/Common/Source/hbirdv2_common.c:19
    } while (start_mtime == tmp);
8000067c:	03071263          	bne	a4,a6,800006a0 <get_cpu_freq+0x98>
SysTimer_GetLoadValue():
C:\Users\zzh\NucleiStudio_workspace\axi_ddr200\hbird_sdk\NMSIS\Core\Include/core_feature_timer.h:106
80000680:	ff862803          	lw	a6,-8(a2)
80000684:	ffc62883          	lw	a7,-4(a2)
measure_cpu_freq():
C:\Users\zzh\NucleiStudio_workspace\axi_ddr200\Debug/../hbird_sdk/SoC/hbirdv2/Common/Source/hbirdv2_common.c:18
        start_mcycle = __RV_CSR_READ(CSR_MCYCLE);
80000688:	b00026f3          	csrr	a3,mcycle
C:\Users\zzh\NucleiStudio_workspace\axi_ddr200\Debug/../hbird_sdk/SoC/hbirdv2/Common/Source/hbirdv2_common.c:19
    } while (start_mtime == tmp);
8000068c:	01071a63          	bne	a4,a6,800006a0 <get_cpu_freq+0x98>
SysTimer_GetLoadValue():
C:\Users\zzh\NucleiStudio_workspace\axi_ddr200\hbird_sdk\NMSIS\Core\Include/core_feature_timer.h:106
80000690:	ff862803          	lw	a6,-8(a2)
80000694:	ffc62883          	lw	a7,-4(a2)
measure_cpu_freq():
C:\Users\zzh\NucleiStudio_workspace\axi_ddr200\Debug/../hbird_sdk/SoC/hbirdv2/Common/Source/hbirdv2_common.c:18
        start_mcycle = __RV_CSR_READ(CSR_MCYCLE);
80000698:	b00026f3          	csrr	a3,mcycle
C:\Users\zzh\NucleiStudio_workspace\axi_ddr200\Debug/../hbird_sdk/SoC/hbirdv2/Common/Source/hbirdv2_common.c:19
    } while (start_mtime == tmp);
8000069c:	f90702e3          	beq	a4,a6,80000620 <get_cpu_freq+0x18>
SysTimer_GetLoadValue():
C:\Users\zzh\NucleiStudio_workspace\axi_ddr200\hbird_sdk\NMSIS\Core\Include/core_feature_timer.h:106
800006a0:	0200c0b7          	lui	ra,0x200c
800006a4:	ff80a283          	lw	t0,-8(ra) # 200bff8 <__stack_size+0x200b7f8>
800006a8:	ffc0a683          	lw	a3,-4(ra)
measure_cpu_freq():
C:\Users\zzh\NucleiStudio_workspace\axi_ddr200\Debug/../hbird_sdk/SoC/hbirdv2/Common/Source/hbirdv2_common.c:23
        delta_mcycle = __RV_CSR_READ(CSR_MCYCLE) - start_mcycle;
800006ac:	b0002773          	csrr	a4,mcycle
C:\Users\zzh\NucleiStudio_workspace\axi_ddr200\Debug/../hbird_sdk/SoC/hbirdv2/Common/Source/hbirdv2_common.c:24
    } while (delta_mtime < n);
800006b0:	06581a63          	bne	a6,t0,80000724 <get_cpu_freq+0x11c>
SysTimer_GetLoadValue():
C:\Users\zzh\NucleiStudio_workspace\axi_ddr200\hbird_sdk\NMSIS\Core\Include/core_feature_timer.h:106
800006b4:	ff80a503          	lw	a0,-8(ra)
800006b8:	ffc0a583          	lw	a1,-4(ra)
measure_cpu_freq():
C:\Users\zzh\NucleiStudio_workspace\axi_ddr200\Debug/../hbird_sdk/SoC/hbirdv2/Common/Source/hbirdv2_common.c:23
        delta_mcycle = __RV_CSR_READ(CSR_MCYCLE) - start_mcycle;
800006bc:	b0002773          	csrr	a4,mcycle
C:\Users\zzh\NucleiStudio_workspace\axi_ddr200\Debug/../hbird_sdk/SoC/hbirdv2/Common/Source/hbirdv2_common.c:24
    } while (delta_mtime < n);
800006c0:	06a81263          	bne	a6,a0,80000724 <get_cpu_freq+0x11c>
SysTimer_GetLoadValue():
C:\Users\zzh\NucleiStudio_workspace\axi_ddr200\hbird_sdk\NMSIS\Core\Include/core_feature_timer.h:106
800006c4:	ff80a303          	lw	t1,-8(ra)
800006c8:	ffc0a583          	lw	a1,-4(ra)
measure_cpu_freq():
C:\Users\zzh\NucleiStudio_workspace\axi_ddr200\Debug/../hbird_sdk/SoC/hbirdv2/Common/Source/hbirdv2_common.c:23
        delta_mcycle = __RV_CSR_READ(CSR_MCYCLE) - start_mcycle;
800006cc:	b0002773          	csrr	a4,mcycle
C:\Users\zzh\NucleiStudio_workspace\axi_ddr200\Debug/../hbird_sdk/SoC/hbirdv2/Common/Source/hbirdv2_common.c:24
    } while (delta_mtime < n);
800006d0:	04681a63          	bne	a6,t1,80000724 <get_cpu_freq+0x11c>
SysTimer_GetLoadValue():
C:\Users\zzh\NucleiStudio_workspace\axi_ddr200\hbird_sdk\NMSIS\Core\Include/core_feature_timer.h:106
800006d4:	ff80a383          	lw	t2,-8(ra)
800006d8:	ffc0a583          	lw	a1,-4(ra)
measure_cpu_freq():
C:\Users\zzh\NucleiStudio_workspace\axi_ddr200\Debug/../hbird_sdk/SoC/hbirdv2/Common/Source/hbirdv2_common.c:23
        delta_mcycle = __RV_CSR_READ(CSR_MCYCLE) - start_mcycle;
800006dc:	b0002773          	csrr	a4,mcycle
C:\Users\zzh\NucleiStudio_workspace\axi_ddr200\Debug/../hbird_sdk/SoC/hbirdv2/Common/Source/hbirdv2_common.c:24
    } while (delta_mtime < n);
800006e0:	04781263          	bne	a6,t2,80000724 <get_cpu_freq+0x11c>
SysTimer_GetLoadValue():
C:\Users\zzh\NucleiStudio_workspace\axi_ddr200\hbird_sdk\NMSIS\Core\Include/core_feature_timer.h:106
800006e4:	ff80a403          	lw	s0,-8(ra)
800006e8:	ffc0a583          	lw	a1,-4(ra)
measure_cpu_freq():
C:\Users\zzh\NucleiStudio_workspace\axi_ddr200\Debug/../hbird_sdk/SoC/hbirdv2/Common/Source/hbirdv2_common.c:23
        delta_mcycle = __RV_CSR_READ(CSR_MCYCLE) - start_mcycle;
800006ec:	b0002773          	csrr	a4,mcycle
C:\Users\zzh\NucleiStudio_workspace\axi_ddr200\Debug/../hbird_sdk/SoC/hbirdv2/Common/Source/hbirdv2_common.c:24
    } while (delta_mtime < n);
800006f0:	02881a63          	bne	a6,s0,80000724 <get_cpu_freq+0x11c>
SysTimer_GetLoadValue():
C:\Users\zzh\NucleiStudio_workspace\axi_ddr200\hbird_sdk\NMSIS\Core\Include/core_feature_timer.h:106
800006f4:	ff80a483          	lw	s1,-8(ra)
800006f8:	ffc0a583          	lw	a1,-4(ra)
measure_cpu_freq():
C:\Users\zzh\NucleiStudio_workspace\axi_ddr200\Debug/../hbird_sdk/SoC/hbirdv2/Common/Source/hbirdv2_common.c:23
        delta_mcycle = __RV_CSR_READ(CSR_MCYCLE) - start_mcycle;
800006fc:	b0002773          	csrr	a4,mcycle
C:\Users\zzh\NucleiStudio_workspace\axi_ddr200\Debug/../hbird_sdk/SoC/hbirdv2/Common/Source/hbirdv2_common.c:24
    } while (delta_mtime < n);
80000700:	02981263          	bne	a6,s1,80000724 <get_cpu_freq+0x11c>
SysTimer_GetLoadValue():
C:\Users\zzh\NucleiStudio_workspace\axi_ddr200\hbird_sdk\NMSIS\Core\Include/core_feature_timer.h:106
80000704:	ff80a683          	lw	a3,-8(ra)
80000708:	ffc0a583          	lw	a1,-4(ra)
measure_cpu_freq():
C:\Users\zzh\NucleiStudio_workspace\axi_ddr200\Debug/../hbird_sdk/SoC/hbirdv2/Common/Source/hbirdv2_common.c:23
        delta_mcycle = __RV_CSR_READ(CSR_MCYCLE) - start_mcycle;
8000070c:	b0002773          	csrr	a4,mcycle
C:\Users\zzh\NucleiStudio_workspace\axi_ddr200\Debug/../hbird_sdk/SoC/hbirdv2/Common/Source/hbirdv2_common.c:24
    } while (delta_mtime < n);
80000710:	00d81a63          	bne	a6,a3,80000724 <get_cpu_freq+0x11c>
SysTimer_GetLoadValue():
C:\Users\zzh\NucleiStudio_workspace\axi_ddr200\hbird_sdk\NMSIS\Core\Include/core_feature_timer.h:106
80000714:	ff80a883          	lw	a7,-8(ra)
80000718:	ffc0a583          	lw	a1,-4(ra)
measure_cpu_freq():
C:\Users\zzh\NucleiStudio_workspace\axi_ddr200\Debug/../hbird_sdk/SoC/hbirdv2/Common/Source/hbirdv2_common.c:23
        delta_mcycle = __RV_CSR_READ(CSR_MCYCLE) - start_mcycle;
8000071c:	b0002773          	csrr	a4,mcycle
C:\Users\zzh\NucleiStudio_workspace\axi_ddr200\Debug/../hbird_sdk/SoC/hbirdv2/Common/Source/hbirdv2_common.c:24
    } while (delta_mtime < n);
80000720:	f91802e3          	beq	a6,a7,800006a4 <get_cpu_freq+0x9c>
SysTimer_GetLoadValue():
C:\Users\zzh\NucleiStudio_workspace\axi_ddr200\hbird_sdk\NMSIS\Core\Include/core_feature_timer.h:106
80000724:	ff80a683          	lw	a3,-8(ra)
80000728:	ffc0a783          	lw	a5,-4(ra)
8000072c:	0200c5b7          	lui	a1,0x200c
measure_cpu_freq():
C:\Users\zzh\NucleiStudio_workspace\axi_ddr200\Debug/../hbird_sdk/SoC/hbirdv2/Common/Source/hbirdv2_common.c:15
    uint32_t tmp = (uint32_t)SysTimer_GetLoadValue();
80000730:	8e36                	mv	t3,a3
SysTimer_GetLoadValue():
C:\Users\zzh\NucleiStudio_workspace\axi_ddr200\hbird_sdk\NMSIS\Core\Include/core_feature_timer.h:106
80000732:	ff85ae83          	lw	t4,-8(a1) # 200bff8 <__stack_size+0x200b7f8>
80000736:	ffc5a783          	lw	a5,-4(a1)
measure_cpu_freq():
C:\Users\zzh\NucleiStudio_workspace\axi_ddr200\Debug/../hbird_sdk/SoC/hbirdv2/Common/Source/hbirdv2_common.c:18
        start_mcycle = __RV_CSR_READ(CSR_MCYCLE);
8000073a:	b0002f73          	csrr	t5,mcycle
C:\Users\zzh\NucleiStudio_workspace\axi_ddr200\Debug/../hbird_sdk/SoC/hbirdv2/Common/Source/hbirdv2_common.c:19
    } while (start_mtime == tmp);
8000073e:	07de1b63          	bne	t3,t4,800007b4 <get_cpu_freq+0x1ac>
SysTimer_GetLoadValue():
C:\Users\zzh\NucleiStudio_workspace\axi_ddr200\hbird_sdk\NMSIS\Core\Include/core_feature_timer.h:106
80000742:	ff85ae83          	lw	t4,-8(a1)
80000746:	ffc5a783          	lw	a5,-4(a1)
measure_cpu_freq():
C:\Users\zzh\NucleiStudio_workspace\axi_ddr200\Debug/../hbird_sdk/SoC/hbirdv2/Common/Source/hbirdv2_common.c:18
        start_mcycle = __RV_CSR_READ(CSR_MCYCLE);
8000074a:	b0002f73          	csrr	t5,mcycle
C:\Users\zzh\NucleiStudio_workspace\axi_ddr200\Debug/../hbird_sdk/SoC/hbirdv2/Common/Source/hbirdv2_common.c:19
    } while (start_mtime == tmp);
8000074e:	07de1363          	bne	t3,t4,800007b4 <get_cpu_freq+0x1ac>
SysTimer_GetLoadValue():
C:\Users\zzh\NucleiStudio_workspace\axi_ddr200\hbird_sdk\NMSIS\Core\Include/core_feature_timer.h:106
80000752:	ff85ae83          	lw	t4,-8(a1)
80000756:	ffc5a783          	lw	a5,-4(a1)
measure_cpu_freq():
C:\Users\zzh\NucleiStudio_workspace\axi_ddr200\Debug/../hbird_sdk/SoC/hbirdv2/Common/Source/hbirdv2_common.c:18
        start_mcycle = __RV_CSR_READ(CSR_MCYCLE);
8000075a:	b0002f73          	csrr	t5,mcycle
C:\Users\zzh\NucleiStudio_workspace\axi_ddr200\Debug/../hbird_sdk/SoC/hbirdv2/Common/Source/hbirdv2_common.c:19
    } while (start_mtime == tmp);
8000075e:	05de1b63          	bne	t3,t4,800007b4 <get_cpu_freq+0x1ac>
SysTimer_GetLoadValue():
C:\Users\zzh\NucleiStudio_workspace\axi_ddr200\hbird_sdk\NMSIS\Core\Include/core_feature_timer.h:106
80000762:	ff85ae83          	lw	t4,-8(a1)
80000766:	ffc5a783          	lw	a5,-4(a1)
measure_cpu_freq():
C:\Users\zzh\NucleiStudio_workspace\axi_ddr200\Debug/../hbird_sdk/SoC/hbirdv2/Common/Source/hbirdv2_common.c:18
        start_mcycle = __RV_CSR_READ(CSR_MCYCLE);
8000076a:	b0002f73          	csrr	t5,mcycle
C:\Users\zzh\NucleiStudio_workspace\axi_ddr200\Debug/../hbird_sdk/SoC/hbirdv2/Common/Source/hbirdv2_common.c:19
    } while (start_mtime == tmp);
8000076e:	05de1363          	bne	t3,t4,800007b4 <get_cpu_freq+0x1ac>
SysTimer_GetLoadValue():
C:\Users\zzh\NucleiStudio_workspace\axi_ddr200\hbird_sdk\NMSIS\Core\Include/core_feature_timer.h:106
80000772:	ff85ae83          	lw	t4,-8(a1)
80000776:	ffc5a783          	lw	a5,-4(a1)
measure_cpu_freq():
C:\Users\zzh\NucleiStudio_workspace\axi_ddr200\Debug/../hbird_sdk/SoC/hbirdv2/Common/Source/hbirdv2_common.c:18
        start_mcycle = __RV_CSR_READ(CSR_MCYCLE);
8000077a:	b0002f73          	csrr	t5,mcycle
C:\Users\zzh\NucleiStudio_workspace\axi_ddr200\Debug/../hbird_sdk/SoC/hbirdv2/Common/Source/hbirdv2_common.c:19
    } while (start_mtime == tmp);
8000077e:	03de1b63          	bne	t3,t4,800007b4 <get_cpu_freq+0x1ac>
SysTimer_GetLoadValue():
C:\Users\zzh\NucleiStudio_workspace\axi_ddr200\hbird_sdk\NMSIS\Core\Include/core_feature_timer.h:106
80000782:	ff85ae83          	lw	t4,-8(a1)
80000786:	ffc5a783          	lw	a5,-4(a1)
measure_cpu_freq():
C:\Users\zzh\NucleiStudio_workspace\axi_ddr200\Debug/../hbird_sdk/SoC/hbirdv2/Common/Source/hbirdv2_common.c:18
        start_mcycle = __RV_CSR_READ(CSR_MCYCLE);
8000078a:	b0002f73          	csrr	t5,mcycle
C:\Users\zzh\NucleiStudio_workspace\axi_ddr200\Debug/../hbird_sdk/SoC/hbirdv2/Common/Source/hbirdv2_common.c:19
    } while (start_mtime == tmp);
8000078e:	03de1363          	bne	t3,t4,800007b4 <get_cpu_freq+0x1ac>
SysTimer_GetLoadValue():
C:\Users\zzh\NucleiStudio_workspace\axi_ddr200\hbird_sdk\NMSIS\Core\Include/core_feature_timer.h:106
80000792:	ff85ae83          	lw	t4,-8(a1)
80000796:	ffc5a783          	lw	a5,-4(a1)
measure_cpu_freq():
C:\Users\zzh\NucleiStudio_workspace\axi_ddr200\Debug/../hbird_sdk/SoC/hbirdv2/Common/Source/hbirdv2_common.c:18
        start_mcycle = __RV_CSR_READ(CSR_MCYCLE);
8000079a:	b0002f73          	csrr	t5,mcycle
C:\Users\zzh\NucleiStudio_workspace\axi_ddr200\Debug/../hbird_sdk/SoC/hbirdv2/Common/Source/hbirdv2_common.c:19
    } while (start_mtime == tmp);
8000079e:	01de1b63          	bne	t3,t4,800007b4 <get_cpu_freq+0x1ac>
SysTimer_GetLoadValue():
C:\Users\zzh\NucleiStudio_workspace\axi_ddr200\hbird_sdk\NMSIS\Core\Include/core_feature_timer.h:106
800007a2:	ff85ae83          	lw	t4,-8(a1)
800007a6:	ffc5a783          	lw	a5,-4(a1)
measure_cpu_freq():
C:\Users\zzh\NucleiStudio_workspace\axi_ddr200\Debug/../hbird_sdk/SoC/hbirdv2/Common/Source/hbirdv2_common.c:18
        start_mcycle = __RV_CSR_READ(CSR_MCYCLE);
800007aa:	b0002f73          	csrr	t5,mcycle
C:\Users\zzh\NucleiStudio_workspace\axi_ddr200\Debug/../hbird_sdk/SoC/hbirdv2/Common/Source/hbirdv2_common.c:19
    } while (start_mtime == tmp);
800007ae:	f9de02e3          	beq	t3,t4,80000732 <get_cpu_freq+0x12a>
800007b2:	0001                	nop
SysTimer_GetLoadValue():
C:\Users\zzh\NucleiStudio_workspace\axi_ddr200\hbird_sdk\NMSIS\Core\Include/core_feature_timer.h:106
800007b4:	0200cfb7          	lui	t6,0x200c
measure_cpu_freq():
C:\Users\zzh\NucleiStudio_workspace\axi_ddr200\Debug/../hbird_sdk/SoC/hbirdv2/Common/Source/hbirdv2_common.c:24
    } while (delta_mtime < n);
800007b8:	06300713          	li	a4,99
SysTimer_GetLoadValue():
C:\Users\zzh\NucleiStudio_workspace\axi_ddr200\hbird_sdk\NMSIS\Core\Include/core_feature_timer.h:106
800007bc:	ff8fa783          	lw	a5,-8(t6) # 200bff8 <__stack_size+0x200b7f8>
800007c0:	ffcfa683          	lw	a3,-4(t6)
measure_cpu_freq():
C:\Users\zzh\NucleiStudio_workspace\axi_ddr200\Debug/../hbird_sdk/SoC/hbirdv2/Common/Source/hbirdv2_common.c:22
        delta_mtime = (uint32_t)SysTimer_GetLoadValue() - start_mtime;
800007c4:	41d78433          	sub	s0,a5,t4
C:\Users\zzh\NucleiStudio_workspace\axi_ddr200\Debug/../hbird_sdk/SoC/hbirdv2/Common/Source/hbirdv2_common.c:23
        delta_mcycle = __RV_CSR_READ(CSR_MCYCLE) - start_mcycle;
800007c8:	b00024f3          	csrr	s1,mcycle
C:\Users\zzh\NucleiStudio_workspace\axi_ddr200\Debug/../hbird_sdk/SoC/hbirdv2/Common/Source/hbirdv2_common.c:24
    } while (delta_mtime < n);
800007cc:	08876863          	bltu	a4,s0,8000085c <get_cpu_freq+0x254>
SysTimer_GetLoadValue():
C:\Users\zzh\NucleiStudio_workspace\axi_ddr200\hbird_sdk\NMSIS\Core\Include/core_feature_timer.h:106
800007d0:	ff8fa603          	lw	a2,-8(t6)
800007d4:	ffcfa683          	lw	a3,-4(t6)
measure_cpu_freq():
C:\Users\zzh\NucleiStudio_workspace\axi_ddr200\Debug/../hbird_sdk/SoC/hbirdv2/Common/Source/hbirdv2_common.c:22
        delta_mtime = (uint32_t)SysTimer_GetLoadValue() - start_mtime;
800007d8:	41d60433          	sub	s0,a2,t4
C:\Users\zzh\NucleiStudio_workspace\axi_ddr200\Debug/../hbird_sdk/SoC/hbirdv2/Common/Source/hbirdv2_common.c:23
        delta_mcycle = __RV_CSR_READ(CSR_MCYCLE) - start_mcycle;
800007dc:	b00024f3          	csrr	s1,mcycle
C:\Users\zzh\NucleiStudio_workspace\axi_ddr200\Debug/../hbird_sdk/SoC/hbirdv2/Common/Source/hbirdv2_common.c:24
    } while (delta_mtime < n);
800007e0:	06876e63          	bltu	a4,s0,8000085c <get_cpu_freq+0x254>
SysTimer_GetLoadValue():
C:\Users\zzh\NucleiStudio_workspace\axi_ddr200\hbird_sdk\NMSIS\Core\Include/core_feature_timer.h:106
800007e4:	ff8fa803          	lw	a6,-8(t6)
800007e8:	ffcfa683          	lw	a3,-4(t6)
measure_cpu_freq():
C:\Users\zzh\NucleiStudio_workspace\axi_ddr200\Debug/../hbird_sdk/SoC/hbirdv2/Common/Source/hbirdv2_common.c:22
        delta_mtime = (uint32_t)SysTimer_GetLoadValue() - start_mtime;
800007ec:	41d80433          	sub	s0,a6,t4
C:\Users\zzh\NucleiStudio_workspace\axi_ddr200\Debug/../hbird_sdk/SoC/hbirdv2/Common/Source/hbirdv2_common.c:23
        delta_mcycle = __RV_CSR_READ(CSR_MCYCLE) - start_mcycle;
800007f0:	b00024f3          	csrr	s1,mcycle
C:\Users\zzh\NucleiStudio_workspace\axi_ddr200\Debug/../hbird_sdk/SoC/hbirdv2/Common/Source/hbirdv2_common.c:24
    } while (delta_mtime < n);
800007f4:	06876463          	bltu	a4,s0,8000085c <get_cpu_freq+0x254>
SysTimer_GetLoadValue():
C:\Users\zzh\NucleiStudio_workspace\axi_ddr200\hbird_sdk\NMSIS\Core\Include/core_feature_timer.h:106
800007f8:	ff8fa083          	lw	ra,-8(t6)
800007fc:	ffcfa683          	lw	a3,-4(t6)
measure_cpu_freq():
C:\Users\zzh\NucleiStudio_workspace\axi_ddr200\Debug/../hbird_sdk/SoC/hbirdv2/Common/Source/hbirdv2_common.c:22
        delta_mtime = (uint32_t)SysTimer_GetLoadValue() - start_mtime;
80000800:	41d08433          	sub	s0,ra,t4
C:\Users\zzh\NucleiStudio_workspace\axi_ddr200\Debug/../hbird_sdk/SoC/hbirdv2/Common/Source/hbirdv2_common.c:23
        delta_mcycle = __RV_CSR_READ(CSR_MCYCLE) - start_mcycle;
80000804:	b00024f3          	csrr	s1,mcycle
C:\Users\zzh\NucleiStudio_workspace\axi_ddr200\Debug/../hbird_sdk/SoC/hbirdv2/Common/Source/hbirdv2_common.c:24
    } while (delta_mtime < n);
80000808:	04876a63          	bltu	a4,s0,8000085c <get_cpu_freq+0x254>
SysTimer_GetLoadValue():
C:\Users\zzh\NucleiStudio_workspace\axi_ddr200\hbird_sdk\NMSIS\Core\Include/core_feature_timer.h:106
8000080c:	ff8fa283          	lw	t0,-8(t6)
80000810:	ffcfa683          	lw	a3,-4(t6)
measure_cpu_freq():
C:\Users\zzh\NucleiStudio_workspace\axi_ddr200\Debug/../hbird_sdk/SoC/hbirdv2/Common/Source/hbirdv2_common.c:22
        delta_mtime = (uint32_t)SysTimer_GetLoadValue() - start_mtime;
80000814:	41d28433          	sub	s0,t0,t4
C:\Users\zzh\NucleiStudio_workspace\axi_ddr200\Debug/../hbird_sdk/SoC/hbirdv2/Common/Source/hbirdv2_common.c:23
        delta_mcycle = __RV_CSR_READ(CSR_MCYCLE) - start_mcycle;
80000818:	b00024f3          	csrr	s1,mcycle
C:\Users\zzh\NucleiStudio_workspace\axi_ddr200\Debug/../hbird_sdk/SoC/hbirdv2/Common/Source/hbirdv2_common.c:24
    } while (delta_mtime < n);
8000081c:	04876063          	bltu	a4,s0,8000085c <get_cpu_freq+0x254>
SysTimer_GetLoadValue():
C:\Users\zzh\NucleiStudio_workspace\axi_ddr200\hbird_sdk\NMSIS\Core\Include/core_feature_timer.h:106
80000820:	ff8fa503          	lw	a0,-8(t6)
80000824:	ffcfa683          	lw	a3,-4(t6)
measure_cpu_freq():
C:\Users\zzh\NucleiStudio_workspace\axi_ddr200\Debug/../hbird_sdk/SoC/hbirdv2/Common/Source/hbirdv2_common.c:22
        delta_mtime = (uint32_t)SysTimer_GetLoadValue() - start_mtime;
80000828:	41d50433          	sub	s0,a0,t4
C:\Users\zzh\NucleiStudio_workspace\axi_ddr200\Debug/../hbird_sdk/SoC/hbirdv2/Common/Source/hbirdv2_common.c:23
        delta_mcycle = __RV_CSR_READ(CSR_MCYCLE) - start_mcycle;
8000082c:	b00024f3          	csrr	s1,mcycle
C:\Users\zzh\NucleiStudio_workspace\axi_ddr200\Debug/../hbird_sdk/SoC/hbirdv2/Common/Source/hbirdv2_common.c:24
    } while (delta_mtime < n);
80000830:	02876663          	bltu	a4,s0,8000085c <get_cpu_freq+0x254>
SysTimer_GetLoadValue():
C:\Users\zzh\NucleiStudio_workspace\axi_ddr200\hbird_sdk\NMSIS\Core\Include/core_feature_timer.h:106
80000834:	ff8fa303          	lw	t1,-8(t6)
80000838:	ffcfa683          	lw	a3,-4(t6)
measure_cpu_freq():
C:\Users\zzh\NucleiStudio_workspace\axi_ddr200\Debug/../hbird_sdk/SoC/hbirdv2/Common/Source/hbirdv2_common.c:22
        delta_mtime = (uint32_t)SysTimer_GetLoadValue() - start_mtime;
8000083c:	41d30433          	sub	s0,t1,t4
C:\Users\zzh\NucleiStudio_workspace\axi_ddr200\Debug/../hbird_sdk/SoC/hbirdv2/Common/Source/hbirdv2_common.c:23
        delta_mcycle = __RV_CSR_READ(CSR_MCYCLE) - start_mcycle;
80000840:	b00024f3          	csrr	s1,mcycle
C:\Users\zzh\NucleiStudio_workspace\axi_ddr200\Debug/../hbird_sdk/SoC/hbirdv2/Common/Source/hbirdv2_common.c:24
    } while (delta_mtime < n);
80000844:	00876c63          	bltu	a4,s0,8000085c <get_cpu_freq+0x254>
SysTimer_GetLoadValue():
C:\Users\zzh\NucleiStudio_workspace\axi_ddr200\hbird_sdk\NMSIS\Core\Include/core_feature_timer.h:106
80000848:	ff8fa383          	lw	t2,-8(t6)
8000084c:	ffcfa683          	lw	a3,-4(t6)
measure_cpu_freq():
C:\Users\zzh\NucleiStudio_workspace\axi_ddr200\Debug/../hbird_sdk/SoC/hbirdv2/Common/Source/hbirdv2_common.c:22
        delta_mtime = (uint32_t)SysTimer_GetLoadValue() - start_mtime;
80000850:	41d38433          	sub	s0,t2,t4
C:\Users\zzh\NucleiStudio_workspace\axi_ddr200\Debug/../hbird_sdk/SoC/hbirdv2/Common/Source/hbirdv2_common.c:23
        delta_mcycle = __RV_CSR_READ(CSR_MCYCLE) - start_mcycle;
80000854:	b00024f3          	csrr	s1,mcycle
C:\Users\zzh\NucleiStudio_workspace\axi_ddr200\Debug/../hbird_sdk/SoC/hbirdv2/Common/Source/hbirdv2_common.c:24
    } while (delta_mtime < n);
80000858:	f68772e3          	bgeu	a4,s0,800007bc <get_cpu_freq+0x1b4>
C:\Users\zzh\NucleiStudio_workspace\axi_ddr200\Debug/../hbird_sdk/SoC/hbirdv2/Common/Source/hbirdv2_common.c:23
        delta_mcycle = __RV_CSR_READ(CSR_MCYCLE) - start_mcycle;
8000085c:	41e484b3          	sub	s1,s1,t5
C:\Users\zzh\NucleiStudio_workspace\axi_ddr200\Debug/../hbird_sdk/SoC/hbirdv2/Common/Source/hbirdv2_common.c:27
           + ((delta_mcycle % delta_mtime) * mtime_freq) / delta_mtime;
80000860:	0284f8b3          	remu	a7,s1,s0
80000864:	8622                	mv	a2,s0
80000866:	4681                	li	a3,0
80000868:	00f89513          	slli	a0,a7,0xf
8000086c:	0118d593          	srli	a1,a7,0x11
80000870:	216d                	jal	80000d1a <__udivdi3>
C:\Users\zzh\NucleiStudio_workspace\axi_ddr200\Debug/../hbird_sdk/SoC/hbirdv2/Common/Source/hbirdv2_common.c:26
    return (delta_mcycle / delta_mtime) * mtime_freq
80000872:	0284d6b3          	divu	a3,s1,s0
get_cpu_freq():
C:\Users\zzh\NucleiStudio_workspace\axi_ddr200\Debug/../hbird_sdk/SoC/hbirdv2/Common/Source/hbirdv2_common.c:40
    measure_cpu_freq(1);
    // measure for real
    cpu_freq = measure_cpu_freq(100);

    return cpu_freq;
}
80000876:	40b2                	lw	ra,12(sp)
80000878:	4422                	lw	s0,8(sp)
8000087a:	4492                	lw	s1,4(sp)
8000087c:	0141                	addi	sp,sp,16
measure_cpu_freq():
C:\Users\zzh\NucleiStudio_workspace\axi_ddr200\Debug/../hbird_sdk/SoC/hbirdv2/Common/Source/hbirdv2_common.c:27
           + ((delta_mcycle % delta_mtime) * mtime_freq) / delta_mtime;
8000087e:	00f69593          	slli	a1,a3,0xf
get_cpu_freq():
C:\Users\zzh\NucleiStudio_workspace\axi_ddr200\Debug/../hbird_sdk/SoC/hbirdv2/Common/Source/hbirdv2_common.c:40
}
80000882:	952e                	add	a0,a0,a1
80000884:	8082                	ret
	...

80000888 <system_default_exception_handler>:
system_default_exception_handler():
C:\Users\zzh\NucleiStudio_workspace\axi_ddr200\Debug/../hbird_sdk/SoC/hbirdv2/Common/Source/system_hbirdv2.c:168
 * \details
 * This function provided a default exception handling code for all exception ids.
 * By default, It will just print some information for debug, Vendor can customize it according to its requirements.
 */
static void system_default_exception_handler(unsigned long mcause, unsigned long sp)
{
80000888:	1141                	addi	sp,sp,-16
8000088a:	c422                	sw	s0,8(sp)
8000088c:	842a                	mv	s0,a0
C:\Users\zzh\NucleiStudio_workspace\axi_ddr200\Debug/../hbird_sdk/SoC/hbirdv2/Common/Source/system_hbirdv2.c:170
    /* TODO: Uncomment this if you have implement printf function */
    printf("Trap in Exception\r\n");
8000088e:	00005517          	auipc	a0,0x5
80000892:	59250513          	addi	a0,a0,1426 # 80005e20 <__clzsi2+0x42>
C:\Users\zzh\NucleiStudio_workspace\axi_ddr200\Debug/../hbird_sdk/SoC/hbirdv2/Common/Source/system_hbirdv2.c:168
{
80000896:	c606                	sw	ra,12(sp)
C:\Users\zzh\NucleiStudio_workspace\axi_ddr200\Debug/../hbird_sdk/SoC/hbirdv2/Common/Source/system_hbirdv2.c:170
    printf("Trap in Exception\r\n");
80000898:	37a010ef          	jal	ra,80001c12 <puts>
C:\Users\zzh\NucleiStudio_workspace\axi_ddr200\Debug/../hbird_sdk/SoC/hbirdv2/Common/Source/system_hbirdv2.c:171
    printf("MCAUSE: 0x%lx\r\n", mcause);
8000089c:	85a2                	mv	a1,s0
8000089e:	00005517          	auipc	a0,0x5
800008a2:	59650513          	addi	a0,a0,1430 # 80005e34 <__clzsi2+0x56>
800008a6:	24e010ef          	jal	ra,80001af4 <iprintf>
C:\Users\zzh\NucleiStudio_workspace\axi_ddr200\Debug/../hbird_sdk/SoC/hbirdv2/Common/Source/system_hbirdv2.c:172
    printf("MEPC  : 0x%lx\r\n", __RV_CSR_READ(CSR_MEPC));
800008aa:	341025f3          	csrr	a1,mepc
800008ae:	00005517          	auipc	a0,0x5
800008b2:	59650513          	addi	a0,a0,1430 # 80005e44 <__clzsi2+0x66>
800008b6:	23e010ef          	jal	ra,80001af4 <iprintf>
C:\Users\zzh\NucleiStudio_workspace\axi_ddr200\Debug/../hbird_sdk/SoC/hbirdv2/Common/Source/system_hbirdv2.c:173
    printf("MTVAL : 0x%lx\r\n", __RV_CSR_READ(CSR_MBADADDR));
800008ba:	343025f3          	csrr	a1,mtval
800008be:	00005517          	auipc	a0,0x5
800008c2:	59650513          	addi	a0,a0,1430 # 80005e54 <__clzsi2+0x76>
800008c6:	22e010ef          	jal	ra,80001af4 <iprintf>
800008ca:	a001                	j	800008ca <system_default_exception_handler+0x42>
800008cc:	0000                	unimp
	...

800008d0 <system_default_interrupt_handler>:
system_default_interrupt_handler():
C:\Users\zzh\NucleiStudio_workspace\axi_ddr200\Debug/../hbird_sdk/SoC/hbirdv2/Common/Source/system_hbirdv2.c:183
 * \brief      System Default Interrupt Handler
 * \details
 * This function provided a default interrupt handling code for all interrupt ids.
 */
static void system_default_interrupt_handler(unsigned long mcause, unsigned long sp)
{
800008d0:	1141                	addi	sp,sp,-16
800008d2:	c422                	sw	s0,8(sp)
800008d4:	842a                	mv	s0,a0
C:\Users\zzh\NucleiStudio_workspace\axi_ddr200\Debug/../hbird_sdk/SoC/hbirdv2/Common/Source/system_hbirdv2.c:185
    /* TODO: Uncomment this if you have implement printf function */
    printf("Trap in Interrupt\r\n");
800008d6:	00005517          	auipc	a0,0x5
800008da:	58e50513          	addi	a0,a0,1422 # 80005e64 <__clzsi2+0x86>
C:\Users\zzh\NucleiStudio_workspace\axi_ddr200\Debug/../hbird_sdk/SoC/hbirdv2/Common/Source/system_hbirdv2.c:183
{
800008de:	c606                	sw	ra,12(sp)
C:\Users\zzh\NucleiStudio_workspace\axi_ddr200\Debug/../hbird_sdk/SoC/hbirdv2/Common/Source/system_hbirdv2.c:185
    printf("Trap in Interrupt\r\n");
800008e0:	332010ef          	jal	ra,80001c12 <puts>
C:\Users\zzh\NucleiStudio_workspace\axi_ddr200\Debug/../hbird_sdk/SoC/hbirdv2/Common/Source/system_hbirdv2.c:186
    printf("MCAUSE: 0x%lx\r\n", mcause);
800008e4:	85a2                	mv	a1,s0
800008e6:	00005517          	auipc	a0,0x5
800008ea:	54e50513          	addi	a0,a0,1358 # 80005e34 <__clzsi2+0x56>
800008ee:	206010ef          	jal	ra,80001af4 <iprintf>
C:\Users\zzh\NucleiStudio_workspace\axi_ddr200\Debug/../hbird_sdk/SoC/hbirdv2/Common/Source/system_hbirdv2.c:187
    printf("MEPC  : 0x%lx\r\n", __RV_CSR_READ(CSR_MEPC));
800008f2:	341025f3          	csrr	a1,mepc
800008f6:	00005517          	auipc	a0,0x5
800008fa:	54e50513          	addi	a0,a0,1358 # 80005e44 <__clzsi2+0x66>
800008fe:	1f6010ef          	jal	ra,80001af4 <iprintf>
C:\Users\zzh\NucleiStudio_workspace\axi_ddr200\Debug/../hbird_sdk/SoC/hbirdv2/Common/Source/system_hbirdv2.c:188
    printf("MTVAL : 0x%lx\r\n", __RV_CSR_READ(CSR_MBADADDR));
80000902:	343025f3          	csrr	a1,mtval
C:\Users\zzh\NucleiStudio_workspace\axi_ddr200\Debug/../hbird_sdk/SoC/hbirdv2/Common/Source/system_hbirdv2.c:189
}
80000906:	4422                	lw	s0,8(sp)
80000908:	40b2                	lw	ra,12(sp)
C:\Users\zzh\NucleiStudio_workspace\axi_ddr200\Debug/../hbird_sdk/SoC/hbirdv2/Common/Source/system_hbirdv2.c:188
    printf("MTVAL : 0x%lx\r\n", __RV_CSR_READ(CSR_MBADADDR));
8000090a:	00005517          	auipc	a0,0x5
8000090e:	54a50513          	addi	a0,a0,1354 # 80005e54 <__clzsi2+0x76>
C:\Users\zzh\NucleiStudio_workspace\axi_ddr200\Debug/../hbird_sdk/SoC/hbirdv2/Common/Source/system_hbirdv2.c:189
}
80000912:	0141                	addi	sp,sp,16
C:\Users\zzh\NucleiStudio_workspace\axi_ddr200\Debug/../hbird_sdk/SoC/hbirdv2/Common/Source/system_hbirdv2.c:188
    printf("MTVAL : 0x%lx\r\n", __RV_CSR_READ(CSR_MBADADDR));
80000914:	1e00106f          	j	80001af4 <iprintf>
80000918:	0000                	unimp
	...

8000091c <SystemInit>:
SystemInit():
C:\Users\zzh\NucleiStudio_workspace\axi_ddr200\Debug/../hbird_sdk/SoC/hbirdv2/Common/Source/system_hbirdv2.c:125
    SystemCoreClock = SYSTEM_CLOCK;
8000091c:	04c4b7b7          	lui	a5,0x4c4b
80000920:	40078293          	addi	t0,a5,1024 # 4c4b400 <__stack_size+0x4c4ac00>
80000924:	10000717          	auipc	a4,0x10000
80000928:	8a572823          	sw	t0,-1872(a4) # 900001d4 <SystemCoreClock>
C:\Users\zzh\NucleiStudio_workspace\axi_ddr200\Debug/../hbird_sdk/SoC/hbirdv2/Common/Source/system_hbirdv2.c:126
}
8000092c:	8082                	ret
	...

80000930 <core_trap_handler>:
core_trap_handler():
C:\Users\zzh\NucleiStudio_workspace\axi_ddr200\Debug/../hbird_sdk/SoC/hbirdv2/Common/Source/system_hbirdv2.c:322
 * - If you want to register core exception handler, please use \ref Exception_Register_EXC
 * - If you want to register core interrupt handler, please use \ref Interrupt_Register_CoreIRQ
 * - If you want to register external interrupt handler, please use \ref Interrupt_Register_ExtIRQ
 */
uint32_t core_trap_handler(unsigned long mcause, unsigned long sp)
{
80000930:	1141                	addi	sp,sp,-16
80000932:	c606                	sw	ra,12(sp)
80000934:	c422                	sw	s0,8(sp)
80000936:	87aa                	mv	a5,a0
C:\Users\zzh\NucleiStudio_workspace\axi_ddr200\Debug/../hbird_sdk/SoC/hbirdv2/Common/Source/system_hbirdv2.c:323
    if (mcause & MCAUSE_INTERRUPT) {
80000938:	02055863          	bgez	a0,80000968 <core_trap_handler+0x38>
C:\Users\zzh\NucleiStudio_workspace\axi_ddr200\Debug/../hbird_sdk/SoC/hbirdv2/Common/Source/system_hbirdv2.c:325
        INT_HANDLER int_handler = NULL;
        uint32_t irqn = (uint32_t)(mcause & 0X00000fff);
8000093c:	01451813          	slli	a6,a0,0x14
80000940:	01485893          	srli	a7,a6,0x14
C:\Users\zzh\NucleiStudio_workspace\axi_ddr200\Debug/../hbird_sdk/SoC/hbirdv2/Common/Source/system_hbirdv2.c:326
        if (irqn == IRQ_M_EXT) {
80000944:	4e2d                	li	t3,11
80000946:	07c88363          	beq	a7,t3,800009ac <core_trap_handler+0x7c>
C:\Users\zzh\NucleiStudio_workspace\axi_ddr200\Debug/../hbird_sdk/SoC/hbirdv2/Common/Source/system_hbirdv2.c:338
                }
                PLIC_CompleteInterrupt(irqn);
            }
#endif
        } else {
            int_handler = (INT_HANDLER)(SystemCoreInterruptHandlers[irqn]);
8000094a:	00289e93          	slli	t4,a7,0x2
8000094e:	87418f13          	addi	t5,gp,-1932 # 90000244 <SystemCoreInterruptHandlers>
80000952:	01df0fb3          	add	t6,t5,t4
80000956:	000fa783          	lw	a5,0(t6)
C:\Users\zzh\NucleiStudio_workspace\axi_ddr200\Debug/../hbird_sdk/SoC/hbirdv2/Common/Source/system_hbirdv2.c:339
            if (int_handler != NULL) {
8000095a:	c391                	beqz	a5,8000095e <core_trap_handler+0x2e>
C:\Users\zzh\NucleiStudio_workspace\axi_ddr200\Debug/../hbird_sdk/SoC/hbirdv2/Common/Source/system_hbirdv2.c:340
                int_handler(mcause, sp);
8000095c:	9782                	jalr	a5
C:\Users\zzh\NucleiStudio_workspace\axi_ddr200\Debug/../hbird_sdk/SoC/hbirdv2/Common/Source/system_hbirdv2.c:347
        }
        return 0;
    } else {
        return core_exception_handler(mcause, sp);
    }
}
8000095e:	40b2                	lw	ra,12(sp)
80000960:	4422                	lw	s0,8(sp)
80000962:	4501                	li	a0,0
80000964:	0141                	addi	sp,sp,16
80000966:	8082                	ret
core_exception_handler():
C:\Users\zzh\NucleiStudio_workspace\axi_ddr200\Debug/../hbird_sdk/SoC/hbirdv2/Common/Source/system_hbirdv2.c:362
 * - For the core_exception_handler template, we provided exception register function \ref Exception_Register_EXC
 *   which can help developer to register your exception handler for specific exception number.
 */
static uint32_t core_exception_handler(unsigned long mcause, unsigned long sp)
{
    uint32_t EXCn = (uint32_t)(mcause & 0X00000fff);
80000968:	01451693          	slli	a3,a0,0x14
8000096c:	0146d093          	srli	ra,a3,0x14
C:\Users\zzh\NucleiStudio_workspace\axi_ddr200\Debug/../hbird_sdk/SoC/hbirdv2/Common/Source/system_hbirdv2.c:365
    EXC_HANDLER exc_handler;

    if ((EXCn < MAX_SYSTEM_EXCEPTION_NUM) && (EXCn >= 0)) {
80000970:	4629                	li	a2,10
80000972:	872e                	mv	a4,a1
80000974:	02166463          	bltu	a2,ra,8000099c <core_trap_handler+0x6c>
C:\Users\zzh\NucleiStudio_workspace\axi_ddr200\Debug/../hbird_sdk/SoC/hbirdv2/Common/Source/system_hbirdv2.c:366
        exc_handler = (EXC_HANDLER)SystemExceptionHandlers[EXCn];
80000978:	00209293          	slli	t0,ra,0x2
8000097c:	89c18393          	addi	t2,gp,-1892 # 9000026c <SystemExceptionHandlers>
80000980:	00538433          	add	s0,t2,t0
80000984:	00042303          	lw	t1,0(s0)
C:\Users\zzh\NucleiStudio_workspace\axi_ddr200\Debug/../hbird_sdk/SoC/hbirdv2/Common/Source/system_hbirdv2.c:370
    } else {
        exc_handler = (EXC_HANDLER)system_default_exception_handler;
    }
    if (exc_handler != NULL) {
80000988:	fc030be3          	beqz	t1,8000095e <core_trap_handler+0x2e>
C:\Users\zzh\NucleiStudio_workspace\axi_ddr200\Debug/../hbird_sdk/SoC/hbirdv2/Common/Source/system_hbirdv2.c:371
        exc_handler(mcause, sp);
8000098c:	85ba                	mv	a1,a4
8000098e:	853e                	mv	a0,a5
80000990:	9302                	jalr	t1
core_trap_handler():
C:\Users\zzh\NucleiStudio_workspace\axi_ddr200\Debug/../hbird_sdk/SoC/hbirdv2/Common/Source/system_hbirdv2.c:347
}
80000992:	40b2                	lw	ra,12(sp)
80000994:	4422                	lw	s0,8(sp)
80000996:	4501                	li	a0,0
80000998:	0141                	addi	sp,sp,16
8000099a:	8082                	ret
core_exception_handler():
C:\Users\zzh\NucleiStudio_workspace\axi_ddr200\Debug/../hbird_sdk/SoC/hbirdv2/Common/Source/system_hbirdv2.c:368
        exc_handler = (EXC_HANDLER)system_default_exception_handler;
8000099c:	00000317          	auipc	t1,0x0
800009a0:	eec30313          	addi	t1,t1,-276 # 80000888 <system_default_exception_handler>
C:\Users\zzh\NucleiStudio_workspace\axi_ddr200\Debug/../hbird_sdk/SoC/hbirdv2/Common/Source/system_hbirdv2.c:371
        exc_handler(mcause, sp);
800009a4:	85ba                	mv	a1,a4
800009a6:	853e                	mv	a0,a5
800009a8:	9302                	jalr	t1
800009aa:	b7e5                	j	80000992 <core_trap_handler+0x62>
PLIC_ClaimInterrupt():
C:\Users\zzh\NucleiStudio_workspace\axi_ddr200\hbird_sdk\NMSIS\Core\Include/core_feature_plic.h:273
 * \sa
 * - \ref PLIC_CompleteInterrupt
 */
__STATIC_FORCEINLINE uint32_t PLIC_ClaimInterrupt(void)
{
    uint32_t hartid = __RV_CSR_READ(CSR_MHARTID);
800009ac:	f1402773          	csrr	a4,mhartid
C:\Users\zzh\NucleiStudio_workspace\axi_ddr200\hbird_sdk\NMSIS\Core\Include/core_feature_plic.h:274
    volatile uint32_t *claim_reg = (uint32_t *)((PLIC_BASE) + PLIC_CLAIM_OFFSET + \
800009b0:	0c2000b7          	lui	ra,0xc200
C:\Users\zzh\NucleiStudio_workspace\axi_ddr200\hbird_sdk\NMSIS\Core\Include/core_feature_plic.h:275
                    + (hartid << PLIC_CLAIM_SHIFT_PER_TARGET));
800009b4:	00c71693          	slli	a3,a4,0xc
C:\Users\zzh\NucleiStudio_workspace\axi_ddr200\hbird_sdk\NMSIS\Core\Include/core_feature_plic.h:274
    volatile uint32_t *claim_reg = (uint32_t *)((PLIC_BASE) + PLIC_CLAIM_OFFSET + \
800009b8:	00408613          	addi	a2,ra,4 # c200004 <__stack_size+0xc1ff804>
800009bc:	00c68333          	add	t1,a3,a2
C:\Users\zzh\NucleiStudio_workspace\axi_ddr200\hbird_sdk\NMSIS\Core\Include/core_feature_plic.h:277

    return (*claim_reg);
800009c0:	00032403          	lw	s0,0(t1)
core_trap_handler():
C:\Users\zzh\NucleiStudio_workspace\axi_ddr200\Debug/../hbird_sdk/SoC/hbirdv2/Common/Source/system_hbirdv2.c:329
            if (irqn < __PLIC_INTNUM) {
800009c4:	42c1                	li	t0,16
800009c6:	f882ece3          	bltu	t0,s0,8000095e <core_trap_handler+0x2e>
C:\Users\zzh\NucleiStudio_workspace\axi_ddr200\Debug/../hbird_sdk/SoC/hbirdv2/Common/Source/system_hbirdv2.c:330
                int_handler = (INT_HANDLER)(SystemExtInterruptHandlers[irqn]);
800009ca:	00241393          	slli	t2,s0,0x2
800009ce:	8c818813          	addi	a6,gp,-1848 # 90000298 <SystemExtInterruptHandlers>
800009d2:	007808b3          	add	a7,a6,t2
800009d6:	0008ae03          	lw	t3,0(a7)
C:\Users\zzh\NucleiStudio_workspace\axi_ddr200\Debug/../hbird_sdk/SoC/hbirdv2/Common/Source/system_hbirdv2.c:331
                if (int_handler != NULL) {
800009da:	000e0363          	beqz	t3,800009e0 <core_trap_handler+0xb0>
C:\Users\zzh\NucleiStudio_workspace\axi_ddr200\Debug/../hbird_sdk/SoC/hbirdv2/Common/Source/system_hbirdv2.c:332
                    int_handler(mcause, sp);
800009de:	9e02                	jalr	t3
PLIC_CompleteInterrupt():
C:\Users\zzh\NucleiStudio_workspace\axi_ddr200\hbird_sdk\NMSIS\Core\Include/core_feature_plic.h:298
 * \sa
 * - \ref PLIC_ClaimInterrupt
 */
__STATIC_FORCEINLINE void PLIC_CompleteInterrupt(uint32_t source)
{
    uint32_t hartid = __RV_CSR_READ(CSR_MHARTID);
800009e0:	f1402573          	csrr	a0,mhartid
C:\Users\zzh\NucleiStudio_workspace\axi_ddr200\hbird_sdk\NMSIS\Core\Include/core_feature_plic.h:299
    volatile uint32_t *complete_reg = (uint32_t *)((PLIC_BASE) + PLIC_CLAIM_OFFSET + \
800009e4:	0c200eb7          	lui	t4,0xc200
C:\Users\zzh\NucleiStudio_workspace\axi_ddr200\hbird_sdk\NMSIS\Core\Include/core_feature_plic.h:300
                    + (hartid << PLIC_CLAIM_SHIFT_PER_TARGET));
800009e8:	00c51593          	slli	a1,a0,0xc
C:\Users\zzh\NucleiStudio_workspace\axi_ddr200\hbird_sdk\NMSIS\Core\Include/core_feature_plic.h:299
    volatile uint32_t *complete_reg = (uint32_t *)((PLIC_BASE) + PLIC_CLAIM_OFFSET + \
800009ec:	004e8f13          	addi	t5,t4,4 # c200004 <__stack_size+0xc1ff804>
800009f0:	01e58fb3          	add	t6,a1,t5
C:\Users\zzh\NucleiStudio_workspace\axi_ddr200\hbird_sdk\NMSIS\Core\Include/core_feature_plic.h:302

    *complete_reg = source;
800009f4:	008fa023          	sw	s0,0(t6)
C:\Users\zzh\NucleiStudio_workspace\axi_ddr200\hbird_sdk\NMSIS\Core\Include/core_feature_plic.h:303
}
800009f8:	b79d                	j	8000095e <core_trap_handler+0x2e>
	...

800009fc <_premain_init>:
_premain_init():
C:\Users\zzh\NucleiStudio_workspace\axi_ddr200\Debug/../hbird_sdk/SoC/hbirdv2/Common/Source/system_hbirdv2.c:464
 * For RISC-V gnu toolchain, _init function might not be called
 * by __libc_init_array function, so we defined a new function
 * to do initialization
 */
void _premain_init(void)
{
800009fc:	1141                	addi	sp,sp,-16
800009fe:	c606                	sw	ra,12(sp)
80000a00:	c422                	sw	s0,8(sp)
C:\Users\zzh\NucleiStudio_workspace\axi_ddr200\Debug/../hbird_sdk/SoC/hbirdv2/Common/Source/system_hbirdv2.c:466
    /* TODO: Add your own initialization code here, called before main */
    SystemCoreClock = get_cpu_freq();
80000a02:	3119                	jal	80000608 <get_cpu_freq>
80000a04:	87aa                	mv	a5,a0
80000a06:	0ffff417          	auipc	s0,0xffff
80000a0a:	7ce40413          	addi	s0,s0,1998 # 900001d4 <SystemCoreClock>
C:\Users\zzh\NucleiStudio_workspace\axi_ddr200\Debug/../hbird_sdk/SoC/hbirdv2/Common/Source/system_hbirdv2.c:468
#if ! defined(SIMULATION_SPIKE) && ! defined(SIMULATION_XLSPIKE)
    gpio_iof_config(GPIOA, IOF_UART_MASK);
80000a0e:	000305b7          	lui	a1,0x30
80000a12:	10012537          	lui	a0,0x10012
C:\Users\zzh\NucleiStudio_workspace\axi_ddr200\Debug/../hbird_sdk/SoC/hbirdv2/Common/Source/system_hbirdv2.c:466
    SystemCoreClock = get_cpu_freq();
80000a16:	c01c                	sw	a5,0(s0)
C:\Users\zzh\NucleiStudio_workspace\axi_ddr200\Debug/../hbird_sdk/SoC/hbirdv2/Common/Source/system_hbirdv2.c:468
    gpio_iof_config(GPIOA, IOF_UART_MASK);
80000a18:	34d1                	jal	800004dc <gpio_iof_config>
C:\Users\zzh\NucleiStudio_workspace\axi_ddr200\Debug/../hbird_sdk/SoC/hbirdv2/Common/Source/system_hbirdv2.c:469
    uart_init(SOC_DEBUG_UART, 115200);
80000a1a:	65f1                	lui	a1,0x1c
80000a1c:	20058593          	addi	a1,a1,512 # 1c200 <__stack_size+0x1ba00>
80000a20:	10013537          	lui	a0,0x10013
80000a24:	3cc1                	jal	800004f4 <uart_init>
SystemBannerPrint():
C:\Users\zzh\NucleiStudio_workspace\axi_ddr200\Debug/../hbird_sdk/SoC/hbirdv2/Common/Source/system_hbirdv2.c:381
    printf("HummingBird SDK Build Time: %s, %s\r\n", __DATE__, __TIME__);
80000a26:	00005617          	auipc	a2,0x5
80000a2a:	45260613          	addi	a2,a2,1106 # 80005e78 <__clzsi2+0x9a>
80000a2e:	00005597          	auipc	a1,0x5
80000a32:	45658593          	addi	a1,a1,1110 # 80005e84 <__clzsi2+0xa6>
80000a36:	00005517          	auipc	a0,0x5
80000a3a:	45a50513          	addi	a0,a0,1114 # 80005e90 <__clzsi2+0xb2>
80000a3e:	0b6010ef          	jal	ra,80001af4 <iprintf>
C:\Users\zzh\NucleiStudio_workspace\axi_ddr200\Debug/../hbird_sdk/SoC/hbirdv2/Common/Source/system_hbirdv2.c:383
    printf("Download Mode: %s\r\n", DOWNLOAD_MODE_STRING);
80000a42:	00005597          	auipc	a1,0x5
80000a46:	47658593          	addi	a1,a1,1142 # 80005eb8 <__clzsi2+0xda>
80000a4a:	00005517          	auipc	a0,0x5
80000a4e:	47250513          	addi	a0,a0,1138 # 80005ebc <__clzsi2+0xde>
80000a52:	0a2010ef          	jal	ra,80001af4 <iprintf>
C:\Users\zzh\NucleiStudio_workspace\axi_ddr200\Debug/../hbird_sdk/SoC/hbirdv2/Common/Source/system_hbirdv2.c:385
    printf("CPU Frequency %lu Hz\r\n", SystemCoreClock);
80000a56:	400c                	lw	a1,0(s0)
80000a58:	00005517          	auipc	a0,0x5
80000a5c:	47850513          	addi	a0,a0,1144 # 80005ed0 <__clzsi2+0xf2>
80000a60:	094010ef          	jal	ra,80001af4 <iprintf>
Interrupt_Init():
C:\Users\zzh\NucleiStudio_workspace\axi_ddr200\Debug/../hbird_sdk/SoC/hbirdv2/Common/Source/system_hbirdv2.c:216
        SystemExtInterruptHandlers[i] = (unsigned long)system_default_interrupt_handler;
80000a64:	00000297          	auipc	t0,0x0
80000a68:	e6c28293          	addi	t0,t0,-404 # 800008d0 <system_default_interrupt_handler>
80000a6c:	8c818713          	addi	a4,gp,-1848 # 90000298 <SystemExtInterruptHandlers>
Exception_Init():
C:\Users\zzh\NucleiStudio_workspace\axi_ddr200\Debug/../hbird_sdk/SoC/hbirdv2/Common/Source/system_hbirdv2.c:201
        SystemExceptionHandlers[i] = (unsigned long)system_default_exception_handler;
80000a70:	00000617          	auipc	a2,0x0
80000a74:	e1860613          	addi	a2,a2,-488 # 80000888 <system_default_exception_handler>
80000a78:	89c18693          	addi	a3,gp,-1892 # 9000026c <SystemExceptionHandlers>
Interrupt_Init():
C:\Users\zzh\NucleiStudio_workspace\axi_ddr200\Debug/../hbird_sdk/SoC/hbirdv2/Common/Source/system_hbirdv2.c:219
        SystemCoreInterruptHandlers[i] = (unsigned long)system_default_interrupt_handler;
80000a7c:	87418313          	addi	t1,gp,-1932 # 90000244 <SystemCoreInterruptHandlers>
Exception_Init():
C:\Users\zzh\NucleiStudio_workspace\axi_ddr200\Debug/../hbird_sdk/SoC/hbirdv2/Common/Source/system_hbirdv2.c:201
        SystemExceptionHandlers[i] = (unsigned long)system_default_exception_handler;
80000a80:	c290                	sw	a2,0(a3)
80000a82:	c2d0                	sw	a2,4(a3)
80000a84:	c690                	sw	a2,8(a3)
80000a86:	c6d0                	sw	a2,12(a3)
80000a88:	ca90                	sw	a2,16(a3)
80000a8a:	cad0                	sw	a2,20(a3)
80000a8c:	ce90                	sw	a2,24(a3)
80000a8e:	ced0                	sw	a2,28(a3)
80000a90:	d290                	sw	a2,32(a3)
80000a92:	d2d0                	sw	a2,36(a3)
80000a94:	d690                	sw	a2,40(a3)
Interrupt_Init():
C:\Users\zzh\NucleiStudio_workspace\axi_ddr200\Debug/../hbird_sdk/SoC/hbirdv2/Common/Source/system_hbirdv2.c:216
        SystemExtInterruptHandlers[i] = (unsigned long)system_default_interrupt_handler;
80000a96:	00572023          	sw	t0,0(a4)
80000a9a:	00572223          	sw	t0,4(a4)
80000a9e:	00572423          	sw	t0,8(a4)
80000aa2:	00572623          	sw	t0,12(a4)
80000aa6:	00572823          	sw	t0,16(a4)
80000aaa:	00572a23          	sw	t0,20(a4)
80000aae:	00572c23          	sw	t0,24(a4)
80000ab2:	00572e23          	sw	t0,28(a4)
80000ab6:	02572023          	sw	t0,32(a4)
80000aba:	02572223          	sw	t0,36(a4)
80000abe:	02572423          	sw	t0,40(a4)
80000ac2:	02572623          	sw	t0,44(a4)
80000ac6:	02572823          	sw	t0,48(a4)
80000aca:	02572a23          	sw	t0,52(a4)
80000ace:	02572c23          	sw	t0,56(a4)
80000ad2:	02572e23          	sw	t0,60(a4)
80000ad6:	04572023          	sw	t0,64(a4)
C:\Users\zzh\NucleiStudio_workspace\axi_ddr200\Debug/../hbird_sdk/SoC/hbirdv2/Common/Source/system_hbirdv2.c:219
        SystemCoreInterruptHandlers[i] = (unsigned long)system_default_interrupt_handler;
80000ada:	00532023          	sw	t0,0(t1)
80000ade:	00532223          	sw	t0,4(t1)
80000ae2:	00532423          	sw	t0,8(t1)
80000ae6:	00532623          	sw	t0,12(t1)
80000aea:	00532823          	sw	t0,16(t1)
80000aee:	00532a23          	sw	t0,20(t1)
80000af2:	00532c23          	sw	t0,24(t1)
80000af6:	00532e23          	sw	t0,28(t1)
80000afa:	02532023          	sw	t0,32(t1)
80000afe:	02532223          	sw	t0,36(t1)
PLIC_DisableInterrupt():
C:\Users\zzh\NucleiStudio_workspace\axi_ddr200\hbird_sdk\NMSIS\Core\Include/core_feature_plic.h:191
    uint32_t hartid = __RV_CSR_READ(CSR_MHARTID);
80000b02:	f14023f3          	csrr	t2,mhartid
C:\Users\zzh\NucleiStudio_workspace\axi_ddr200\hbird_sdk\NMSIS\Core\Include/core_feature_plic.h:193
                    (hartid << PLIC_ENABLE_SHIFT_PER_TARGET) + (source >> 5) * 4);
80000b06:	0c002837          	lui	a6,0xc002
80000b0a:	00739513          	slli	a0,t2,0x7
80000b0e:	010508b3          	add	a7,a0,a6
C:\Users\zzh\NucleiStudio_workspace\axi_ddr200\hbird_sdk\NMSIS\Core\Include/core_feature_plic.h:195
    uint32_t current = *enable_reg;
80000b12:	0008ae03          	lw	t3,0(a7)
PLIC_SetPriority():
C:\Users\zzh\NucleiStudio_workspace\axi_ddr200\hbird_sdk\NMSIS\Core\Include/core_feature_plic.h:237
    *priority_reg = priority;
80000b16:	0c000eb7          	lui	t4,0xc000
PLIC_DisableInterrupt():
C:\Users\zzh\NucleiStudio_workspace\axi_ddr200\hbird_sdk\NMSIS\Core\Include/core_feature_plic.h:196
    current = current & (~(1<<(source&0x1F)));
80000b1a:	ffee7f13          	andi	t5,t3,-2
C:\Users\zzh\NucleiStudio_workspace\axi_ddr200\hbird_sdk\NMSIS\Core\Include/core_feature_plic.h:197
    *enable_reg = current;
80000b1e:	01e8a023          	sw	t5,0(a7)
PLIC_SetPriority():
C:\Users\zzh\NucleiStudio_workspace\axi_ddr200\hbird_sdk\NMSIS\Core\Include/core_feature_plic.h:237
    *priority_reg = priority;
80000b22:	000ea023          	sw	zero,0(t4) # c000000 <__stack_size+0xbfff800>
PLIC_DisableInterrupt():
C:\Users\zzh\NucleiStudio_workspace\axi_ddr200\hbird_sdk\NMSIS\Core\Include/core_feature_plic.h:191
    uint32_t hartid = __RV_CSR_READ(CSR_MHARTID);
80000b26:	f1402ff3          	csrr	t6,mhartid
C:\Users\zzh\NucleiStudio_workspace\axi_ddr200\hbird_sdk\NMSIS\Core\Include/core_feature_plic.h:193
                    (hartid << PLIC_ENABLE_SHIFT_PER_TARGET) + (source >> 5) * 4);
80000b2a:	007f9793          	slli	a5,t6,0x7
80000b2e:	01078433          	add	s0,a5,a6
C:\Users\zzh\NucleiStudio_workspace\axi_ddr200\hbird_sdk\NMSIS\Core\Include/core_feature_plic.h:195
    uint32_t current = *enable_reg;
80000b32:	400c                	lw	a1,0(s0)
C:\Users\zzh\NucleiStudio_workspace\axi_ddr200\hbird_sdk\NMSIS\Core\Include/core_feature_plic.h:196
    current = current & (~(1<<(source&0x1F)));
80000b34:	ffd5f613          	andi	a2,a1,-3
C:\Users\zzh\NucleiStudio_workspace\axi_ddr200\hbird_sdk\NMSIS\Core\Include/core_feature_plic.h:197
    *enable_reg = current;
80000b38:	c010                	sw	a2,0(s0)
PLIC_SetPriority():
C:\Users\zzh\NucleiStudio_workspace\axi_ddr200\hbird_sdk\NMSIS\Core\Include/core_feature_plic.h:237
    *priority_reg = priority;
80000b3a:	000ea223          	sw	zero,4(t4)
PLIC_DisableInterrupt():
C:\Users\zzh\NucleiStudio_workspace\axi_ddr200\hbird_sdk\NMSIS\Core\Include/core_feature_plic.h:191
    uint32_t hartid = __RV_CSR_READ(CSR_MHARTID);
80000b3e:	f14026f3          	csrr	a3,mhartid
C:\Users\zzh\NucleiStudio_workspace\axi_ddr200\hbird_sdk\NMSIS\Core\Include/core_feature_plic.h:193
                    (hartid << PLIC_ENABLE_SHIFT_PER_TARGET) + (source >> 5) * 4);
80000b42:	00769293          	slli	t0,a3,0x7
80000b46:	01028733          	add	a4,t0,a6
C:\Users\zzh\NucleiStudio_workspace\axi_ddr200\hbird_sdk\NMSIS\Core\Include/core_feature_plic.h:195
    uint32_t current = *enable_reg;
80000b4a:	00072303          	lw	t1,0(a4)
C:\Users\zzh\NucleiStudio_workspace\axi_ddr200\hbird_sdk\NMSIS\Core\Include/core_feature_plic.h:196
    current = current & (~(1<<(source&0x1F)));
80000b4e:	ffb37393          	andi	t2,t1,-5
C:\Users\zzh\NucleiStudio_workspace\axi_ddr200\hbird_sdk\NMSIS\Core\Include/core_feature_plic.h:197
    *enable_reg = current;
80000b52:	00772023          	sw	t2,0(a4)
PLIC_SetPriority():
C:\Users\zzh\NucleiStudio_workspace\axi_ddr200\hbird_sdk\NMSIS\Core\Include/core_feature_plic.h:237
    *priority_reg = priority;
80000b56:	000ea423          	sw	zero,8(t4)
PLIC_DisableInterrupt():
C:\Users\zzh\NucleiStudio_workspace\axi_ddr200\hbird_sdk\NMSIS\Core\Include/core_feature_plic.h:191
    uint32_t hartid = __RV_CSR_READ(CSR_MHARTID);
80000b5a:	f1402573          	csrr	a0,mhartid
C:\Users\zzh\NucleiStudio_workspace\axi_ddr200\hbird_sdk\NMSIS\Core\Include/core_feature_plic.h:193
                    (hartid << PLIC_ENABLE_SHIFT_PER_TARGET) + (source >> 5) * 4);
80000b5e:	00751893          	slli	a7,a0,0x7
80000b62:	01088e33          	add	t3,a7,a6
C:\Users\zzh\NucleiStudio_workspace\axi_ddr200\hbird_sdk\NMSIS\Core\Include/core_feature_plic.h:195
    uint32_t current = *enable_reg;
80000b66:	000e2f03          	lw	t5,0(t3)
C:\Users\zzh\NucleiStudio_workspace\axi_ddr200\hbird_sdk\NMSIS\Core\Include/core_feature_plic.h:196
    current = current & (~(1<<(source&0x1F)));
80000b6a:	ff7f7f93          	andi	t6,t5,-9
C:\Users\zzh\NucleiStudio_workspace\axi_ddr200\hbird_sdk\NMSIS\Core\Include/core_feature_plic.h:197
    *enable_reg = current;
80000b6e:	01fe2023          	sw	t6,0(t3)
PLIC_SetPriority():
C:\Users\zzh\NucleiStudio_workspace\axi_ddr200\hbird_sdk\NMSIS\Core\Include/core_feature_plic.h:237
    *priority_reg = priority;
80000b72:	000ea623          	sw	zero,12(t4)
PLIC_DisableInterrupt():
C:\Users\zzh\NucleiStudio_workspace\axi_ddr200\hbird_sdk\NMSIS\Core\Include/core_feature_plic.h:191
    uint32_t hartid = __RV_CSR_READ(CSR_MHARTID);
80000b76:	f14027f3          	csrr	a5,mhartid
C:\Users\zzh\NucleiStudio_workspace\axi_ddr200\hbird_sdk\NMSIS\Core\Include/core_feature_plic.h:193
                    (hartid << PLIC_ENABLE_SHIFT_PER_TARGET) + (source >> 5) * 4);
80000b7a:	00779413          	slli	s0,a5,0x7
80000b7e:	010405b3          	add	a1,s0,a6
C:\Users\zzh\NucleiStudio_workspace\axi_ddr200\hbird_sdk\NMSIS\Core\Include/core_feature_plic.h:195
    uint32_t current = *enable_reg;
80000b82:	4190                	lw	a2,0(a1)
C:\Users\zzh\NucleiStudio_workspace\axi_ddr200\hbird_sdk\NMSIS\Core\Include/core_feature_plic.h:196
    current = current & (~(1<<(source&0x1F)));
80000b84:	fef67693          	andi	a3,a2,-17
C:\Users\zzh\NucleiStudio_workspace\axi_ddr200\hbird_sdk\NMSIS\Core\Include/core_feature_plic.h:197
    *enable_reg = current;
80000b88:	c194                	sw	a3,0(a1)
PLIC_SetPriority():
C:\Users\zzh\NucleiStudio_workspace\axi_ddr200\hbird_sdk\NMSIS\Core\Include/core_feature_plic.h:237
    *priority_reg = priority;
80000b8a:	000ea823          	sw	zero,16(t4)
PLIC_DisableInterrupt():
C:\Users\zzh\NucleiStudio_workspace\axi_ddr200\hbird_sdk\NMSIS\Core\Include/core_feature_plic.h:191
    uint32_t hartid = __RV_CSR_READ(CSR_MHARTID);
80000b8e:	f14022f3          	csrr	t0,mhartid
C:\Users\zzh\NucleiStudio_workspace\axi_ddr200\hbird_sdk\NMSIS\Core\Include/core_feature_plic.h:193
                    (hartid << PLIC_ENABLE_SHIFT_PER_TARGET) + (source >> 5) * 4);
80000b92:	00729713          	slli	a4,t0,0x7
80000b96:	01070333          	add	t1,a4,a6
C:\Users\zzh\NucleiStudio_workspace\axi_ddr200\hbird_sdk\NMSIS\Core\Include/core_feature_plic.h:195
    uint32_t current = *enable_reg;
80000b9a:	00032383          	lw	t2,0(t1)
C:\Users\zzh\NucleiStudio_workspace\axi_ddr200\hbird_sdk\NMSIS\Core\Include/core_feature_plic.h:196
    current = current & (~(1<<(source&0x1F)));
80000b9e:	fdf3f513          	andi	a0,t2,-33
C:\Users\zzh\NucleiStudio_workspace\axi_ddr200\hbird_sdk\NMSIS\Core\Include/core_feature_plic.h:197
    *enable_reg = current;
80000ba2:	00a32023          	sw	a0,0(t1)
PLIC_SetPriority():
C:\Users\zzh\NucleiStudio_workspace\axi_ddr200\hbird_sdk\NMSIS\Core\Include/core_feature_plic.h:237
    *priority_reg = priority;
80000ba6:	000eaa23          	sw	zero,20(t4)
PLIC_DisableInterrupt():
C:\Users\zzh\NucleiStudio_workspace\axi_ddr200\hbird_sdk\NMSIS\Core\Include/core_feature_plic.h:191
    uint32_t hartid = __RV_CSR_READ(CSR_MHARTID);
80000baa:	f14028f3          	csrr	a7,mhartid
C:\Users\zzh\NucleiStudio_workspace\axi_ddr200\hbird_sdk\NMSIS\Core\Include/core_feature_plic.h:193
                    (hartid << PLIC_ENABLE_SHIFT_PER_TARGET) + (source >> 5) * 4);
80000bae:	00789e13          	slli	t3,a7,0x7
80000bb2:	010e0f33          	add	t5,t3,a6
C:\Users\zzh\NucleiStudio_workspace\axi_ddr200\hbird_sdk\NMSIS\Core\Include/core_feature_plic.h:195
    uint32_t current = *enable_reg;
80000bb6:	000f2f83          	lw	t6,0(t5)
C:\Users\zzh\NucleiStudio_workspace\axi_ddr200\hbird_sdk\NMSIS\Core\Include/core_feature_plic.h:196
    current = current & (~(1<<(source&0x1F)));
80000bba:	fbfff793          	andi	a5,t6,-65
C:\Users\zzh\NucleiStudio_workspace\axi_ddr200\hbird_sdk\NMSIS\Core\Include/core_feature_plic.h:197
    *enable_reg = current;
80000bbe:	00ff2023          	sw	a5,0(t5)
PLIC_SetPriority():
C:\Users\zzh\NucleiStudio_workspace\axi_ddr200\hbird_sdk\NMSIS\Core\Include/core_feature_plic.h:237
    *priority_reg = priority;
80000bc2:	000eac23          	sw	zero,24(t4)
PLIC_DisableInterrupt():
C:\Users\zzh\NucleiStudio_workspace\axi_ddr200\hbird_sdk\NMSIS\Core\Include/core_feature_plic.h:191
    uint32_t hartid = __RV_CSR_READ(CSR_MHARTID);
80000bc6:	f1402473          	csrr	s0,mhartid
C:\Users\zzh\NucleiStudio_workspace\axi_ddr200\hbird_sdk\NMSIS\Core\Include/core_feature_plic.h:193
                    (hartid << PLIC_ENABLE_SHIFT_PER_TARGET) + (source >> 5) * 4);
80000bca:	00741593          	slli	a1,s0,0x7
80000bce:	010586b3          	add	a3,a1,a6
C:\Users\zzh\NucleiStudio_workspace\axi_ddr200\hbird_sdk\NMSIS\Core\Include/core_feature_plic.h:195
    uint32_t current = *enable_reg;
80000bd2:	4290                	lw	a2,0(a3)
C:\Users\zzh\NucleiStudio_workspace\axi_ddr200\hbird_sdk\NMSIS\Core\Include/core_feature_plic.h:196
    current = current & (~(1<<(source&0x1F)));
80000bd4:	f7f67293          	andi	t0,a2,-129
C:\Users\zzh\NucleiStudio_workspace\axi_ddr200\hbird_sdk\NMSIS\Core\Include/core_feature_plic.h:197
    *enable_reg = current;
80000bd8:	0056a023          	sw	t0,0(a3)
PLIC_SetPriority():
C:\Users\zzh\NucleiStudio_workspace\axi_ddr200\hbird_sdk\NMSIS\Core\Include/core_feature_plic.h:237
    *priority_reg = priority;
80000bdc:	000eae23          	sw	zero,28(t4)
PLIC_DisableInterrupt():
C:\Users\zzh\NucleiStudio_workspace\axi_ddr200\hbird_sdk\NMSIS\Core\Include/core_feature_plic.h:191
    uint32_t hartid = __RV_CSR_READ(CSR_MHARTID);
80000be0:	f1402773          	csrr	a4,mhartid
C:\Users\zzh\NucleiStudio_workspace\axi_ddr200\hbird_sdk\NMSIS\Core\Include/core_feature_plic.h:193
                    (hartid << PLIC_ENABLE_SHIFT_PER_TARGET) + (source >> 5) * 4);
80000be4:	00771313          	slli	t1,a4,0x7
80000be8:	010303b3          	add	t2,t1,a6
C:\Users\zzh\NucleiStudio_workspace\axi_ddr200\hbird_sdk\NMSIS\Core\Include/core_feature_plic.h:195
    uint32_t current = *enable_reg;
80000bec:	0003a503          	lw	a0,0(t2)
C:\Users\zzh\NucleiStudio_workspace\axi_ddr200\hbird_sdk\NMSIS\Core\Include/core_feature_plic.h:196
    current = current & (~(1<<(source&0x1F)));
80000bf0:	eff57893          	andi	a7,a0,-257
C:\Users\zzh\NucleiStudio_workspace\axi_ddr200\hbird_sdk\NMSIS\Core\Include/core_feature_plic.h:197
    *enable_reg = current;
80000bf4:	0113a023          	sw	a7,0(t2)
PLIC_SetPriority():
C:\Users\zzh\NucleiStudio_workspace\axi_ddr200\hbird_sdk\NMSIS\Core\Include/core_feature_plic.h:237
    *priority_reg = priority;
80000bf8:	020ea023          	sw	zero,32(t4)
PLIC_DisableInterrupt():
C:\Users\zzh\NucleiStudio_workspace\axi_ddr200\hbird_sdk\NMSIS\Core\Include/core_feature_plic.h:191
    uint32_t hartid = __RV_CSR_READ(CSR_MHARTID);
80000bfc:	f1402e73          	csrr	t3,mhartid
C:\Users\zzh\NucleiStudio_workspace\axi_ddr200\hbird_sdk\NMSIS\Core\Include/core_feature_plic.h:193
                    (hartid << PLIC_ENABLE_SHIFT_PER_TARGET) + (source >> 5) * 4);
80000c00:	007e1f13          	slli	t5,t3,0x7
80000c04:	010f0fb3          	add	t6,t5,a6
C:\Users\zzh\NucleiStudio_workspace\axi_ddr200\hbird_sdk\NMSIS\Core\Include/core_feature_plic.h:195
    uint32_t current = *enable_reg;
80000c08:	000fa783          	lw	a5,0(t6)
C:\Users\zzh\NucleiStudio_workspace\axi_ddr200\hbird_sdk\NMSIS\Core\Include/core_feature_plic.h:196
    current = current & (~(1<<(source&0x1F)));
80000c0c:	dff7f413          	andi	s0,a5,-513
C:\Users\zzh\NucleiStudio_workspace\axi_ddr200\hbird_sdk\NMSIS\Core\Include/core_feature_plic.h:197
    *enable_reg = current;
80000c10:	008fa023          	sw	s0,0(t6)
PLIC_SetPriority():
C:\Users\zzh\NucleiStudio_workspace\axi_ddr200\hbird_sdk\NMSIS\Core\Include/core_feature_plic.h:237
    *priority_reg = priority;
80000c14:	020ea223          	sw	zero,36(t4)
PLIC_DisableInterrupt():
C:\Users\zzh\NucleiStudio_workspace\axi_ddr200\hbird_sdk\NMSIS\Core\Include/core_feature_plic.h:191
    uint32_t hartid = __RV_CSR_READ(CSR_MHARTID);
80000c18:	f14025f3          	csrr	a1,mhartid
C:\Users\zzh\NucleiStudio_workspace\axi_ddr200\hbird_sdk\NMSIS\Core\Include/core_feature_plic.h:193
                    (hartid << PLIC_ENABLE_SHIFT_PER_TARGET) + (source >> 5) * 4);
80000c1c:	00759693          	slli	a3,a1,0x7
80000c20:	010682b3          	add	t0,a3,a6
C:\Users\zzh\NucleiStudio_workspace\axi_ddr200\hbird_sdk\NMSIS\Core\Include/core_feature_plic.h:195
    uint32_t current = *enable_reg;
80000c24:	0002a603          	lw	a2,0(t0)
C:\Users\zzh\NucleiStudio_workspace\axi_ddr200\hbird_sdk\NMSIS\Core\Include/core_feature_plic.h:196
    current = current & (~(1<<(source&0x1F)));
80000c28:	bff67713          	andi	a4,a2,-1025
C:\Users\zzh\NucleiStudio_workspace\axi_ddr200\hbird_sdk\NMSIS\Core\Include/core_feature_plic.h:197
    *enable_reg = current;
80000c2c:	00e2a023          	sw	a4,0(t0)
PLIC_SetPriority():
C:\Users\zzh\NucleiStudio_workspace\axi_ddr200\hbird_sdk\NMSIS\Core\Include/core_feature_plic.h:237
    *priority_reg = priority;
80000c30:	020ea423          	sw	zero,40(t4)
PLIC_DisableInterrupt():
C:\Users\zzh\NucleiStudio_workspace\axi_ddr200\hbird_sdk\NMSIS\Core\Include/core_feature_plic.h:191
    uint32_t hartid = __RV_CSR_READ(CSR_MHARTID);
80000c34:	f1402373          	csrr	t1,mhartid
C:\Users\zzh\NucleiStudio_workspace\axi_ddr200\hbird_sdk\NMSIS\Core\Include/core_feature_plic.h:193
                    (hartid << PLIC_ENABLE_SHIFT_PER_TARGET) + (source >> 5) * 4);
80000c38:	00731393          	slli	t2,t1,0x7
80000c3c:	010388b3          	add	a7,t2,a6
C:\Users\zzh\NucleiStudio_workspace\axi_ddr200\hbird_sdk\NMSIS\Core\Include/core_feature_plic.h:195
    uint32_t current = *enable_reg;
80000c40:	0008ae03          	lw	t3,0(a7)
C:\Users\zzh\NucleiStudio_workspace\axi_ddr200\hbird_sdk\NMSIS\Core\Include/core_feature_plic.h:196
    current = current & (~(1<<(source&0x1F)));
80000c44:	7f7d                	lui	t5,0xfffff
80000c46:	7fff0513          	addi	a0,t5,2047 # fffff7ff <_sp+0x6ffef7ff>
80000c4a:	00ae7fb3          	and	t6,t3,a0
C:\Users\zzh\NucleiStudio_workspace\axi_ddr200\hbird_sdk\NMSIS\Core\Include/core_feature_plic.h:197
    *enable_reg = current;
80000c4e:	01f8a023          	sw	t6,0(a7)
PLIC_SetPriority():
C:\Users\zzh\NucleiStudio_workspace\axi_ddr200\hbird_sdk\NMSIS\Core\Include/core_feature_plic.h:237
    *priority_reg = priority;
80000c52:	020ea623          	sw	zero,44(t4)
PLIC_DisableInterrupt():
C:\Users\zzh\NucleiStudio_workspace\axi_ddr200\hbird_sdk\NMSIS\Core\Include/core_feature_plic.h:191
    uint32_t hartid = __RV_CSR_READ(CSR_MHARTID);
80000c56:	f14027f3          	csrr	a5,mhartid
C:\Users\zzh\NucleiStudio_workspace\axi_ddr200\hbird_sdk\NMSIS\Core\Include/core_feature_plic.h:193
                    (hartid << PLIC_ENABLE_SHIFT_PER_TARGET) + (source >> 5) * 4);
80000c5a:	00779413          	slli	s0,a5,0x7
80000c5e:	010406b3          	add	a3,s0,a6
C:\Users\zzh\NucleiStudio_workspace\axi_ddr200\hbird_sdk\NMSIS\Core\Include/core_feature_plic.h:195
    uint32_t current = *enable_reg;
80000c62:	428c                	lw	a1,0(a3)
C:\Users\zzh\NucleiStudio_workspace\axi_ddr200\hbird_sdk\NMSIS\Core\Include/core_feature_plic.h:196
    current = current & (~(1<<(source&0x1F)));
80000c64:	ffff0293          	addi	t0,t5,-1
80000c68:	0055f633          	and	a2,a1,t0
C:\Users\zzh\NucleiStudio_workspace\axi_ddr200\hbird_sdk\NMSIS\Core\Include/core_feature_plic.h:197
    *enable_reg = current;
80000c6c:	c290                	sw	a2,0(a3)
PLIC_SetPriority():
C:\Users\zzh\NucleiStudio_workspace\axi_ddr200\hbird_sdk\NMSIS\Core\Include/core_feature_plic.h:237
    *priority_reg = priority;
80000c6e:	020ea823          	sw	zero,48(t4)
PLIC_DisableInterrupt():
C:\Users\zzh\NucleiStudio_workspace\axi_ddr200\hbird_sdk\NMSIS\Core\Include/core_feature_plic.h:191
    uint32_t hartid = __RV_CSR_READ(CSR_MHARTID);
80000c72:	f1402773          	csrr	a4,mhartid
C:\Users\zzh\NucleiStudio_workspace\axi_ddr200\hbird_sdk\NMSIS\Core\Include/core_feature_plic.h:193
                    (hartid << PLIC_ENABLE_SHIFT_PER_TARGET) + (source >> 5) * 4);
80000c76:	00771313          	slli	t1,a4,0x7
80000c7a:	010303b3          	add	t2,t1,a6
C:\Users\zzh\NucleiStudio_workspace\axi_ddr200\hbird_sdk\NMSIS\Core\Include/core_feature_plic.h:195
    uint32_t current = *enable_reg;
80000c7e:	0003a883          	lw	a7,0(t2)
C:\Users\zzh\NucleiStudio_workspace\axi_ddr200\hbird_sdk\NMSIS\Core\Include/core_feature_plic.h:196
    current = current & (~(1<<(source&0x1F)));
80000c82:	7e79                	lui	t3,0xffffe
80000c84:	fffe0f13          	addi	t5,t3,-1 # ffffdfff <_sp+0x6ffedfff>
80000c88:	01e8f533          	and	a0,a7,t5
C:\Users\zzh\NucleiStudio_workspace\axi_ddr200\hbird_sdk\NMSIS\Core\Include/core_feature_plic.h:197
    *enable_reg = current;
80000c8c:	00a3a023          	sw	a0,0(t2)
PLIC_SetPriority():
C:\Users\zzh\NucleiStudio_workspace\axi_ddr200\hbird_sdk\NMSIS\Core\Include/core_feature_plic.h:237
    *priority_reg = priority;
80000c90:	020eaa23          	sw	zero,52(t4)
PLIC_DisableInterrupt():
C:\Users\zzh\NucleiStudio_workspace\axi_ddr200\hbird_sdk\NMSIS\Core\Include/core_feature_plic.h:191
    uint32_t hartid = __RV_CSR_READ(CSR_MHARTID);
80000c94:	f1402ff3          	csrr	t6,mhartid
C:\Users\zzh\NucleiStudio_workspace\axi_ddr200\hbird_sdk\NMSIS\Core\Include/core_feature_plic.h:193
                    (hartid << PLIC_ENABLE_SHIFT_PER_TARGET) + (source >> 5) * 4);
80000c98:	007f9793          	slli	a5,t6,0x7
80000c9c:	01078433          	add	s0,a5,a6
C:\Users\zzh\NucleiStudio_workspace\axi_ddr200\hbird_sdk\NMSIS\Core\Include/core_feature_plic.h:195
    uint32_t current = *enable_reg;
80000ca0:	4014                	lw	a3,0(s0)
C:\Users\zzh\NucleiStudio_workspace\axi_ddr200\hbird_sdk\NMSIS\Core\Include/core_feature_plic.h:196
    current = current & (~(1<<(source&0x1F)));
80000ca2:	75f1                	lui	a1,0xffffc
80000ca4:	fff58293          	addi	t0,a1,-1 # ffffbfff <_sp+0x6ffebfff>
80000ca8:	0056f633          	and	a2,a3,t0
C:\Users\zzh\NucleiStudio_workspace\axi_ddr200\hbird_sdk\NMSIS\Core\Include/core_feature_plic.h:197
    *enable_reg = current;
80000cac:	c010                	sw	a2,0(s0)
PLIC_SetPriority():
C:\Users\zzh\NucleiStudio_workspace\axi_ddr200\hbird_sdk\NMSIS\Core\Include/core_feature_plic.h:237
    *priority_reg = priority;
80000cae:	020eac23          	sw	zero,56(t4)
PLIC_DisableInterrupt():
C:\Users\zzh\NucleiStudio_workspace\axi_ddr200\hbird_sdk\NMSIS\Core\Include/core_feature_plic.h:191
    uint32_t hartid = __RV_CSR_READ(CSR_MHARTID);
80000cb2:	f1402773          	csrr	a4,mhartid
C:\Users\zzh\NucleiStudio_workspace\axi_ddr200\hbird_sdk\NMSIS\Core\Include/core_feature_plic.h:193
                    (hartid << PLIC_ENABLE_SHIFT_PER_TARGET) + (source >> 5) * 4);
80000cb6:	00771313          	slli	t1,a4,0x7
80000cba:	010303b3          	add	t2,t1,a6
C:\Users\zzh\NucleiStudio_workspace\axi_ddr200\hbird_sdk\NMSIS\Core\Include/core_feature_plic.h:195
    uint32_t current = *enable_reg;
80000cbe:	0003a883          	lw	a7,0(t2)
C:\Users\zzh\NucleiStudio_workspace\axi_ddr200\hbird_sdk\NMSIS\Core\Include/core_feature_plic.h:196
    current = current & (~(1<<(source&0x1F)));
80000cc2:	7e61                	lui	t3,0xffff8
80000cc4:	fffe0f13          	addi	t5,t3,-1 # ffff7fff <_sp+0x6ffe7fff>
80000cc8:	01e8f533          	and	a0,a7,t5
C:\Users\zzh\NucleiStudio_workspace\axi_ddr200\hbird_sdk\NMSIS\Core\Include/core_feature_plic.h:197
    *enable_reg = current;
80000ccc:	00a3a023          	sw	a0,0(t2)
PLIC_SetPriority():
C:\Users\zzh\NucleiStudio_workspace\axi_ddr200\hbird_sdk\NMSIS\Core\Include/core_feature_plic.h:237
    *priority_reg = priority;
80000cd0:	020eae23          	sw	zero,60(t4)
PLIC_DisableInterrupt():
C:\Users\zzh\NucleiStudio_workspace\axi_ddr200\hbird_sdk\NMSIS\Core\Include/core_feature_plic.h:191
    uint32_t hartid = __RV_CSR_READ(CSR_MHARTID);
80000cd4:	f1402ff3          	csrr	t6,mhartid
C:\Users\zzh\NucleiStudio_workspace\axi_ddr200\hbird_sdk\NMSIS\Core\Include/core_feature_plic.h:193
                    (hartid << PLIC_ENABLE_SHIFT_PER_TARGET) + (source >> 5) * 4);
80000cd8:	007f9793          	slli	a5,t6,0x7
80000cdc:	983e                	add	a6,a6,a5
C:\Users\zzh\NucleiStudio_workspace\axi_ddr200\hbird_sdk\NMSIS\Core\Include/core_feature_plic.h:195
    uint32_t current = *enable_reg;
80000cde:	00082403          	lw	s0,0(a6) # c002000 <__stack_size+0xc001800>
C:\Users\zzh\NucleiStudio_workspace\axi_ddr200\hbird_sdk\NMSIS\Core\Include/core_feature_plic.h:196
    current = current & (~(1<<(source&0x1F)));
80000ce2:	76c1                	lui	a3,0xffff0
80000ce4:	fff68593          	addi	a1,a3,-1 # fffeffff <_sp+0x6ffdffff>
80000ce8:	00b472b3          	and	t0,s0,a1
C:\Users\zzh\NucleiStudio_workspace\axi_ddr200\hbird_sdk\NMSIS\Core\Include/core_feature_plic.h:197
    *enable_reg = current;
80000cec:	00582023          	sw	t0,0(a6)
PLIC_SetPriority():
C:\Users\zzh\NucleiStudio_workspace\axi_ddr200\hbird_sdk\NMSIS\Core\Include/core_feature_plic.h:237
    *priority_reg = priority;
80000cf0:	040ea023          	sw	zero,64(t4)
PLIC_SetThreshold():
C:\Users\zzh\NucleiStudio_workspace\axi_ddr200\hbird_sdk\NMSIS\Core\Include/core_feature_plic.h:135
    uint32_t hartid = __RV_CSR_READ(CSR_MHARTID);
80000cf4:	f1402ef3          	csrr	t4,mhartid
C:\Users\zzh\NucleiStudio_workspace\axi_ddr200\hbird_sdk\NMSIS\Core\Include/core_feature_plic.h:137
                    PLIC_THRESHOLD_OFFSET + (hartid << PLIC_THRESHOLD_SHIFT_PER_TARGET));
80000cf8:	0c200737          	lui	a4,0xc200
_premain_init():
C:\Users\zzh\NucleiStudio_workspace\axi_ddr200\Debug/../hbird_sdk/SoC/hbirdv2/Common/Source/system_hbirdv2.c:481
    Interrupt_Init();
#if defined(__PLIC_PRESENT) && __PLIC_PRESENT == 1
    /* PLIC initilization */
    PLIC_Init(__PLIC_INTNUM);
#endif
}
80000cfc:	40b2                	lw	ra,12(sp)
80000cfe:	4422                	lw	s0,8(sp)
PLIC_SetThreshold():
C:\Users\zzh\NucleiStudio_workspace\axi_ddr200\hbird_sdk\NMSIS\Core\Include/core_feature_plic.h:137
80000d00:	00ce9613          	slli	a2,t4,0xc
80000d04:	00e60333          	add	t1,a2,a4
C:\Users\zzh\NucleiStudio_workspace\axi_ddr200\hbird_sdk\NMSIS\Core\Include/core_feature_plic.h:139
    *thresh_reg = thresh;
80000d08:	00032023          	sw	zero,0(t1)
_premain_init():
C:\Users\zzh\NucleiStudio_workspace\axi_ddr200\Debug/../hbird_sdk/SoC/hbirdv2/Common/Source/system_hbirdv2.c:481
80000d0c:	0141                	addi	sp,sp,16
80000d0e:	8082                	ret

80000d10 <_postmain_fini>:
_postmain_fini():
C:\Users\zzh\NucleiStudio_workspace\axi_ddr200\Debug/../hbird_sdk/SoC/hbirdv2/Common/Source/system_hbirdv2.c:507
#ifdef SIMULATION_RTL
extern void rtlsim_exit(int status);
    rtlsim_exit(status);
#endif

}
80000d10:	8082                	ret
	...

80000d14 <_init>:
_init():
C:\Users\zzh\NucleiStudio_workspace\axi_ddr200\Debug/../hbird_sdk/SoC/hbirdv2/Common/Source/system_hbirdv2.c:521
 * Please use \ref _premain_init function now
 */
void _init(void)
{
    /* Don't put any code here, please use _premain_init now */
}
80000d14:	8082                	ret
	...

80000d18 <_fini>:
_fini():
80000d18:	8082                	ret

80000d1a <__udivdi3>:
__udivdi3():
/home/xl_ci/toolchain/riscv-gnu-toolchain/riscv-gcc/libgcc/libgcc2.c:1319
80000d1a:	88aa                	mv	a7,a0
80000d1c:	87ae                	mv	a5,a1
__udivmoddi4():
/home/xl_ci/toolchain/riscv-gnu-toolchain/riscv-gcc/libgcc/libgcc2.c:1024
80000d1e:	8832                	mv	a6,a2
/home/xl_ci/toolchain/riscv-gnu-toolchain/riscv-gcc/libgcc/libgcc2.c:1025
80000d20:	8536                	mv	a0,a3
/home/xl_ci/toolchain/riscv-gnu-toolchain/riscv-gcc/libgcc/libgcc2.c:1026
80000d22:	8346                	mv	t1,a7
/home/xl_ci/toolchain/riscv-gnu-toolchain/riscv-gcc/libgcc/libgcc2.c:1064
80000d24:	20069663          	bnez	a3,80000f30 <__udivdi3+0x216>
/home/xl_ci/toolchain/riscv-gnu-toolchain/riscv-gcc/libgcc/libgcc2.c:1066
80000d28:	00005697          	auipc	a3,0x5
80000d2c:	1d468693          	addi	a3,a3,468 # 80005efc <__clz_tab>
80000d30:	0ac5ff63          	bgeu	a1,a2,80000dee <__udivdi3+0xd4>
/home/xl_ci/toolchain/riscv-gnu-toolchain/riscv-gcc/libgcc/libgcc2.c:1070
80000d34:	6741                	lui	a4,0x10
80000d36:	0ae67563          	bgeu	a2,a4,80000de0 <__udivdi3+0xc6>
80000d3a:	0ff00713          	li	a4,255
80000d3e:	00c73733          	sltu	a4,a4,a2
80000d42:	070e                	slli	a4,a4,0x3
80000d44:	00e65533          	srl	a0,a2,a4
80000d48:	96aa                	add	a3,a3,a0
80000d4a:	0006c683          	lbu	a3,0(a3)
80000d4e:	02000513          	li	a0,32
80000d52:	9736                	add	a4,a4,a3
80000d54:	40e506b3          	sub	a3,a0,a4
/home/xl_ci/toolchain/riscv-gnu-toolchain/riscv-gcc/libgcc/libgcc2.c:1072
80000d58:	00e50b63          	beq	a0,a4,80000d6e <__udivdi3+0x54>
/home/xl_ci/toolchain/riscv-gnu-toolchain/riscv-gcc/libgcc/libgcc2.c:1078
80000d5c:	00d795b3          	sll	a1,a5,a3
80000d60:	00e8d733          	srl	a4,a7,a4
/home/xl_ci/toolchain/riscv-gnu-toolchain/riscv-gcc/libgcc/libgcc2.c:1077
80000d64:	00d61833          	sll	a6,a2,a3
/home/xl_ci/toolchain/riscv-gnu-toolchain/riscv-gcc/libgcc/libgcc2.c:1078
80000d68:	8dd9                	or	a1,a1,a4
/home/xl_ci/toolchain/riscv-gnu-toolchain/riscv-gcc/libgcc/libgcc2.c:1079
80000d6a:	00d89333          	sll	t1,a7,a3
/home/xl_ci/toolchain/riscv-gnu-toolchain/riscv-gcc/libgcc/libgcc2.c:1082
80000d6e:	01085893          	srli	a7,a6,0x10
80000d72:	0315d6b3          	divu	a3,a1,a7
80000d76:	01081613          	slli	a2,a6,0x10
80000d7a:	8241                	srli	a2,a2,0x10
80000d7c:	01035793          	srli	a5,t1,0x10
80000d80:	0315f733          	remu	a4,a1,a7
80000d84:	8536                	mv	a0,a3
80000d86:	02d605b3          	mul	a1,a2,a3
80000d8a:	0742                	slli	a4,a4,0x10
80000d8c:	8fd9                	or	a5,a5,a4
80000d8e:	00b7fc63          	bgeu	a5,a1,80000da6 <__udivdi3+0x8c>
80000d92:	97c2                	add	a5,a5,a6
80000d94:	fff68513          	addi	a0,a3,-1
80000d98:	0107e763          	bltu	a5,a6,80000da6 <__udivdi3+0x8c>
80000d9c:	00b7f563          	bgeu	a5,a1,80000da6 <__udivdi3+0x8c>
80000da0:	ffe68513          	addi	a0,a3,-2
80000da4:	97c2                	add	a5,a5,a6
80000da6:	8f8d                	sub	a5,a5,a1
80000da8:	0317f733          	remu	a4,a5,a7
80000dac:	0342                	slli	t1,t1,0x10
80000dae:	01035313          	srli	t1,t1,0x10
80000db2:	0317d7b3          	divu	a5,a5,a7
80000db6:	0742                	slli	a4,a4,0x10
80000db8:	00676333          	or	t1,a4,t1
80000dbc:	02f606b3          	mul	a3,a2,a5
80000dc0:	863e                	mv	a2,a5
80000dc2:	00d37b63          	bgeu	t1,a3,80000dd8 <__udivdi3+0xbe>
80000dc6:	9342                	add	t1,t1,a6
80000dc8:	fff78613          	addi	a2,a5,-1
80000dcc:	01036663          	bltu	t1,a6,80000dd8 <__udivdi3+0xbe>
80000dd0:	00d37463          	bgeu	t1,a3,80000dd8 <__udivdi3+0xbe>
80000dd4:	ffe78613          	addi	a2,a5,-2
80000dd8:	0542                	slli	a0,a0,0x10
80000dda:	8d51                	or	a0,a0,a2
/home/xl_ci/toolchain/riscv-gnu-toolchain/riscv-gcc/libgcc/libgcc2.c:1209
80000ddc:	4581                	li	a1,0
80000dde:	a85d                	j	80000e94 <__udivdi3+0x17a>
/home/xl_ci/toolchain/riscv-gnu-toolchain/riscv-gcc/libgcc/libgcc2.c:1070
80000de0:	01000537          	lui	a0,0x1000
80000de4:	4741                	li	a4,16
80000de6:	f4a66fe3          	bltu	a2,a0,80000d44 <__udivdi3+0x2a>
80000dea:	4761                	li	a4,24
80000dec:	bfa1                	j	80000d44 <__udivdi3+0x2a>
/home/xl_ci/toolchain/riscv-gnu-toolchain/riscv-gcc/libgcc/libgcc2.c:1091
80000dee:	e601                	bnez	a2,80000df6 <__udivdi3+0xdc>
/home/xl_ci/toolchain/riscv-gnu-toolchain/riscv-gcc/libgcc/libgcc2.c:1092
80000df0:	4705                	li	a4,1
80000df2:	02c75833          	divu	a6,a4,a2
/home/xl_ci/toolchain/riscv-gnu-toolchain/riscv-gcc/libgcc/libgcc2.c:1094
80000df6:	6741                	lui	a4,0x10
80000df8:	08e87f63          	bgeu	a6,a4,80000e96 <__udivdi3+0x17c>
80000dfc:	0ff00713          	li	a4,255
80000e00:	01077363          	bgeu	a4,a6,80000e06 <__udivdi3+0xec>
80000e04:	4521                	li	a0,8
80000e06:	00a85733          	srl	a4,a6,a0
80000e0a:	96ba                	add	a3,a3,a4
80000e0c:	0006c703          	lbu	a4,0(a3)
80000e10:	02000613          	li	a2,32
80000e14:	972a                	add	a4,a4,a0
80000e16:	40e606b3          	sub	a3,a2,a4
/home/xl_ci/toolchain/riscv-gnu-toolchain/riscv-gcc/libgcc/libgcc2.c:1096
80000e1a:	08e61563          	bne	a2,a4,80000ea4 <__udivdi3+0x18a>
/home/xl_ci/toolchain/riscv-gnu-toolchain/riscv-gcc/libgcc/libgcc2.c:1105
80000e1e:	410787b3          	sub	a5,a5,a6
/home/xl_ci/toolchain/riscv-gnu-toolchain/riscv-gcc/libgcc/libgcc2.c:1106
80000e22:	4585                	li	a1,1
/home/xl_ci/toolchain/riscv-gnu-toolchain/riscv-gcc/libgcc/libgcc2.c:1124
80000e24:	01085893          	srli	a7,a6,0x10
80000e28:	01081613          	slli	a2,a6,0x10
80000e2c:	8241                	srli	a2,a2,0x10
80000e2e:	01035713          	srli	a4,t1,0x10
80000e32:	0317f6b3          	remu	a3,a5,a7
80000e36:	0317d7b3          	divu	a5,a5,a7
80000e3a:	06c2                	slli	a3,a3,0x10
80000e3c:	8f55                	or	a4,a4,a3
80000e3e:	02f60e33          	mul	t3,a2,a5
80000e42:	853e                	mv	a0,a5
80000e44:	01c77c63          	bgeu	a4,t3,80000e5c <__udivdi3+0x142>
80000e48:	9742                	add	a4,a4,a6
80000e4a:	fff78513          	addi	a0,a5,-1
80000e4e:	01076763          	bltu	a4,a6,80000e5c <__udivdi3+0x142>
80000e52:	01c77563          	bgeu	a4,t3,80000e5c <__udivdi3+0x142>
80000e56:	ffe78513          	addi	a0,a5,-2
80000e5a:	9742                	add	a4,a4,a6
80000e5c:	41c70733          	sub	a4,a4,t3
80000e60:	031777b3          	remu	a5,a4,a7
80000e64:	0342                	slli	t1,t1,0x10
80000e66:	01035313          	srli	t1,t1,0x10
80000e6a:	03175733          	divu	a4,a4,a7
80000e6e:	07c2                	slli	a5,a5,0x10
80000e70:	0067e333          	or	t1,a5,t1
80000e74:	02e606b3          	mul	a3,a2,a4
80000e78:	863a                	mv	a2,a4
80000e7a:	00d37b63          	bgeu	t1,a3,80000e90 <__udivdi3+0x176>
80000e7e:	9342                	add	t1,t1,a6
80000e80:	fff70613          	addi	a2,a4,-1 # ffff <__stack_size+0xf7ff>
80000e84:	01036663          	bltu	t1,a6,80000e90 <__udivdi3+0x176>
80000e88:	00d37463          	bgeu	t1,a3,80000e90 <__udivdi3+0x176>
80000e8c:	ffe70613          	addi	a2,a4,-2
80000e90:	0542                	slli	a0,a0,0x10
80000e92:	8d51                	or	a0,a0,a2
__udivdi3():
/home/xl_ci/toolchain/riscv-gnu-toolchain/riscv-gcc/libgcc/libgcc2.c:1321
80000e94:	8082                	ret
__udivmoddi4():
/home/xl_ci/toolchain/riscv-gnu-toolchain/riscv-gcc/libgcc/libgcc2.c:1094
80000e96:	01000737          	lui	a4,0x1000
80000e9a:	4541                	li	a0,16
80000e9c:	f6e865e3          	bltu	a6,a4,80000e06 <__udivdi3+0xec>
80000ea0:	4561                	li	a0,24
80000ea2:	b795                	j	80000e06 <__udivdi3+0xec>
/home/xl_ci/toolchain/riscv-gnu-toolchain/riscv-gcc/libgcc/libgcc2.c:1114
80000ea4:	00d81833          	sll	a6,a6,a3
/home/xl_ci/toolchain/riscv-gnu-toolchain/riscv-gcc/libgcc/libgcc2.c:1115
80000ea8:	00e7d533          	srl	a0,a5,a4
/home/xl_ci/toolchain/riscv-gnu-toolchain/riscv-gcc/libgcc/libgcc2.c:1117
80000eac:	00d89333          	sll	t1,a7,a3
/home/xl_ci/toolchain/riscv-gnu-toolchain/riscv-gcc/libgcc/libgcc2.c:1116
80000eb0:	00d797b3          	sll	a5,a5,a3
80000eb4:	00e8d733          	srl	a4,a7,a4
/home/xl_ci/toolchain/riscv-gnu-toolchain/riscv-gcc/libgcc/libgcc2.c:1119
80000eb8:	01085893          	srli	a7,a6,0x10
/home/xl_ci/toolchain/riscv-gnu-toolchain/riscv-gcc/libgcc/libgcc2.c:1116
80000ebc:	00f76633          	or	a2,a4,a5
/home/xl_ci/toolchain/riscv-gnu-toolchain/riscv-gcc/libgcc/libgcc2.c:1119
80000ec0:	03157733          	remu	a4,a0,a7
80000ec4:	01081793          	slli	a5,a6,0x10
80000ec8:	83c1                	srli	a5,a5,0x10
80000eca:	01065593          	srli	a1,a2,0x10
80000ece:	03155533          	divu	a0,a0,a7
80000ed2:	0742                	slli	a4,a4,0x10
80000ed4:	8f4d                	or	a4,a4,a1
80000ed6:	02a786b3          	mul	a3,a5,a0
80000eda:	85aa                	mv	a1,a0
80000edc:	00d77c63          	bgeu	a4,a3,80000ef4 <__udivdi3+0x1da>
80000ee0:	9742                	add	a4,a4,a6
80000ee2:	fff50593          	addi	a1,a0,-1 # ffffff <__stack_size+0xfff7ff>
80000ee6:	01076763          	bltu	a4,a6,80000ef4 <__udivdi3+0x1da>
80000eea:	00d77563          	bgeu	a4,a3,80000ef4 <__udivdi3+0x1da>
80000eee:	ffe50593          	addi	a1,a0,-2
80000ef2:	9742                	add	a4,a4,a6
80000ef4:	40d706b3          	sub	a3,a4,a3
80000ef8:	0316f733          	remu	a4,a3,a7
80000efc:	0642                	slli	a2,a2,0x10
80000efe:	8241                	srli	a2,a2,0x10
80000f00:	0316d6b3          	divu	a3,a3,a7
80000f04:	0742                	slli	a4,a4,0x10
80000f06:	02d78533          	mul	a0,a5,a3
80000f0a:	00c767b3          	or	a5,a4,a2
80000f0e:	8736                	mv	a4,a3
80000f10:	00a7fc63          	bgeu	a5,a0,80000f28 <__udivdi3+0x20e>
80000f14:	97c2                	add	a5,a5,a6
80000f16:	fff68713          	addi	a4,a3,-1
80000f1a:	0107e763          	bltu	a5,a6,80000f28 <__udivdi3+0x20e>
80000f1e:	00a7f563          	bgeu	a5,a0,80000f28 <__udivdi3+0x20e>
80000f22:	ffe68713          	addi	a4,a3,-2
80000f26:	97c2                	add	a5,a5,a6
80000f28:	05c2                	slli	a1,a1,0x10
80000f2a:	8f89                	sub	a5,a5,a0
80000f2c:	8dd9                	or	a1,a1,a4
80000f2e:	bddd                	j	80000e24 <__udivdi3+0x10a>
/home/xl_ci/toolchain/riscv-gnu-toolchain/riscv-gcc/libgcc/libgcc2.c:1140
80000f30:	14d5e263          	bltu	a1,a3,80001074 <__udivdi3+0x35a>
/home/xl_ci/toolchain/riscv-gnu-toolchain/riscv-gcc/libgcc/libgcc2.c:1159
80000f34:	6741                	lui	a4,0x10
80000f36:	02e6ff63          	bgeu	a3,a4,80000f74 <__udivdi3+0x25a>
80000f3a:	0ff00713          	li	a4,255
80000f3e:	00d735b3          	sltu	a1,a4,a3
80000f42:	058e                	slli	a1,a1,0x3
80000f44:	00b6d533          	srl	a0,a3,a1
80000f48:	00005717          	auipc	a4,0x5
80000f4c:	fb470713          	addi	a4,a4,-76 # 80005efc <__clz_tab>
80000f50:	972a                	add	a4,a4,a0
80000f52:	00074703          	lbu	a4,0(a4)
80000f56:	02000513          	li	a0,32
80000f5a:	972e                	add	a4,a4,a1
80000f5c:	40e505b3          	sub	a1,a0,a4
/home/xl_ci/toolchain/riscv-gnu-toolchain/riscv-gcc/libgcc/libgcc2.c:1160
80000f60:	02e51163          	bne	a0,a4,80000f82 <__udivdi3+0x268>
/home/xl_ci/toolchain/riscv-gnu-toolchain/riscv-gcc/libgcc/libgcc2.c:1172
80000f64:	4505                	li	a0,1
/home/xl_ci/toolchain/riscv-gnu-toolchain/riscv-gcc/libgcc/libgcc2.c:1170
80000f66:	f2f6e7e3          	bltu	a3,a5,80000e94 <__udivdi3+0x17a>
80000f6a:	00c8b533          	sltu	a0,a7,a2
80000f6e:	00154513          	xori	a0,a0,1
80000f72:	b70d                	j	80000e94 <__udivdi3+0x17a>
/home/xl_ci/toolchain/riscv-gnu-toolchain/riscv-gcc/libgcc/libgcc2.c:1159
80000f74:	01000737          	lui	a4,0x1000
80000f78:	45c1                	li	a1,16
80000f7a:	fce6e5e3          	bltu	a3,a4,80000f44 <__udivdi3+0x22a>
80000f7e:	45e1                	li	a1,24
80000f80:	b7d1                	j	80000f44 <__udivdi3+0x22a>
/home/xl_ci/toolchain/riscv-gnu-toolchain/riscv-gcc/libgcc/libgcc2.c:1194
80000f82:	00e65833          	srl	a6,a2,a4
80000f86:	00b696b3          	sll	a3,a3,a1
80000f8a:	00d86833          	or	a6,a6,a3
/home/xl_ci/toolchain/riscv-gnu-toolchain/riscv-gcc/libgcc/libgcc2.c:1196
80000f8e:	00e7d333          	srl	t1,a5,a4
/home/xl_ci/toolchain/riscv-gnu-toolchain/riscv-gcc/libgcc/libgcc2.c:1200
80000f92:	01085e93          	srli	t4,a6,0x10
80000f96:	03d376b3          	remu	a3,t1,t4
/home/xl_ci/toolchain/riscv-gnu-toolchain/riscv-gcc/libgcc/libgcc2.c:1197
80000f9a:	00b797b3          	sll	a5,a5,a1
80000f9e:	00e8d733          	srl	a4,a7,a4
/home/xl_ci/toolchain/riscv-gnu-toolchain/riscv-gcc/libgcc/libgcc2.c:1195
80000fa2:	00b61e33          	sll	t3,a2,a1
/home/xl_ci/toolchain/riscv-gnu-toolchain/riscv-gcc/libgcc/libgcc2.c:1197
80000fa6:	00f76633          	or	a2,a4,a5
/home/xl_ci/toolchain/riscv-gnu-toolchain/riscv-gcc/libgcc/libgcc2.c:1200
80000faa:	01081793          	slli	a5,a6,0x10
80000fae:	83c1                	srli	a5,a5,0x10
80000fb0:	01065713          	srli	a4,a2,0x10
80000fb4:	03d35333          	divu	t1,t1,t4
80000fb8:	06c2                	slli	a3,a3,0x10
80000fba:	8f55                	or	a4,a4,a3
80000fbc:	02678f33          	mul	t5,a5,t1
80000fc0:	851a                	mv	a0,t1
80000fc2:	01e77c63          	bgeu	a4,t5,80000fda <__udivdi3+0x2c0>
80000fc6:	9742                	add	a4,a4,a6
80000fc8:	fff30513          	addi	a0,t1,-1
80000fcc:	01076763          	bltu	a4,a6,80000fda <__udivdi3+0x2c0>
80000fd0:	01e77563          	bgeu	a4,t5,80000fda <__udivdi3+0x2c0>
80000fd4:	ffe30513          	addi	a0,t1,-2
80000fd8:	9742                	add	a4,a4,a6
80000fda:	41e70733          	sub	a4,a4,t5
80000fde:	03d776b3          	remu	a3,a4,t4
80000fe2:	03d75733          	divu	a4,a4,t4
80000fe6:	06c2                	slli	a3,a3,0x10
80000fe8:	02e78333          	mul	t1,a5,a4
80000fec:	01061793          	slli	a5,a2,0x10
80000ff0:	83c1                	srli	a5,a5,0x10
80000ff2:	8fd5                	or	a5,a5,a3
80000ff4:	863a                	mv	a2,a4
80000ff6:	0067fc63          	bgeu	a5,t1,8000100e <__udivdi3+0x2f4>
80000ffa:	97c2                	add	a5,a5,a6
80000ffc:	fff70613          	addi	a2,a4,-1 # ffffff <__stack_size+0xfff7ff>
80001000:	0107e763          	bltu	a5,a6,8000100e <__udivdi3+0x2f4>
80001004:	0067f563          	bgeu	a5,t1,8000100e <__udivdi3+0x2f4>
80001008:	ffe70613          	addi	a2,a4,-2
8000100c:	97c2                	add	a5,a5,a6
8000100e:	0542                	slli	a0,a0,0x10
/home/xl_ci/toolchain/riscv-gnu-toolchain/riscv-gcc/libgcc/libgcc2.c:1201
80001010:	6ec1                	lui	t4,0x10
/home/xl_ci/toolchain/riscv-gnu-toolchain/riscv-gcc/libgcc/libgcc2.c:1200
80001012:	8d51                	or	a0,a0,a2
/home/xl_ci/toolchain/riscv-gnu-toolchain/riscv-gcc/libgcc/libgcc2.c:1201
80001014:	fffe8693          	addi	a3,t4,-1 # ffff <__stack_size+0xf7ff>
80001018:	010e5613          	srli	a2,t3,0x10
8000101c:	01055813          	srli	a6,a0,0x10
/home/xl_ci/toolchain/riscv-gnu-toolchain/riscv-gcc/libgcc/libgcc2.c:1200
80001020:	406787b3          	sub	a5,a5,t1
/home/xl_ci/toolchain/riscv-gnu-toolchain/riscv-gcc/libgcc/libgcc2.c:1201
80001024:	00d57333          	and	t1,a0,a3
80001028:	00de76b3          	and	a3,t3,a3
8000102c:	02d30e33          	mul	t3,t1,a3
80001030:	02d806b3          	mul	a3,a6,a3
80001034:	010e5713          	srli	a4,t3,0x10
80001038:	02c30333          	mul	t1,t1,a2
8000103c:	9336                	add	t1,t1,a3
8000103e:	971a                	add	a4,a4,t1
80001040:	02c80833          	mul	a6,a6,a2
80001044:	00d77363          	bgeu	a4,a3,8000104a <__udivdi3+0x330>
80001048:	9876                	add	a6,a6,t4
8000104a:	01075693          	srli	a3,a4,0x10
8000104e:	9836                	add	a6,a6,a3
/home/xl_ci/toolchain/riscv-gnu-toolchain/riscv-gcc/libgcc/libgcc2.c:1203
80001050:	0307e063          	bltu	a5,a6,80001070 <__udivdi3+0x356>
80001054:	d90794e3          	bne	a5,a6,80000ddc <__udivdi3+0xc2>
/home/xl_ci/toolchain/riscv-gnu-toolchain/riscv-gcc/libgcc/libgcc2.c:1201
80001058:	67c1                	lui	a5,0x10
8000105a:	17fd                	addi	a5,a5,-1
8000105c:	8f7d                	and	a4,a4,a5
8000105e:	0742                	slli	a4,a4,0x10
80001060:	00fe7e33          	and	t3,t3,a5
/home/xl_ci/toolchain/riscv-gnu-toolchain/riscv-gcc/libgcc/libgcc2.c:1198
80001064:	00b898b3          	sll	a7,a7,a1
/home/xl_ci/toolchain/riscv-gnu-toolchain/riscv-gcc/libgcc/libgcc2.c:1201
80001068:	9772                	add	a4,a4,t3
/home/xl_ci/toolchain/riscv-gnu-toolchain/riscv-gcc/libgcc/libgcc2.c:1209
8000106a:	4581                	li	a1,0
/home/xl_ci/toolchain/riscv-gnu-toolchain/riscv-gcc/libgcc/libgcc2.c:1203
8000106c:	e2e8f4e3          	bgeu	a7,a4,80000e94 <__udivdi3+0x17a>
/home/xl_ci/toolchain/riscv-gnu-toolchain/riscv-gcc/libgcc/libgcc2.c:1205
80001070:	157d                	addi	a0,a0,-1
__udivdi3():
/home/xl_ci/toolchain/riscv-gnu-toolchain/riscv-gcc/libgcc/libgcc2.c:1206
80001072:	b3ad                	j	80000ddc <__udivdi3+0xc2>
__udivmoddi4():
/home/xl_ci/toolchain/riscv-gnu-toolchain/riscv-gcc/libgcc/libgcc2.c:1145
80001074:	4581                	li	a1,0
/home/xl_ci/toolchain/riscv-gnu-toolchain/riscv-gcc/libgcc/libgcc2.c:1144
80001076:	4501                	li	a0,0
80001078:	bd31                	j	80000e94 <__udivdi3+0x17a>

8000107a <atexit>:
atexit():
8000107a:	85aa                	mv	a1,a0
8000107c:	4681                	li	a3,0
8000107e:	4601                	li	a2,0
80001080:	4501                	li	a0,0
80001082:	5890006f          	j	80001e0a <__register_exitproc>

80001086 <__libc_fini_array>:
__libc_fini_array():
80001086:	1141                	addi	sp,sp,-16
80001088:	c422                	sw	s0,8(sp)
8000108a:	c226                	sw	s1,4(sp)
8000108c:	00005417          	auipc	s0,0x5
80001090:	42840413          	addi	s0,s0,1064 # 800064b4 <__fsymtab_end>
80001094:	00005497          	auipc	s1,0x5
80001098:	42048493          	addi	s1,s1,1056 # 800064b4 <__fsymtab_end>
8000109c:	8c05                	sub	s0,s0,s1
8000109e:	c606                	sw	ra,12(sp)
800010a0:	8409                	srai	s0,s0,0x2
800010a2:	e411                	bnez	s0,800010ae <__libc_fini_array+0x28>
800010a4:	40b2                	lw	ra,12(sp)
800010a6:	4422                	lw	s0,8(sp)
800010a8:	4492                	lw	s1,4(sp)
800010aa:	0141                	addi	sp,sp,16
800010ac:	8082                	ret
800010ae:	147d                	addi	s0,s0,-1
800010b0:	00241793          	slli	a5,s0,0x2
800010b4:	97a6                	add	a5,a5,s1
800010b6:	439c                	lw	a5,0(a5)
800010b8:	9782                	jalr	a5
800010ba:	b7e5                	j	800010a2 <__libc_fini_array+0x1c>

800010bc <__libc_init_array>:
__libc_init_array():
800010bc:	1141                	addi	sp,sp,-16
800010be:	c422                	sw	s0,8(sp)
800010c0:	c226                	sw	s1,4(sp)
800010c2:	00005417          	auipc	s0,0x5
800010c6:	3f240413          	addi	s0,s0,1010 # 800064b4 <__fsymtab_end>
800010ca:	00005497          	auipc	s1,0x5
800010ce:	3ea48493          	addi	s1,s1,1002 # 800064b4 <__fsymtab_end>
800010d2:	8c81                	sub	s1,s1,s0
800010d4:	c04a                	sw	s2,0(sp)
800010d6:	c606                	sw	ra,12(sp)
800010d8:	8489                	srai	s1,s1,0x2
800010da:	4901                	li	s2,0
800010dc:	02991563          	bne	s2,s1,80001106 <__libc_init_array+0x4a>
800010e0:	00005417          	auipc	s0,0x5
800010e4:	3d440413          	addi	s0,s0,980 # 800064b4 <__fsymtab_end>
800010e8:	00005497          	auipc	s1,0x5
800010ec:	3cc48493          	addi	s1,s1,972 # 800064b4 <__fsymtab_end>
800010f0:	8c81                	sub	s1,s1,s0
800010f2:	8489                	srai	s1,s1,0x2
800010f4:	4901                	li	s2,0
800010f6:	00991d63          	bne	s2,s1,80001110 <__libc_init_array+0x54>
800010fa:	40b2                	lw	ra,12(sp)
800010fc:	4422                	lw	s0,8(sp)
800010fe:	4492                	lw	s1,4(sp)
80001100:	4902                	lw	s2,0(sp)
80001102:	0141                	addi	sp,sp,16
80001104:	8082                	ret
80001106:	401c                	lw	a5,0(s0)
80001108:	0905                	addi	s2,s2,1
8000110a:	0411                	addi	s0,s0,4
8000110c:	9782                	jalr	a5
8000110e:	b7f9                	j	800010dc <__libc_init_array+0x20>
80001110:	401c                	lw	a5,0(s0)
80001112:	0905                	addi	s2,s2,1
80001114:	0411                	addi	s0,s0,4
80001116:	9782                	jalr	a5
80001118:	bff9                	j	800010f6 <__libc_init_array+0x3a>

8000111a <__cvt>:
__cvt():
8000111a:	7179                	addi	sp,sp,-48
8000111c:	d422                	sw	s0,40(sp)
8000111e:	d04a                	sw	s2,32(sp)
80001120:	cc52                	sw	s4,24(sp)
80001122:	ca56                	sw	s5,20(sp)
80001124:	c85a                	sw	s6,16(sp)
80001126:	d606                	sw	ra,44(sp)
80001128:	d226                	sw	s1,36(sp)
8000112a:	ce4e                	sw	s3,28(sp)
8000112c:	8b3a                	mv	s6,a4
8000112e:	8a2e                	mv	s4,a1
80001130:	8432                	mv	s0,a2
80001132:	8936                	mv	s2,a3
80001134:	8ac2                	mv	s5,a6
80001136:	4701                	li	a4,0
80001138:	00065863          	bgez	a2,80001148 <__cvt+0x2e>
8000113c:	80000737          	lui	a4,0x80000
80001140:	00c74433          	xor	s0,a4,a2
80001144:	02d00713          	li	a4,45
80001148:	00e78023          	sb	a4,0(a5) # 10000 <__stack_size+0xf800>
8000114c:	fdf8f493          	andi	s1,a7,-33
80001150:	04600793          	li	a5,70
80001154:	468d                	li	a3,3
80001156:	00f48863          	beq	s1,a5,80001166 <__cvt+0x4c>
8000115a:	04500793          	li	a5,69
8000115e:	4689                	li	a3,2
80001160:	00f49363          	bne	s1,a5,80001166 <__cvt+0x4c>
80001164:	0905                	addi	s2,s2,1
80001166:	87d6                	mv	a5,s5
80001168:	00c10893          	addi	a7,sp,12
8000116c:	00810813          	addi	a6,sp,8
80001170:	874a                	mv	a4,s2
80001172:	85d2                	mv	a1,s4
80001174:	8622                	mv	a2,s0
80001176:	635000ef          	jal	ra,80001faa <_dtoa_r>
8000117a:	04700793          	li	a5,71
8000117e:	89aa                	mv	s3,a0
80001180:	00f49563          	bne	s1,a5,8000118a <__cvt+0x70>
80001184:	001b7613          	andi	a2,s6,1
80001188:	ca29                	beqz	a2,800011da <__cvt+0xc0>
8000118a:	04600793          	li	a5,70
8000118e:	01298b33          	add	s6,s3,s2
80001192:	02f49763          	bne	s1,a5,800011c0 <__cvt+0xa6>
80001196:	0009c703          	lbu	a4,0(s3)
8000119a:	03000793          	li	a5,48
8000119e:	00f71e63          	bne	a4,a5,800011ba <__cvt+0xa0>
800011a2:	4601                	li	a2,0
800011a4:	4681                	li	a3,0
800011a6:	8552                	mv	a0,s4
800011a8:	85a2                	mv	a1,s0
800011aa:	497030ef          	jal	ra,80004e40 <__eqdf2>
800011ae:	c511                	beqz	a0,800011ba <__cvt+0xa0>
800011b0:	4605                	li	a2,1
800011b2:	412606b3          	sub	a3,a2,s2
800011b6:	00daa023          	sw	a3,0(s5)
800011ba:	000aa783          	lw	a5,0(s5)
800011be:	9b3e                	add	s6,s6,a5
800011c0:	4601                	li	a2,0
800011c2:	4681                	li	a3,0
800011c4:	8552                	mv	a0,s4
800011c6:	85a2                	mv	a1,s0
800011c8:	479030ef          	jal	ra,80004e40 <__eqdf2>
800011cc:	e111                	bnez	a0,800011d0 <__cvt+0xb6>
800011ce:	c65a                	sw	s6,12(sp)
800011d0:	03000713          	li	a4,48
800011d4:	47b2                	lw	a5,12(sp)
800011d6:	0367e263          	bltu	a5,s6,800011fa <__cvt+0xe0>
800011da:	47b2                	lw	a5,12(sp)
800011dc:	5742                	lw	a4,48(sp)
800011de:	50b2                	lw	ra,44(sp)
800011e0:	5422                	lw	s0,40(sp)
800011e2:	413787b3          	sub	a5,a5,s3
800011e6:	c31c                	sw	a5,0(a4)
800011e8:	5492                	lw	s1,36(sp)
800011ea:	5902                	lw	s2,32(sp)
800011ec:	4a62                	lw	s4,24(sp)
800011ee:	4ad2                	lw	s5,20(sp)
800011f0:	4b42                	lw	s6,16(sp)
800011f2:	854e                	mv	a0,s3
800011f4:	49f2                	lw	s3,28(sp)
800011f6:	6145                	addi	sp,sp,48
800011f8:	8082                	ret
800011fa:	00178693          	addi	a3,a5,1
800011fe:	c636                	sw	a3,12(sp)
80001200:	00e78023          	sb	a4,0(a5)
80001204:	bfc1                	j	800011d4 <__cvt+0xba>

80001206 <__exponent>:
__exponent():
80001206:	00c50023          	sb	a2,0(a0)
8000120a:	00250793          	addi	a5,a0,2
8000120e:	02b00713          	li	a4,43
80001212:	0005d663          	bgez	a1,8000121e <__exponent+0x18>
80001216:	40b005b3          	neg	a1,a1
8000121a:	02d00713          	li	a4,45
8000121e:	00e500a3          	sb	a4,1(a0)
80001222:	4725                	li	a4,9
80001224:	06b75263          	bge	a4,a1,80001288 <__exponent+0x82>
80001228:	1141                	addi	sp,sp,-16
8000122a:	00f10713          	addi	a4,sp,15
8000122e:	883a                	mv	a6,a4
80001230:	48a9                	li	a7,10
80001232:	06300313          	li	t1,99
80001236:	0315e633          	rem	a2,a1,a7
8000123a:	86ba                	mv	a3,a4
8000123c:	177d                	addi	a4,a4,-1
8000123e:	03060613          	addi	a2,a2,48
80001242:	fec68fa3          	sb	a2,-1(a3)
80001246:	862e                	mv	a2,a1
80001248:	0315c5b3          	div	a1,a1,a7
8000124c:	fec345e3          	blt	t1,a2,80001236 <__exponent+0x30>
80001250:	ffe68893          	addi	a7,a3,-2
80001254:	03058593          	addi	a1,a1,48
80001258:	feb70fa3          	sb	a1,-1(a4) # 7fffffff <_sp+0xeffeffff>
8000125c:	863e                	mv	a2,a5
8000125e:	8746                	mv	a4,a7
80001260:	01076d63          	bltu	a4,a6,8000127a <__exponent+0x74>
80001264:	4701                	li	a4,0
80001266:	01186563          	bltu	a6,a7,80001270 <__exponent+0x6a>
8000126a:	01110713          	addi	a4,sp,17
8000126e:	8f15                	sub	a4,a4,a3
80001270:	97ba                	add	a5,a5,a4
80001272:	40a78533          	sub	a0,a5,a0
80001276:	0141                	addi	sp,sp,16
80001278:	8082                	ret
8000127a:	00074583          	lbu	a1,0(a4)
8000127e:	0705                	addi	a4,a4,1
80001280:	0605                	addi	a2,a2,1
80001282:	feb60fa3          	sb	a1,-1(a2)
80001286:	bfe9                	j	80001260 <__exponent+0x5a>
80001288:	03000793          	li	a5,48
8000128c:	00f50123          	sb	a5,2(a0)
80001290:	03058593          	addi	a1,a1,48
80001294:	00450793          	addi	a5,a0,4
80001298:	00b501a3          	sb	a1,3(a0)
8000129c:	40a78533          	sub	a0,a5,a0
800012a0:	8082                	ret

800012a2 <_printf_float>:
_printf_float():
800012a2:	7119                	addi	sp,sp,-128
800012a4:	de86                	sw	ra,124(sp)
800012a6:	dca2                	sw	s0,120(sp)
800012a8:	daa6                	sw	s1,116(sp)
800012aa:	842e                	mv	s0,a1
800012ac:	d8ca                	sw	s2,112(sp)
800012ae:	d6ce                	sw	s3,108(sp)
800012b0:	d4d2                	sw	s4,104(sp)
800012b2:	d2d6                	sw	s5,100(sp)
800012b4:	8a3a                	mv	s4,a4
800012b6:	d0da                	sw	s6,96(sp)
800012b8:	cede                	sw	s7,92(sp)
800012ba:	cce2                	sw	s8,88(sp)
800012bc:	8932                	mv	s2,a2
800012be:	89b6                	mv	s3,a3
800012c0:	cae6                	sw	s9,84(sp)
800012c2:	c8ea                	sw	s10,80(sp)
800012c4:	c6ee                	sw	s11,76(sp)
800012c6:	84aa                	mv	s1,a0
800012c8:	503010ef          	jal	ra,80002fca <_localeconv_r>
800012cc:	00052c03          	lw	s8,0(a0)
800012d0:	8562                	mv	a0,s8
800012d2:	14d000ef          	jal	ra,80001c1e <strlen>
800012d6:	00042b03          	lw	s6,0(s0)
800012da:	dc02                	sw	zero,56(sp)
800012dc:	01844a83          	lbu	s5,24(s0)
800012e0:	100b7713          	andi	a4,s6,256
800012e4:	000a2783          	lw	a5,0(s4)
800012e8:	8baa                	mv	s7,a0
800012ea:	cb79                	beqz	a4,800013c0 <_printf_float+0x11e>
800012ec:	00478713          	addi	a4,a5,4
800012f0:	00ea2023          	sw	a4,0(s4)
800012f4:	439c                	lw	a5,0(a5)
800012f6:	1008                	addi	a0,sp,32
800012f8:	4398                	lw	a4,0(a5)
800012fa:	d03a                	sw	a4,32(sp)
800012fc:	43d8                	lw	a4,4(a5)
800012fe:	d23a                	sw	a4,36(sp)
80001300:	4798                	lw	a4,8(a5)
80001302:	d43a                	sw	a4,40(sp)
80001304:	47dc                	lw	a5,12(a5)
80001306:	d63e                	sw	a5,44(sp)
80001308:	09b040ef          	jal	ra,80005ba2 <__trunctfdf2>
8000130c:	c428                	sw	a0,72(s0)
8000130e:	c46c                	sw	a1,76(s0)
80001310:	04c42a03          	lw	s4,76(s0)
80001314:	0ffff717          	auipc	a4,0xffff
80001318:	ecc70713          	addi	a4,a4,-308 # 900001e0 <_impure_ptr+0x8>
8000131c:	04842c83          	lw	s9,72(s0)
80001320:	00072d03          	lw	s10,0(a4)
80001324:	00472d83          	lw	s11,4(a4)
80001328:	001a1793          	slli	a5,s4,0x1
8000132c:	8385                	srli	a5,a5,0x1
8000132e:	866a                	mv	a2,s10
80001330:	86ee                	mv	a3,s11
80001332:	8566                	mv	a0,s9
80001334:	85be                	mv	a1,a5
80001336:	ce3e                	sw	a5,28(sp)
80001338:	718040ef          	jal	ra,80005a50 <__unorddf2>
8000133c:	ed49                	bnez	a0,800013d6 <_printf_float+0x134>
8000133e:	47f2                	lw	a5,28(sp)
80001340:	866a                	mv	a2,s10
80001342:	86ee                	mv	a3,s11
80001344:	8566                	mv	a0,s9
80001346:	85be                	mv	a1,a5
80001348:	409030ef          	jal	ra,80004f50 <__ledf2>
8000134c:	08a05563          	blez	a0,800013d6 <_printf_float+0x134>
80001350:	4601                	li	a2,0
80001352:	4681                	li	a3,0
80001354:	8566                	mv	a0,s9
80001356:	85d2                	mv	a1,s4
80001358:	3f9030ef          	jal	ra,80004f50 <__ledf2>
8000135c:	00055663          	bgez	a0,80001368 <_printf_float+0xc6>
80001360:	02d00793          	li	a5,45
80001364:	04f401a3          	sb	a5,67(s0)
80001368:	04700793          	li	a5,71
8000136c:	00005a17          	auipc	s4,0x5
80001370:	c90a0a13          	addi	s4,s4,-880 # 80005ffc <__clz_tab+0x100>
80001374:	0157f663          	bgeu	a5,s5,80001380 <_printf_float+0xde>
80001378:	00005a17          	auipc	s4,0x5
8000137c:	c88a0a13          	addi	s4,s4,-888 # 80006000 <__clz_tab+0x104>
80001380:	ffbb7b13          	andi	s6,s6,-5
80001384:	478d                	li	a5,3
80001386:	01642023          	sw	s6,0(s0)
8000138a:	c81c                	sw	a5,16(s0)
8000138c:	4b01                	li	s6,0
8000138e:	874e                	mv	a4,s3
80001390:	86ca                	mv	a3,s2
80001392:	1870                	addi	a2,sp,60
80001394:	85a2                	mv	a1,s0
80001396:	8526                	mv	a0,s1
80001398:	2ef9                	jal	80001776 <_printf_common>
8000139a:	5cfd                	li	s9,-1
8000139c:	17951363          	bne	a0,s9,80001502 <_printf_float+0x260>
800013a0:	557d                	li	a0,-1
800013a2:	50f6                	lw	ra,124(sp)
800013a4:	5466                	lw	s0,120(sp)
800013a6:	54d6                	lw	s1,116(sp)
800013a8:	5946                	lw	s2,112(sp)
800013aa:	59b6                	lw	s3,108(sp)
800013ac:	5a26                	lw	s4,104(sp)
800013ae:	5a96                	lw	s5,100(sp)
800013b0:	5b06                	lw	s6,96(sp)
800013b2:	4bf6                	lw	s7,92(sp)
800013b4:	4c66                	lw	s8,88(sp)
800013b6:	4cd6                	lw	s9,84(sp)
800013b8:	4d46                	lw	s10,80(sp)
800013ba:	4db6                	lw	s11,76(sp)
800013bc:	6109                	addi	sp,sp,128
800013be:	8082                	ret
800013c0:	079d                	addi	a5,a5,7
800013c2:	9be1                	andi	a5,a5,-8
800013c4:	00878713          	addi	a4,a5,8
800013c8:	00ea2023          	sw	a4,0(s4)
800013cc:	4398                	lw	a4,0(a5)
800013ce:	43dc                	lw	a5,4(a5)
800013d0:	c438                	sw	a4,72(s0)
800013d2:	c47c                	sw	a5,76(s0)
800013d4:	bf35                	j	80001310 <_printf_float+0x6e>
800013d6:	8666                	mv	a2,s9
800013d8:	86d2                	mv	a3,s4
800013da:	8566                	mv	a0,s9
800013dc:	85d2                	mv	a1,s4
800013de:	672040ef          	jal	ra,80005a50 <__unorddf2>
800013e2:	c505                	beqz	a0,8000140a <_printf_float+0x168>
800013e4:	000a5663          	bgez	s4,800013f0 <_printf_float+0x14e>
800013e8:	02d00793          	li	a5,45
800013ec:	04f401a3          	sb	a5,67(s0)
800013f0:	04700793          	li	a5,71
800013f4:	00005a17          	auipc	s4,0x5
800013f8:	c10a0a13          	addi	s4,s4,-1008 # 80006004 <__clz_tab+0x108>
800013fc:	f957f2e3          	bgeu	a5,s5,80001380 <_printf_float+0xde>
80001400:	00005a17          	auipc	s4,0x5
80001404:	c08a0a13          	addi	s4,s4,-1016 # 80006008 <__clz_tab+0x10c>
80001408:	bfa5                	j	80001380 <_printf_float+0xde>
8000140a:	405c                	lw	a5,4(s0)
8000140c:	577d                	li	a4,-1
8000140e:	0dfafd13          	andi	s10,s5,223
80001412:	08e79363          	bne	a5,a4,80001498 <_printf_float+0x1f6>
80001416:	4799                	li	a5,6
80001418:	c05c                	sw	a5,4(s0)
8000141a:	4054                	lw	a3,4(s0)
8000141c:	400b6713          	ori	a4,s6,1024
80001420:	183c                	addi	a5,sp,56
80001422:	c03e                	sw	a5,0(sp)
80001424:	8652                	mv	a2,s4
80001426:	03310793          	addi	a5,sp,51
8000142a:	85e6                	mv	a1,s9
8000142c:	c018                	sw	a4,0(s0)
8000142e:	c202                	sw	zero,4(sp)
80001430:	88d6                	mv	a7,s5
80001432:	03410813          	addi	a6,sp,52
80001436:	8526                	mv	a0,s1
80001438:	31cd                	jal	8000111a <__cvt>
8000143a:	04700793          	li	a5,71
8000143e:	55d2                	lw	a1,52(sp)
80001440:	8a2a                	mv	s4,a0
80001442:	00fd1b63          	bne	s10,a5,80001458 <_printf_float+0x1b6>
80001446:	57f5                	li	a5,-3
80001448:	00f5c563          	blt	a1,a5,80001452 <_printf_float+0x1b0>
8000144c:	405c                	lw	a5,4(s0)
8000144e:	08b7d763          	bge	a5,a1,800014dc <_printf_float+0x23a>
80001452:	1af9                	addi	s5,s5,-2
80001454:	0ffafa93          	zext.b	s5,s5
80001458:	06500793          	li	a5,101
8000145c:	0557e563          	bltu	a5,s5,800014a6 <_printf_float+0x204>
80001460:	15fd                	addi	a1,a1,-1
80001462:	8656                	mv	a2,s5
80001464:	05040513          	addi	a0,s0,80
80001468:	da2e                	sw	a1,52(sp)
8000146a:	3b71                	jal	80001206 <__exponent>
8000146c:	5762                	lw	a4,56(sp)
8000146e:	4685                	li	a3,1
80001470:	8b2a                	mv	s6,a0
80001472:	00a707b3          	add	a5,a4,a0
80001476:	c81c                	sw	a5,16(s0)
80001478:	00e6c563          	blt	a3,a4,80001482 <_printf_float+0x1e0>
8000147c:	4018                	lw	a4,0(s0)
8000147e:	8b05                	andi	a4,a4,1
80001480:	c319                	beqz	a4,80001486 <_printf_float+0x1e4>
80001482:	0785                	addi	a5,a5,1
80001484:	c81c                	sw	a5,16(s0)
80001486:	03314783          	lbu	a5,51(sp)
8000148a:	f00782e3          	beqz	a5,8000138e <_printf_float+0xec>
8000148e:	02d00793          	li	a5,45
80001492:	04f401a3          	sb	a5,67(s0)
80001496:	bde5                	j	8000138e <_printf_float+0xec>
80001498:	04700713          	li	a4,71
8000149c:	f6ed1fe3          	bne	s10,a4,8000141a <_printf_float+0x178>
800014a0:	ffad                	bnez	a5,8000141a <_printf_float+0x178>
800014a2:	4785                	li	a5,1
800014a4:	bf95                	j	80001418 <_printf_float+0x176>
800014a6:	06600793          	li	a5,102
800014aa:	02fa9b63          	bne	s5,a5,800014e0 <_printf_float+0x23e>
800014ae:	405c                	lw	a5,4(s0)
800014b0:	00b05b63          	blez	a1,800014c6 <_printf_float+0x224>
800014b4:	c80c                	sw	a1,16(s0)
800014b6:	e781                	bnez	a5,800014be <_printf_float+0x21c>
800014b8:	4018                	lw	a4,0(s0)
800014ba:	8b05                	andi	a4,a4,1
800014bc:	cf09                	beqz	a4,800014d6 <_printf_float+0x234>
800014be:	0785                	addi	a5,a5,1
800014c0:	97ae                	add	a5,a5,a1
800014c2:	c81c                	sw	a5,16(s0)
800014c4:	a809                	j	800014d6 <_printf_float+0x234>
800014c6:	e789                	bnez	a5,800014d0 <_printf_float+0x22e>
800014c8:	4018                	lw	a4,0(s0)
800014ca:	4685                	li	a3,1
800014cc:	8b05                	andi	a4,a4,1
800014ce:	c319                	beqz	a4,800014d4 <_printf_float+0x232>
800014d0:	00278693          	addi	a3,a5,2
800014d4:	c814                	sw	a3,16(s0)
800014d6:	cc2c                	sw	a1,88(s0)
800014d8:	4b01                	li	s6,0
800014da:	b775                	j	80001486 <_printf_float+0x1e4>
800014dc:	06700a93          	li	s5,103
800014e0:	57e2                	lw	a5,56(sp)
800014e2:	00f5c963          	blt	a1,a5,800014f4 <_printf_float+0x252>
800014e6:	401c                	lw	a5,0(s0)
800014e8:	c80c                	sw	a1,16(s0)
800014ea:	8b85                	andi	a5,a5,1
800014ec:	d7ed                	beqz	a5,800014d6 <_printf_float+0x234>
800014ee:	00158793          	addi	a5,a1,1
800014f2:	bfc1                	j	800014c2 <_printf_float+0x220>
800014f4:	4705                	li	a4,1
800014f6:	00b04463          	bgtz	a1,800014fe <_printf_float+0x25c>
800014fa:	4709                	li	a4,2
800014fc:	8f0d                	sub	a4,a4,a1
800014fe:	97ba                	add	a5,a5,a4
80001500:	b7c9                	j	800014c2 <_printf_float+0x220>
80001502:	401c                	lw	a5,0(s0)
80001504:	4007f713          	andi	a4,a5,1024
80001508:	e315                	bnez	a4,8000152c <_printf_float+0x28a>
8000150a:	4814                	lw	a3,16(s0)
8000150c:	8652                	mv	a2,s4
8000150e:	85ca                	mv	a1,s2
80001510:	8526                	mv	a0,s1
80001512:	9982                	jalr	s3
80001514:	e99506e3          	beq	a0,s9,800013a0 <_printf_float+0xfe>
80001518:	401c                	lw	a5,0(s0)
8000151a:	8b89                	andi	a5,a5,2
8000151c:	24079863          	bnez	a5,8000176c <_printf_float+0x4ca>
80001520:	57f2                	lw	a5,60(sp)
80001522:	4448                	lw	a0,12(s0)
80001524:	e6f55fe3          	bge	a0,a5,800013a2 <_printf_float+0x100>
80001528:	853e                	mv	a0,a5
8000152a:	bda5                	j	800013a2 <_printf_float+0x100>
8000152c:	06500713          	li	a4,101
80001530:	19577d63          	bgeu	a4,s5,800016ca <_printf_float+0x428>
80001534:	4428                	lw	a0,72(s0)
80001536:	446c                	lw	a1,76(s0)
80001538:	4601                	li	a2,0
8000153a:	4681                	li	a3,0
8000153c:	105030ef          	jal	ra,80004e40 <__eqdf2>
80001540:	e939                	bnez	a0,80001596 <_printf_float+0x2f4>
80001542:	4685                	li	a3,1
80001544:	00005617          	auipc	a2,0x5
80001548:	ac860613          	addi	a2,a2,-1336 # 8000600c <__clz_tab+0x110>
8000154c:	85ca                	mv	a1,s2
8000154e:	8526                	mv	a0,s1
80001550:	9982                	jalr	s3
80001552:	e59507e3          	beq	a0,s9,800013a0 <_printf_float+0xfe>
80001556:	5752                	lw	a4,52(sp)
80001558:	57e2                	lw	a5,56(sp)
8000155a:	00f74563          	blt	a4,a5,80001564 <_printf_float+0x2c2>
8000155e:	401c                	lw	a5,0(s0)
80001560:	8b85                	andi	a5,a5,1
80001562:	dbdd                	beqz	a5,80001518 <_printf_float+0x276>
80001564:	86de                	mv	a3,s7
80001566:	8662                	mv	a2,s8
80001568:	85ca                	mv	a1,s2
8000156a:	8526                	mv	a0,s1
8000156c:	9982                	jalr	s3
8000156e:	57fd                	li	a5,-1
80001570:	e2f508e3          	beq	a0,a5,800013a0 <_printf_float+0xfe>
80001574:	4a01                	li	s4,0
80001576:	01a40a93          	addi	s5,s0,26
8000157a:	5b7d                	li	s6,-1
8000157c:	57e2                	lw	a5,56(sp)
8000157e:	17fd                	addi	a5,a5,-1
80001580:	f8fa5ce3          	bge	s4,a5,80001518 <_printf_float+0x276>
80001584:	4685                	li	a3,1
80001586:	8656                	mv	a2,s5
80001588:	85ca                	mv	a1,s2
8000158a:	8526                	mv	a0,s1
8000158c:	9982                	jalr	s3
8000158e:	e16509e3          	beq	a0,s6,800013a0 <_printf_float+0xfe>
80001592:	0a05                	addi	s4,s4,1
80001594:	b7e5                	j	8000157c <_printf_float+0x2da>
80001596:	57d2                	lw	a5,52(sp)
80001598:	06f04663          	bgtz	a5,80001604 <_printf_float+0x362>
8000159c:	4685                	li	a3,1
8000159e:	00005617          	auipc	a2,0x5
800015a2:	a6e60613          	addi	a2,a2,-1426 # 8000600c <__clz_tab+0x110>
800015a6:	85ca                	mv	a1,s2
800015a8:	8526                	mv	a0,s1
800015aa:	9982                	jalr	s3
800015ac:	df950ae3          	beq	a0,s9,800013a0 <_printf_float+0xfe>
800015b0:	57d2                	lw	a5,52(sp)
800015b2:	5762                	lw	a4,56(sp)
800015b4:	8fd9                	or	a5,a5,a4
800015b6:	e781                	bnez	a5,800015be <_printf_float+0x31c>
800015b8:	401c                	lw	a5,0(s0)
800015ba:	8b85                	andi	a5,a5,1
800015bc:	dfb1                	beqz	a5,80001518 <_printf_float+0x276>
800015be:	86de                	mv	a3,s7
800015c0:	8662                	mv	a2,s8
800015c2:	85ca                	mv	a1,s2
800015c4:	8526                	mv	a0,s1
800015c6:	9982                	jalr	s3
800015c8:	57fd                	li	a5,-1
800015ca:	dcf50be3          	beq	a0,a5,800013a0 <_printf_float+0xfe>
800015ce:	4a81                	li	s5,0
800015d0:	01a40b13          	addi	s6,s0,26
800015d4:	5bfd                	li	s7,-1
800015d6:	57d2                	lw	a5,52(sp)
800015d8:	40f007b3          	neg	a5,a5
800015dc:	00facb63          	blt	s5,a5,800015f2 <_printf_float+0x350>
800015e0:	56e2                	lw	a3,56(sp)
800015e2:	8652                	mv	a2,s4
800015e4:	85ca                	mv	a1,s2
800015e6:	8526                	mv	a0,s1
800015e8:	9982                	jalr	s3
800015ea:	57fd                	li	a5,-1
800015ec:	f2f516e3          	bne	a0,a5,80001518 <_printf_float+0x276>
800015f0:	bb45                	j	800013a0 <_printf_float+0xfe>
800015f2:	4685                	li	a3,1
800015f4:	865a                	mv	a2,s6
800015f6:	85ca                	mv	a1,s2
800015f8:	8526                	mv	a0,s1
800015fa:	9982                	jalr	s3
800015fc:	db7502e3          	beq	a0,s7,800013a0 <_printf_float+0xfe>
80001600:	0a85                	addi	s5,s5,1
80001602:	bfd1                	j	800015d6 <_printf_float+0x334>
80001604:	4c3c                	lw	a5,88(s0)
80001606:	5ae2                	lw	s5,56(sp)
80001608:	0157d363          	bge	a5,s5,8000160e <_printf_float+0x36c>
8000160c:	8abe                	mv	s5,a5
8000160e:	07504963          	bgtz	s5,80001680 <_printf_float+0x3de>
80001612:	4b01                	li	s6,0
80001614:	01a40d13          	addi	s10,s0,26
80001618:	5dfd                	li	s11,-1
8000161a:	05842c83          	lw	s9,88(s0)
8000161e:	87d6                	mv	a5,s5
80001620:	000ad363          	bgez	s5,80001626 <_printf_float+0x384>
80001624:	4781                	li	a5,0
80001626:	40fc87b3          	sub	a5,s9,a5
8000162a:	06fb4463          	blt	s6,a5,80001692 <_printf_float+0x3f0>
8000162e:	5752                	lw	a4,52(sp)
80001630:	57e2                	lw	a5,56(sp)
80001632:	06f74963          	blt	a4,a5,800016a4 <_printf_float+0x402>
80001636:	401c                	lw	a5,0(s0)
80001638:	8b85                	andi	a5,a5,1
8000163a:	e7ad                	bnez	a5,800016a4 <_printf_float+0x402>
8000163c:	5ae2                	lw	s5,56(sp)
8000163e:	5752                	lw	a4,52(sp)
80001640:	419a87b3          	sub	a5,s5,s9
80001644:	40ea8ab3          	sub	s5,s5,a4
80001648:	0157d363          	bge	a5,s5,8000164e <_printf_float+0x3ac>
8000164c:	8abe                	mv	s5,a5
8000164e:	07504463          	bgtz	s5,800016b6 <_printf_float+0x414>
80001652:	4a01                	li	s4,0
80001654:	01a40b13          	addi	s6,s0,26
80001658:	5bfd                	li	s7,-1
8000165a:	5752                	lw	a4,52(sp)
8000165c:	57e2                	lw	a5,56(sp)
8000165e:	8f99                	sub	a5,a5,a4
80001660:	8756                	mv	a4,s5
80001662:	000ad363          	bgez	s5,80001668 <_printf_float+0x3c6>
80001666:	4701                	li	a4,0
80001668:	8f99                	sub	a5,a5,a4
8000166a:	eafa57e3          	bge	s4,a5,80001518 <_printf_float+0x276>
8000166e:	4685                	li	a3,1
80001670:	865a                	mv	a2,s6
80001672:	85ca                	mv	a1,s2
80001674:	8526                	mv	a0,s1
80001676:	9982                	jalr	s3
80001678:	d37504e3          	beq	a0,s7,800013a0 <_printf_float+0xfe>
8000167c:	0a05                	addi	s4,s4,1
8000167e:	bff1                	j	8000165a <_printf_float+0x3b8>
80001680:	86d6                	mv	a3,s5
80001682:	8652                	mv	a2,s4
80001684:	85ca                	mv	a1,s2
80001686:	8526                	mv	a0,s1
80001688:	9982                	jalr	s3
8000168a:	57fd                	li	a5,-1
8000168c:	f8f513e3          	bne	a0,a5,80001612 <_printf_float+0x370>
80001690:	bb01                	j	800013a0 <_printf_float+0xfe>
80001692:	4685                	li	a3,1
80001694:	866a                	mv	a2,s10
80001696:	85ca                	mv	a1,s2
80001698:	8526                	mv	a0,s1
8000169a:	9982                	jalr	s3
8000169c:	d1b502e3          	beq	a0,s11,800013a0 <_printf_float+0xfe>
800016a0:	0b05                	addi	s6,s6,1
800016a2:	bfa5                	j	8000161a <_printf_float+0x378>
800016a4:	86de                	mv	a3,s7
800016a6:	8662                	mv	a2,s8
800016a8:	85ca                	mv	a1,s2
800016aa:	8526                	mv	a0,s1
800016ac:	9982                	jalr	s3
800016ae:	57fd                	li	a5,-1
800016b0:	f8f516e3          	bne	a0,a5,8000163c <_printf_float+0x39a>
800016b4:	b1f5                	j	800013a0 <_printf_float+0xfe>
800016b6:	86d6                	mv	a3,s5
800016b8:	019a0633          	add	a2,s4,s9
800016bc:	85ca                	mv	a1,s2
800016be:	8526                	mv	a0,s1
800016c0:	9982                	jalr	s3
800016c2:	57fd                	li	a5,-1
800016c4:	f8f517e3          	bne	a0,a5,80001652 <_printf_float+0x3b0>
800016c8:	b9e1                	j	800013a0 <_printf_float+0xfe>
800016ca:	56e2                	lw	a3,56(sp)
800016cc:	4705                	li	a4,1
800016ce:	00d74463          	blt	a4,a3,800016d6 <_printf_float+0x434>
800016d2:	8b85                	andi	a5,a5,1
800016d4:	c7b5                	beqz	a5,80001740 <_printf_float+0x49e>
800016d6:	4685                	li	a3,1
800016d8:	8652                	mv	a2,s4
800016da:	85ca                	mv	a1,s2
800016dc:	8526                	mv	a0,s1
800016de:	9982                	jalr	s3
800016e0:	5afd                	li	s5,-1
800016e2:	cb550fe3          	beq	a0,s5,800013a0 <_printf_float+0xfe>
800016e6:	86de                	mv	a3,s7
800016e8:	8662                	mv	a2,s8
800016ea:	85ca                	mv	a1,s2
800016ec:	8526                	mv	a0,s1
800016ee:	9982                	jalr	s3
800016f0:	cb5508e3          	beq	a0,s5,800013a0 <_printf_float+0xfe>
800016f4:	4428                	lw	a0,72(s0)
800016f6:	446c                	lw	a1,76(s0)
800016f8:	4601                	li	a2,0
800016fa:	4681                	li	a3,0
800016fc:	744030ef          	jal	ra,80004e40 <__eqdf2>
80001700:	c91d                	beqz	a0,80001736 <_printf_float+0x494>
80001702:	56e2                	lw	a3,56(sp)
80001704:	001a0613          	addi	a2,s4,1
80001708:	85ca                	mv	a1,s2
8000170a:	16fd                	addi	a3,a3,-1
8000170c:	8526                	mv	a0,s1
8000170e:	9982                	jalr	s3
80001710:	c95508e3          	beq	a0,s5,800013a0 <_printf_float+0xfe>
80001714:	86da                	mv	a3,s6
80001716:	05040613          	addi	a2,s0,80
8000171a:	b5e9                	j	800015e4 <_printf_float+0x342>
8000171c:	4685                	li	a3,1
8000171e:	8656                	mv	a2,s5
80001720:	85ca                	mv	a1,s2
80001722:	8526                	mv	a0,s1
80001724:	9982                	jalr	s3
80001726:	c7750de3          	beq	a0,s7,800013a0 <_printf_float+0xfe>
8000172a:	0a05                	addi	s4,s4,1
8000172c:	57e2                	lw	a5,56(sp)
8000172e:	17fd                	addi	a5,a5,-1
80001730:	fefa46e3          	blt	s4,a5,8000171c <_printf_float+0x47a>
80001734:	b7c5                	j	80001714 <_printf_float+0x472>
80001736:	4a01                	li	s4,0
80001738:	01a40a93          	addi	s5,s0,26
8000173c:	5bfd                	li	s7,-1
8000173e:	b7fd                	j	8000172c <_printf_float+0x48a>
80001740:	4685                	li	a3,1
80001742:	8652                	mv	a2,s4
80001744:	85ca                	mv	a1,s2
80001746:	8526                	mv	a0,s1
80001748:	9982                	jalr	s3
8000174a:	fd9515e3          	bne	a0,s9,80001714 <_printf_float+0x472>
8000174e:	b989                	j	800013a0 <_printf_float+0xfe>
80001750:	4685                	li	a3,1
80001752:	8656                	mv	a2,s5
80001754:	85ca                	mv	a1,s2
80001756:	8526                	mv	a0,s1
80001758:	9982                	jalr	s3
8000175a:	c56503e3          	beq	a0,s6,800013a0 <_printf_float+0xfe>
8000175e:	0a05                	addi	s4,s4,1
80001760:	445c                	lw	a5,12(s0)
80001762:	5772                	lw	a4,60(sp)
80001764:	8f99                	sub	a5,a5,a4
80001766:	fefa45e3          	blt	s4,a5,80001750 <_printf_float+0x4ae>
8000176a:	bb5d                	j	80001520 <_printf_float+0x27e>
8000176c:	4a01                	li	s4,0
8000176e:	01940a93          	addi	s5,s0,25
80001772:	5b7d                	li	s6,-1
80001774:	b7f5                	j	80001760 <_printf_float+0x4be>

80001776 <_printf_common>:
_printf_common():
80001776:	7179                	addi	sp,sp,-48
80001778:	cc52                	sw	s4,24(sp)
8000177a:	499c                	lw	a5,16(a1)
8000177c:	8a3a                	mv	s4,a4
8000177e:	4598                	lw	a4,8(a1)
80001780:	d422                	sw	s0,40(sp)
80001782:	d226                	sw	s1,36(sp)
80001784:	ce4e                	sw	s3,28(sp)
80001786:	ca56                	sw	s5,20(sp)
80001788:	d606                	sw	ra,44(sp)
8000178a:	d04a                	sw	s2,32(sp)
8000178c:	c85a                	sw	s6,16(sp)
8000178e:	c65e                	sw	s7,12(sp)
80001790:	89aa                	mv	s3,a0
80001792:	842e                	mv	s0,a1
80001794:	84b2                	mv	s1,a2
80001796:	8ab6                	mv	s5,a3
80001798:	00e7d363          	bge	a5,a4,8000179e <_printf_common+0x28>
8000179c:	87ba                	mv	a5,a4
8000179e:	c09c                	sw	a5,0(s1)
800017a0:	04344703          	lbu	a4,67(s0)
800017a4:	c319                	beqz	a4,800017aa <_printf_common+0x34>
800017a6:	0785                	addi	a5,a5,1
800017a8:	c09c                	sw	a5,0(s1)
800017aa:	401c                	lw	a5,0(s0)
800017ac:	0207f793          	andi	a5,a5,32
800017b0:	c781                	beqz	a5,800017b8 <_printf_common+0x42>
800017b2:	409c                	lw	a5,0(s1)
800017b4:	0789                	addi	a5,a5,2
800017b6:	c09c                	sw	a5,0(s1)
800017b8:	00042903          	lw	s2,0(s0)
800017bc:	00697913          	andi	s2,s2,6
800017c0:	00091a63          	bnez	s2,800017d4 <_printf_common+0x5e>
800017c4:	01940b13          	addi	s6,s0,25
800017c8:	5bfd                	li	s7,-1
800017ca:	445c                	lw	a5,12(s0)
800017cc:	4098                	lw	a4,0(s1)
800017ce:	8f99                	sub	a5,a5,a4
800017d0:	04f94c63          	blt	s2,a5,80001828 <_printf_common+0xb2>
800017d4:	04344783          	lbu	a5,67(s0)
800017d8:	00f036b3          	snez	a3,a5
800017dc:	401c                	lw	a5,0(s0)
800017de:	0207f793          	andi	a5,a5,32
800017e2:	eba5                	bnez	a5,80001852 <_printf_common+0xdc>
800017e4:	04340613          	addi	a2,s0,67
800017e8:	85d6                	mv	a1,s5
800017ea:	854e                	mv	a0,s3
800017ec:	9a02                	jalr	s4
800017ee:	57fd                	li	a5,-1
800017f0:	04f50363          	beq	a0,a5,80001836 <_printf_common+0xc0>
800017f4:	401c                	lw	a5,0(s0)
800017f6:	4611                	li	a2,4
800017f8:	4098                	lw	a4,0(s1)
800017fa:	8b99                	andi	a5,a5,6
800017fc:	4454                	lw	a3,12(s0)
800017fe:	4481                	li	s1,0
80001800:	00c79763          	bne	a5,a2,8000180e <_printf_common+0x98>
80001804:	40e684b3          	sub	s1,a3,a4
80001808:	0004d363          	bgez	s1,8000180e <_printf_common+0x98>
8000180c:	4481                	li	s1,0
8000180e:	441c                	lw	a5,8(s0)
80001810:	4818                	lw	a4,16(s0)
80001812:	00f75463          	bge	a4,a5,8000181a <_printf_common+0xa4>
80001816:	8f99                	sub	a5,a5,a4
80001818:	94be                	add	s1,s1,a5
8000181a:	4901                	li	s2,0
8000181c:	0469                	addi	s0,s0,26
8000181e:	5b7d                	li	s6,-1
80001820:	05249863          	bne	s1,s2,80001870 <_printf_common+0xfa>
80001824:	4501                	li	a0,0
80001826:	a809                	j	80001838 <_printf_common+0xc2>
80001828:	4685                	li	a3,1
8000182a:	865a                	mv	a2,s6
8000182c:	85d6                	mv	a1,s5
8000182e:	854e                	mv	a0,s3
80001830:	9a02                	jalr	s4
80001832:	01751e63          	bne	a0,s7,8000184e <_printf_common+0xd8>
80001836:	557d                	li	a0,-1
80001838:	50b2                	lw	ra,44(sp)
8000183a:	5422                	lw	s0,40(sp)
8000183c:	5492                	lw	s1,36(sp)
8000183e:	5902                	lw	s2,32(sp)
80001840:	49f2                	lw	s3,28(sp)
80001842:	4a62                	lw	s4,24(sp)
80001844:	4ad2                	lw	s5,20(sp)
80001846:	4b42                	lw	s6,16(sp)
80001848:	4bb2                	lw	s7,12(sp)
8000184a:	6145                	addi	sp,sp,48
8000184c:	8082                	ret
8000184e:	0905                	addi	s2,s2,1
80001850:	bfad                	j	800017ca <_printf_common+0x54>
80001852:	00d40733          	add	a4,s0,a3
80001856:	03000613          	li	a2,48
8000185a:	04c701a3          	sb	a2,67(a4)
8000185e:	04544703          	lbu	a4,69(s0)
80001862:	00168793          	addi	a5,a3,1
80001866:	97a2                	add	a5,a5,s0
80001868:	0689                	addi	a3,a3,2
8000186a:	04e781a3          	sb	a4,67(a5)
8000186e:	bf9d                	j	800017e4 <_printf_common+0x6e>
80001870:	4685                	li	a3,1
80001872:	8622                	mv	a2,s0
80001874:	85d6                	mv	a1,s5
80001876:	854e                	mv	a0,s3
80001878:	9a02                	jalr	s4
8000187a:	fb650ee3          	beq	a0,s6,80001836 <_printf_common+0xc0>
8000187e:	0905                	addi	s2,s2,1
80001880:	b745                	j	80001820 <_printf_common+0xaa>

80001882 <_printf_i>:
_printf_i():
80001882:	7179                	addi	sp,sp,-48
80001884:	d422                	sw	s0,40(sp)
80001886:	d226                	sw	s1,36(sp)
80001888:	d04a                	sw	s2,32(sp)
8000188a:	ce4e                	sw	s3,28(sp)
8000188c:	d606                	sw	ra,44(sp)
8000188e:	cc52                	sw	s4,24(sp)
80001890:	ca56                	sw	s5,20(sp)
80001892:	c85a                	sw	s6,16(sp)
80001894:	0185c803          	lbu	a6,24(a1)
80001898:	07800793          	li	a5,120
8000189c:	84aa                	mv	s1,a0
8000189e:	842e                	mv	s0,a1
800018a0:	8932                	mv	s2,a2
800018a2:	89b6                	mv	s3,a3
800018a4:	0107ee63          	bltu	a5,a6,800018c0 <_printf_i+0x3e>
800018a8:	06200793          	li	a5,98
800018ac:	04358693          	addi	a3,a1,67
800018b0:	0107ed63          	bltu	a5,a6,800018ca <_printf_i+0x48>
800018b4:	1c080563          	beqz	a6,80001a7e <_printf_i+0x1fc>
800018b8:	05800793          	li	a5,88
800018bc:	12f80a63          	beq	a6,a5,800019f0 <_printf_i+0x16e>
800018c0:	04240a93          	addi	s5,s0,66
800018c4:	05040123          	sb	a6,66(s0)
800018c8:	a815                	j	800018fc <_printf_i+0x7a>
800018ca:	f9d80793          	addi	a5,a6,-99
800018ce:	0ff7f793          	zext.b	a5,a5
800018d2:	4655                	li	a2,21
800018d4:	fef666e3          	bltu	a2,a5,800018c0 <_printf_i+0x3e>
800018d8:	00004617          	auipc	a2,0x4
800018dc:	76060613          	addi	a2,a2,1888 # 80006038 <__clz_tab+0x13c>
800018e0:	078a                	slli	a5,a5,0x2
800018e2:	97b2                	add	a5,a5,a2
800018e4:	439c                	lw	a5,0(a5)
800018e6:	97b2                	add	a5,a5,a2
800018e8:	8782                	jr	a5
800018ea:	431c                	lw	a5,0(a4)
800018ec:	04258a93          	addi	s5,a1,66
800018f0:	00478693          	addi	a3,a5,4
800018f4:	439c                	lw	a5,0(a5)
800018f6:	c314                	sw	a3,0(a4)
800018f8:	04f58123          	sb	a5,66(a1)
800018fc:	4785                	li	a5,1
800018fe:	a265                	j	80001aa6 <_printf_i+0x224>
80001900:	419c                	lw	a5,0(a1)
80001902:	4308                	lw	a0,0(a4)
80001904:	0807f613          	andi	a2,a5,128
80001908:	00450593          	addi	a1,a0,4
8000190c:	c20d                	beqz	a2,8000192e <_printf_i+0xac>
8000190e:	411c                	lw	a5,0(a0)
80001910:	c30c                	sw	a1,0(a4)
80001912:	0007d863          	bgez	a5,80001922 <_printf_i+0xa0>
80001916:	02d00713          	li	a4,45
8000191a:	40f007b3          	neg	a5,a5
8000191e:	04e401a3          	sb	a4,67(s0)
80001922:	00004617          	auipc	a2,0x4
80001926:	6ee60613          	addi	a2,a2,1774 # 80006010 <__clz_tab+0x114>
8000192a:	4829                	li	a6,10
8000192c:	a0a1                	j	80001974 <_printf_i+0xf2>
8000192e:	0407f613          	andi	a2,a5,64
80001932:	411c                	lw	a5,0(a0)
80001934:	c30c                	sw	a1,0(a4)
80001936:	de71                	beqz	a2,80001912 <_printf_i+0x90>
80001938:	07c2                	slli	a5,a5,0x10
8000193a:	87c1                	srai	a5,a5,0x10
8000193c:	bfd9                	j	80001912 <_printf_i+0x90>
8000193e:	4190                	lw	a2,0(a1)
80001940:	431c                	lw	a5,0(a4)
80001942:	08067513          	andi	a0,a2,128
80001946:	00478593          	addi	a1,a5,4
8000194a:	c501                	beqz	a0,80001952 <_printf_i+0xd0>
8000194c:	c30c                	sw	a1,0(a4)
8000194e:	439c                	lw	a5,0(a5)
80001950:	a039                	j	8000195e <_printf_i+0xdc>
80001952:	04067613          	andi	a2,a2,64
80001956:	c30c                	sw	a1,0(a4)
80001958:	da7d                	beqz	a2,8000194e <_printf_i+0xcc>
8000195a:	0007d783          	lhu	a5,0(a5)
8000195e:	06f00713          	li	a4,111
80001962:	00004617          	auipc	a2,0x4
80001966:	6ae60613          	addi	a2,a2,1710 # 80006010 <__clz_tab+0x114>
8000196a:	0ee80463          	beq	a6,a4,80001a52 <_printf_i+0x1d0>
8000196e:	4829                	li	a6,10
80001970:	040401a3          	sb	zero,67(s0)
80001974:	4058                	lw	a4,4(s0)
80001976:	c418                	sw	a4,8(s0)
80001978:	00074563          	bltz	a4,80001982 <_printf_i+0x100>
8000197c:	400c                	lw	a1,0(s0)
8000197e:	99ed                	andi	a1,a1,-5
80001980:	c00c                	sw	a1,0(s0)
80001982:	e399                	bnez	a5,80001988 <_printf_i+0x106>
80001984:	8ab6                	mv	s5,a3
80001986:	cf19                	beqz	a4,800019a4 <_printf_i+0x122>
80001988:	8ab6                	mv	s5,a3
8000198a:	0307f733          	remu	a4,a5,a6
8000198e:	1afd                	addi	s5,s5,-1
80001990:	9732                	add	a4,a4,a2
80001992:	00074703          	lbu	a4,0(a4)
80001996:	00ea8023          	sb	a4,0(s5)
8000199a:	873e                	mv	a4,a5
8000199c:	0307d7b3          	divu	a5,a5,a6
800019a0:	ff0775e3          	bgeu	a4,a6,8000198a <_printf_i+0x108>
800019a4:	47a1                	li	a5,8
800019a6:	00f81e63          	bne	a6,a5,800019c2 <_printf_i+0x140>
800019aa:	401c                	lw	a5,0(s0)
800019ac:	8b85                	andi	a5,a5,1
800019ae:	cb91                	beqz	a5,800019c2 <_printf_i+0x140>
800019b0:	4058                	lw	a4,4(s0)
800019b2:	481c                	lw	a5,16(s0)
800019b4:	00e7c763          	blt	a5,a4,800019c2 <_printf_i+0x140>
800019b8:	03000793          	li	a5,48
800019bc:	fefa8fa3          	sb	a5,-1(s5)
800019c0:	1afd                	addi	s5,s5,-1
800019c2:	415686b3          	sub	a3,a3,s5
800019c6:	c814                	sw	a3,16(s0)
800019c8:	874e                	mv	a4,s3
800019ca:	86ca                	mv	a3,s2
800019cc:	0070                	addi	a2,sp,12
800019ce:	85a2                	mv	a1,s0
800019d0:	8526                	mv	a0,s1
800019d2:	3355                	jal	80001776 <_printf_common>
800019d4:	5a7d                	li	s4,-1
800019d6:	0d451c63          	bne	a0,s4,80001aae <_printf_i+0x22c>
800019da:	557d                	li	a0,-1
800019dc:	50b2                	lw	ra,44(sp)
800019de:	5422                	lw	s0,40(sp)
800019e0:	5492                	lw	s1,36(sp)
800019e2:	5902                	lw	s2,32(sp)
800019e4:	49f2                	lw	s3,28(sp)
800019e6:	4a62                	lw	s4,24(sp)
800019e8:	4ad2                	lw	s5,20(sp)
800019ea:	4b42                	lw	s6,16(sp)
800019ec:	6145                	addi	sp,sp,48
800019ee:	8082                	ret
800019f0:	050582a3          	sb	a6,69(a1)
800019f4:	00004617          	auipc	a2,0x4
800019f8:	61c60613          	addi	a2,a2,1564 # 80006010 <__clz_tab+0x114>
800019fc:	400c                	lw	a1,0(s0)
800019fe:	4308                	lw	a0,0(a4)
80001a00:	0805f813          	andi	a6,a1,128
80001a04:	411c                	lw	a5,0(a0)
80001a06:	0511                	addi	a0,a0,4
80001a08:	02080d63          	beqz	a6,80001a42 <_printf_i+0x1c0>
80001a0c:	c308                	sw	a0,0(a4)
80001a0e:	0015f713          	andi	a4,a1,1
80001a12:	c701                	beqz	a4,80001a1a <_printf_i+0x198>
80001a14:	0205e593          	ori	a1,a1,32
80001a18:	c00c                	sw	a1,0(s0)
80001a1a:	4841                	li	a6,16
80001a1c:	fbb1                	bnez	a5,80001970 <_printf_i+0xee>
80001a1e:	4018                	lw	a4,0(s0)
80001a20:	fdf77713          	andi	a4,a4,-33
80001a24:	c018                	sw	a4,0(s0)
80001a26:	b7a9                	j	80001970 <_printf_i+0xee>
80001a28:	419c                	lw	a5,0(a1)
80001a2a:	0207e793          	ori	a5,a5,32
80001a2e:	c19c                	sw	a5,0(a1)
80001a30:	07800793          	li	a5,120
80001a34:	04f402a3          	sb	a5,69(s0)
80001a38:	00004617          	auipc	a2,0x4
80001a3c:	5ec60613          	addi	a2,a2,1516 # 80006024 <__clz_tab+0x128>
80001a40:	bf75                	j	800019fc <_printf_i+0x17a>
80001a42:	0405f813          	andi	a6,a1,64
80001a46:	c308                	sw	a0,0(a4)
80001a48:	fc0803e3          	beqz	a6,80001a0e <_printf_i+0x18c>
80001a4c:	07c2                	slli	a5,a5,0x10
80001a4e:	83c1                	srli	a5,a5,0x10
80001a50:	bf7d                	j	80001a0e <_printf_i+0x18c>
80001a52:	4821                	li	a6,8
80001a54:	bf31                	j	80001970 <_printf_i+0xee>
80001a56:	4190                	lw	a2,0(a1)
80001a58:	431c                	lw	a5,0(a4)
80001a5a:	49cc                	lw	a1,20(a1)
80001a5c:	08067813          	andi	a6,a2,128
80001a60:	00478513          	addi	a0,a5,4
80001a64:	00080663          	beqz	a6,80001a70 <_printf_i+0x1ee>
80001a68:	c308                	sw	a0,0(a4)
80001a6a:	439c                	lw	a5,0(a5)
80001a6c:	c38c                	sw	a1,0(a5)
80001a6e:	a801                	j	80001a7e <_printf_i+0x1fc>
80001a70:	c308                	sw	a0,0(a4)
80001a72:	04067613          	andi	a2,a2,64
80001a76:	439c                	lw	a5,0(a5)
80001a78:	da75                	beqz	a2,80001a6c <_printf_i+0x1ea>
80001a7a:	00b79023          	sh	a1,0(a5)
80001a7e:	00042823          	sw	zero,16(s0)
80001a82:	8ab6                	mv	s5,a3
80001a84:	b791                	j	800019c8 <_printf_i+0x146>
80001a86:	431c                	lw	a5,0(a4)
80001a88:	41d0                	lw	a2,4(a1)
80001a8a:	4581                	li	a1,0
80001a8c:	00478693          	addi	a3,a5,4
80001a90:	c314                	sw	a3,0(a4)
80001a92:	0007aa83          	lw	s5,0(a5)
80001a96:	8556                	mv	a0,s5
80001a98:	646010ef          	jal	ra,800030de <memchr>
80001a9c:	c501                	beqz	a0,80001aa4 <_printf_i+0x222>
80001a9e:	41550533          	sub	a0,a0,s5
80001aa2:	c048                	sw	a0,4(s0)
80001aa4:	405c                	lw	a5,4(s0)
80001aa6:	c81c                	sw	a5,16(s0)
80001aa8:	040401a3          	sb	zero,67(s0)
80001aac:	bf31                	j	800019c8 <_printf_i+0x146>
80001aae:	4814                	lw	a3,16(s0)
80001ab0:	8656                	mv	a2,s5
80001ab2:	85ca                	mv	a1,s2
80001ab4:	8526                	mv	a0,s1
80001ab6:	9982                	jalr	s3
80001ab8:	f34501e3          	beq	a0,s4,800019da <_printf_i+0x158>
80001abc:	401c                	lw	a5,0(s0)
80001abe:	8b89                	andi	a5,a5,2
80001ac0:	e78d                	bnez	a5,80001aea <_printf_i+0x268>
80001ac2:	47b2                	lw	a5,12(sp)
80001ac4:	4448                	lw	a0,12(s0)
80001ac6:	f0f55be3          	bge	a0,a5,800019dc <_printf_i+0x15a>
80001aca:	853e                	mv	a0,a5
80001acc:	bf01                	j	800019dc <_printf_i+0x15a>
80001ace:	4685                	li	a3,1
80001ad0:	8656                	mv	a2,s5
80001ad2:	85ca                	mv	a1,s2
80001ad4:	8526                	mv	a0,s1
80001ad6:	9982                	jalr	s3
80001ad8:	f16501e3          	beq	a0,s6,800019da <_printf_i+0x158>
80001adc:	0a05                	addi	s4,s4,1
80001ade:	445c                	lw	a5,12(s0)
80001ae0:	4732                	lw	a4,12(sp)
80001ae2:	8f99                	sub	a5,a5,a4
80001ae4:	fefa45e3          	blt	s4,a5,80001ace <_printf_i+0x24c>
80001ae8:	bfe9                	j	80001ac2 <_printf_i+0x240>
80001aea:	4a01                	li	s4,0
80001aec:	01940a93          	addi	s5,s0,25
80001af0:	5b7d                	li	s6,-1
80001af2:	b7f5                	j	80001ade <_printf_i+0x25c>

80001af4 <iprintf>:
printf():
80001af4:	715d                	addi	sp,sp,-80
80001af6:	d422                	sw	s0,40(sp)
80001af8:	d606                	sw	ra,44(sp)
80001afa:	842a                	mv	s0,a0
80001afc:	da2e                	sw	a1,52(sp)
80001afe:	dc32                	sw	a2,56(sp)
80001b00:	de36                	sw	a3,60(sp)
80001b02:	c0ba                	sw	a4,64(sp)
80001b04:	c2be                	sw	a5,68(sp)
80001b06:	c4c2                	sw	a6,72(sp)
80001b08:	c6c6                	sw	a7,76(sp)
80001b0a:	0fffe517          	auipc	a0,0xfffe
80001b0e:	6ce52503          	lw	a0,1742(a0) # 900001d8 <_impure_ptr>
80001b12:	c519                	beqz	a0,80001b20 <iprintf+0x2c>
80001b14:	4d1c                	lw	a5,24(a0)
80001b16:	e789                	bnez	a5,80001b20 <iprintf+0x2c>
80001b18:	c62a                	sw	a0,12(sp)
80001b1a:	348010ef          	jal	ra,80002e62 <__sinit>
80001b1e:	4532                	lw	a0,12(sp)
80001b20:	450c                	lw	a1,8(a0)
80001b22:	1854                	addi	a3,sp,52
80001b24:	8622                	mv	a2,s0
80001b26:	ce36                	sw	a3,28(sp)
80001b28:	1e4020ef          	jal	ra,80003d0c <_vfiprintf_r>
80001b2c:	50b2                	lw	ra,44(sp)
80001b2e:	5422                	lw	s0,40(sp)
80001b30:	6161                	addi	sp,sp,80
80001b32:	8082                	ret

80001b34 <_puts_r>:
_puts_r():
80001b34:	1101                	addi	sp,sp,-32
80001b36:	ca26                	sw	s1,20(sp)
80001b38:	c84a                	sw	s2,16(sp)
80001b3a:	ce06                	sw	ra,28(sp)
80001b3c:	cc22                	sw	s0,24(sp)
80001b3e:	c64e                	sw	s3,12(sp)
80001b40:	c452                	sw	s4,8(sp)
80001b42:	84aa                	mv	s1,a0
80001b44:	892e                	mv	s2,a1
80001b46:	c509                	beqz	a0,80001b50 <_puts_r+0x1c>
80001b48:	4d1c                	lw	a5,24(a0)
80001b4a:	e399                	bnez	a5,80001b50 <_puts_r+0x1c>
80001b4c:	316010ef          	jal	ra,80002e62 <__sinit>
80001b50:	4c9c                	lw	a5,24(s1)
80001b52:	4480                	lw	s0,8(s1)
80001b54:	e781                	bnez	a5,80001b5c <_puts_r+0x28>
80001b56:	8526                	mv	a0,s1
80001b58:	30a010ef          	jal	ra,80002e62 <__sinit>
80001b5c:	00004797          	auipc	a5,0x4
80001b60:	5e478793          	addi	a5,a5,1508 # 80006140 <__sf_fake_stdin>
80001b64:	02f41c63          	bne	s0,a5,80001b9c <_puts_r+0x68>
80001b68:	40c0                	lw	s0,4(s1)
80001b6a:	00c45783          	lhu	a5,12(s0)
80001b6e:	8ba1                	andi	a5,a5,8
80001b70:	c7b1                	beqz	a5,80001bbc <_puts_r+0x88>
80001b72:	481c                	lw	a5,16(s0)
80001b74:	c7a1                	beqz	a5,80001bbc <_puts_r+0x88>
80001b76:	59fd                	li	s3,-1
80001b78:	4a29                	li	s4,10
80001b7a:	441c                	lw	a5,8(s0)
80001b7c:	00094583          	lbu	a1,0(s2)
80001b80:	17fd                	addi	a5,a5,-1
80001b82:	e9b1                	bnez	a1,80001bd6 <_puts_r+0xa2>
80001b84:	c41c                	sw	a5,8(s0)
80001b86:	0607de63          	bgez	a5,80001c02 <_puts_r+0xce>
80001b8a:	8622                	mv	a2,s0
80001b8c:	45a9                	li	a1,10
80001b8e:	8526                	mv	a0,s1
80001b90:	2055                	jal	80001c34 <__swbuf_r>
80001b92:	57fd                	li	a5,-1
80001b94:	02f50863          	beq	a0,a5,80001bc4 <_puts_r+0x90>
80001b98:	4529                	li	a0,10
80001b9a:	a035                	j	80001bc6 <_puts_r+0x92>
80001b9c:	00004797          	auipc	a5,0x4
80001ba0:	5c478793          	addi	a5,a5,1476 # 80006160 <__sf_fake_stdout>
80001ba4:	00f41463          	bne	s0,a5,80001bac <_puts_r+0x78>
80001ba8:	4480                	lw	s0,8(s1)
80001baa:	b7c1                	j	80001b6a <_puts_r+0x36>
80001bac:	00004797          	auipc	a5,0x4
80001bb0:	57478793          	addi	a5,a5,1396 # 80006120 <__sf_fake_stderr>
80001bb4:	faf41be3          	bne	s0,a5,80001b6a <_puts_r+0x36>
80001bb8:	44c0                	lw	s0,12(s1)
80001bba:	bf45                	j	80001b6a <_puts_r+0x36>
80001bbc:	85a2                	mv	a1,s0
80001bbe:	8526                	mv	a0,s1
80001bc0:	2a2d                	jal	80001cfa <__swsetup_r>
80001bc2:	d955                	beqz	a0,80001b76 <_puts_r+0x42>
80001bc4:	557d                	li	a0,-1
80001bc6:	40f2                	lw	ra,28(sp)
80001bc8:	4462                	lw	s0,24(sp)
80001bca:	44d2                	lw	s1,20(sp)
80001bcc:	4942                	lw	s2,16(sp)
80001bce:	49b2                	lw	s3,12(sp)
80001bd0:	4a22                	lw	s4,8(sp)
80001bd2:	6105                	addi	sp,sp,32
80001bd4:	8082                	ret
80001bd6:	c41c                	sw	a5,8(s0)
80001bd8:	0905                	addi	s2,s2,1
80001bda:	0007d763          	bgez	a5,80001be8 <_puts_r+0xb4>
80001bde:	4c18                	lw	a4,24(s0)
80001be0:	00e7cb63          	blt	a5,a4,80001bf6 <_puts_r+0xc2>
80001be4:	01458963          	beq	a1,s4,80001bf6 <_puts_r+0xc2>
80001be8:	401c                	lw	a5,0(s0)
80001bea:	00178713          	addi	a4,a5,1
80001bee:	c018                	sw	a4,0(s0)
80001bf0:	00b78023          	sb	a1,0(a5)
80001bf4:	b759                	j	80001b7a <_puts_r+0x46>
80001bf6:	8622                	mv	a2,s0
80001bf8:	8526                	mv	a0,s1
80001bfa:	282d                	jal	80001c34 <__swbuf_r>
80001bfc:	f7351fe3          	bne	a0,s3,80001b7a <_puts_r+0x46>
80001c00:	b7d1                	j	80001bc4 <_puts_r+0x90>
80001c02:	401c                	lw	a5,0(s0)
80001c04:	00178713          	addi	a4,a5,1
80001c08:	c018                	sw	a4,0(s0)
80001c0a:	4729                	li	a4,10
80001c0c:	00e78023          	sb	a4,0(a5)
80001c10:	b761                	j	80001b98 <_puts_r+0x64>

80001c12 <puts>:
puts():
80001c12:	85aa                	mv	a1,a0
80001c14:	0fffe517          	auipc	a0,0xfffe
80001c18:	5c452503          	lw	a0,1476(a0) # 900001d8 <_impure_ptr>
80001c1c:	bf21                	j	80001b34 <_puts_r>

80001c1e <strlen>:
strlen():
80001c1e:	87aa                	mv	a5,a0
80001c20:	0007c703          	lbu	a4,0(a5)
80001c24:	0785                	addi	a5,a5,1
80001c26:	ff6d                	bnez	a4,80001c20 <strlen+0x2>
80001c28:	40a78533          	sub	a0,a5,a0
80001c2c:	157d                	addi	a0,a0,-1
80001c2e:	8082                	ret

80001c30 <isatty>:
isatty():
80001c30:	d30fe06f          	j	80000160 <_isatty>

80001c34 <__swbuf_r>:
__swbuf_r():
80001c34:	1101                	addi	sp,sp,-32
80001c36:	cc22                	sw	s0,24(sp)
80001c38:	ca26                	sw	s1,20(sp)
80001c3a:	c84a                	sw	s2,16(sp)
80001c3c:	ce06                	sw	ra,28(sp)
80001c3e:	c64e                	sw	s3,12(sp)
80001c40:	84aa                	mv	s1,a0
80001c42:	892e                	mv	s2,a1
80001c44:	8432                	mv	s0,a2
80001c46:	c509                	beqz	a0,80001c50 <__swbuf_r+0x1c>
80001c48:	4d1c                	lw	a5,24(a0)
80001c4a:	e399                	bnez	a5,80001c50 <__swbuf_r+0x1c>
80001c4c:	216010ef          	jal	ra,80002e62 <__sinit>
80001c50:	00004797          	auipc	a5,0x4
80001c54:	4f078793          	addi	a5,a5,1264 # 80006140 <__sf_fake_stdin>
80001c58:	06f41b63          	bne	s0,a5,80001cce <__swbuf_r+0x9a>
80001c5c:	40c0                	lw	s0,4(s1)
80001c5e:	4c1c                	lw	a5,24(s0)
80001c60:	c41c                	sw	a5,8(s0)
80001c62:	00c45783          	lhu	a5,12(s0)
80001c66:	8ba1                	andi	a5,a5,8
80001c68:	c3d9                	beqz	a5,80001cee <__swbuf_r+0xba>
80001c6a:	481c                	lw	a5,16(s0)
80001c6c:	c3c9                	beqz	a5,80001cee <__swbuf_r+0xba>
80001c6e:	481c                	lw	a5,16(s0)
80001c70:	4008                	lw	a0,0(s0)
80001c72:	0ff97993          	zext.b	s3,s2
80001c76:	0ff97913          	zext.b	s2,s2
80001c7a:	8d1d                	sub	a0,a0,a5
80001c7c:	485c                	lw	a5,20(s0)
80001c7e:	00f54763          	blt	a0,a5,80001c8c <__swbuf_r+0x58>
80001c82:	85a2                	mv	a1,s0
80001c84:	8526                	mv	a0,s1
80001c86:	0c0010ef          	jal	ra,80002d46 <_fflush_r>
80001c8a:	e535                	bnez	a0,80001cf6 <__swbuf_r+0xc2>
80001c8c:	441c                	lw	a5,8(s0)
80001c8e:	0505                	addi	a0,a0,1
80001c90:	17fd                	addi	a5,a5,-1
80001c92:	c41c                	sw	a5,8(s0)
80001c94:	401c                	lw	a5,0(s0)
80001c96:	00178713          	addi	a4,a5,1
80001c9a:	c018                	sw	a4,0(s0)
80001c9c:	01378023          	sb	s3,0(a5)
80001ca0:	485c                	lw	a5,20(s0)
80001ca2:	00a78963          	beq	a5,a0,80001cb4 <__swbuf_r+0x80>
80001ca6:	00c45783          	lhu	a5,12(s0)
80001caa:	8b85                	andi	a5,a5,1
80001cac:	cb89                	beqz	a5,80001cbe <__swbuf_r+0x8a>
80001cae:	47a9                	li	a5,10
80001cb0:	00f91763          	bne	s2,a5,80001cbe <__swbuf_r+0x8a>
80001cb4:	85a2                	mv	a1,s0
80001cb6:	8526                	mv	a0,s1
80001cb8:	08e010ef          	jal	ra,80002d46 <_fflush_r>
80001cbc:	ed0d                	bnez	a0,80001cf6 <__swbuf_r+0xc2>
80001cbe:	40f2                	lw	ra,28(sp)
80001cc0:	4462                	lw	s0,24(sp)
80001cc2:	44d2                	lw	s1,20(sp)
80001cc4:	49b2                	lw	s3,12(sp)
80001cc6:	854a                	mv	a0,s2
80001cc8:	4942                	lw	s2,16(sp)
80001cca:	6105                	addi	sp,sp,32
80001ccc:	8082                	ret
80001cce:	00004797          	auipc	a5,0x4
80001cd2:	49278793          	addi	a5,a5,1170 # 80006160 <__sf_fake_stdout>
80001cd6:	00f41463          	bne	s0,a5,80001cde <__swbuf_r+0xaa>
80001cda:	4480                	lw	s0,8(s1)
80001cdc:	b749                	j	80001c5e <__swbuf_r+0x2a>
80001cde:	00004797          	auipc	a5,0x4
80001ce2:	44278793          	addi	a5,a5,1090 # 80006120 <__sf_fake_stderr>
80001ce6:	f6f41ce3          	bne	s0,a5,80001c5e <__swbuf_r+0x2a>
80001cea:	44c0                	lw	s0,12(s1)
80001cec:	bf8d                	j	80001c5e <__swbuf_r+0x2a>
80001cee:	85a2                	mv	a1,s0
80001cf0:	8526                	mv	a0,s1
80001cf2:	2021                	jal	80001cfa <__swsetup_r>
80001cf4:	dd2d                	beqz	a0,80001c6e <__swbuf_r+0x3a>
80001cf6:	597d                	li	s2,-1
80001cf8:	b7d9                	j	80001cbe <__swbuf_r+0x8a>

80001cfa <__swsetup_r>:
__swsetup_r():
80001cfa:	1141                	addi	sp,sp,-16
80001cfc:	c422                	sw	s0,8(sp)
80001cfe:	c226                	sw	s1,4(sp)
80001d00:	c04a                	sw	s2,0(sp)
80001d02:	c606                	sw	ra,12(sp)
80001d04:	0fffe497          	auipc	s1,0xfffe
80001d08:	4d44a483          	lw	s1,1236(s1) # 900001d8 <_impure_ptr>
80001d0c:	892a                	mv	s2,a0
80001d0e:	842e                	mv	s0,a1
80001d10:	c491                	beqz	s1,80001d1c <__swsetup_r+0x22>
80001d12:	4c9c                	lw	a5,24(s1)
80001d14:	e781                	bnez	a5,80001d1c <__swsetup_r+0x22>
80001d16:	8526                	mv	a0,s1
80001d18:	14a010ef          	jal	ra,80002e62 <__sinit>
80001d1c:	00004797          	auipc	a5,0x4
80001d20:	42478793          	addi	a5,a5,1060 # 80006140 <__sf_fake_stdin>
80001d24:	02f41763          	bne	s0,a5,80001d52 <__swsetup_r+0x58>
80001d28:	40c0                	lw	s0,4(s1)
80001d2a:	00c41783          	lh	a5,12(s0)
80001d2e:	01079713          	slli	a4,a5,0x10
80001d32:	0087f693          	andi	a3,a5,8
80001d36:	8341                	srli	a4,a4,0x10
80001d38:	eab5                	bnez	a3,80001dac <__swsetup_r+0xb2>
80001d3a:	01077693          	andi	a3,a4,16
80001d3e:	ea95                	bnez	a3,80001d72 <__swsetup_r+0x78>
80001d40:	4725                	li	a4,9
80001d42:	00e92023          	sw	a4,0(s2)
80001d46:	0407e793          	ori	a5,a5,64
80001d4a:	00f41623          	sh	a5,12(s0)
80001d4e:	557d                	li	a0,-1
80001d50:	a045                	j	80001df0 <__swsetup_r+0xf6>
80001d52:	00004797          	auipc	a5,0x4
80001d56:	40e78793          	addi	a5,a5,1038 # 80006160 <__sf_fake_stdout>
80001d5a:	00f41463          	bne	s0,a5,80001d62 <__swsetup_r+0x68>
80001d5e:	4480                	lw	s0,8(s1)
80001d60:	b7e9                	j	80001d2a <__swsetup_r+0x30>
80001d62:	00004797          	auipc	a5,0x4
80001d66:	3be78793          	addi	a5,a5,958 # 80006120 <__sf_fake_stderr>
80001d6a:	fcf410e3          	bne	s0,a5,80001d2a <__swsetup_r+0x30>
80001d6e:	44c0                	lw	s0,12(s1)
80001d70:	bf6d                	j	80001d2a <__swsetup_r+0x30>
80001d72:	8b11                	andi	a4,a4,4
80001d74:	c715                	beqz	a4,80001da0 <__swsetup_r+0xa6>
80001d76:	584c                	lw	a1,52(s0)
80001d78:	c991                	beqz	a1,80001d8c <__swsetup_r+0x92>
80001d7a:	04440793          	addi	a5,s0,68
80001d7e:	00f58563          	beq	a1,a5,80001d88 <__swsetup_r+0x8e>
80001d82:	854a                	mv	a0,s2
80001d84:	5af010ef          	jal	ra,80003b32 <_free_r>
80001d88:	02042a23          	sw	zero,52(s0)
80001d8c:	00c45783          	lhu	a5,12(s0)
80001d90:	00042223          	sw	zero,4(s0)
80001d94:	fdb7f793          	andi	a5,a5,-37
80001d98:	00f41623          	sh	a5,12(s0)
80001d9c:	481c                	lw	a5,16(s0)
80001d9e:	c01c                	sw	a5,0(s0)
80001da0:	00c45783          	lhu	a5,12(s0)
80001da4:	0087e793          	ori	a5,a5,8
80001da8:	00f41623          	sh	a5,12(s0)
80001dac:	481c                	lw	a5,16(s0)
80001dae:	ef89                	bnez	a5,80001dc8 <__swsetup_r+0xce>
80001db0:	00c45783          	lhu	a5,12(s0)
80001db4:	20000713          	li	a4,512
80001db8:	2807f793          	andi	a5,a5,640
80001dbc:	00e78663          	beq	a5,a4,80001dc8 <__swsetup_r+0xce>
80001dc0:	85a2                	mv	a1,s0
80001dc2:	854a                	mv	a0,s2
80001dc4:	26c010ef          	jal	ra,80003030 <__smakebuf_r>
80001dc8:	00c41783          	lh	a5,12(s0)
80001dcc:	01079713          	slli	a4,a5,0x10
80001dd0:	0017f693          	andi	a3,a5,1
80001dd4:	8341                	srli	a4,a4,0x10
80001dd6:	c29d                	beqz	a3,80001dfc <__swsetup_r+0x102>
80001dd8:	4854                	lw	a3,20(s0)
80001dda:	00042423          	sw	zero,8(s0)
80001dde:	40d006b3          	neg	a3,a3
80001de2:	cc14                	sw	a3,24(s0)
80001de4:	4814                	lw	a3,16(s0)
80001de6:	4501                	li	a0,0
80001de8:	e681                	bnez	a3,80001df0 <__swsetup_r+0xf6>
80001dea:	08077713          	andi	a4,a4,128
80001dee:	ff21                	bnez	a4,80001d46 <__swsetup_r+0x4c>
80001df0:	40b2                	lw	ra,12(sp)
80001df2:	4422                	lw	s0,8(sp)
80001df4:	4492                	lw	s1,4(sp)
80001df6:	4902                	lw	s2,0(sp)
80001df8:	0141                	addi	sp,sp,16
80001dfa:	8082                	ret
80001dfc:	00277693          	andi	a3,a4,2
80001e00:	4601                	li	a2,0
80001e02:	e291                	bnez	a3,80001e06 <__swsetup_r+0x10c>
80001e04:	4850                	lw	a2,20(s0)
80001e06:	c410                	sw	a2,8(s0)
80001e08:	bff1                	j	80001de4 <__swsetup_r+0xea>

80001e0a <__register_exitproc>:
__register_exitproc():
80001e0a:	88aa                	mv	a7,a0
80001e0c:	86818513          	addi	a0,gp,-1944 # 90000238 <_global_atexit>
80001e10:	411c                	lw	a5,0(a0)
80001e12:	ef81                	bnez	a5,80001e2a <__register_exitproc+0x20>
80001e14:	90c18713          	addi	a4,gp,-1780 # 900002dc <_global_atexit0>
80001e18:	c118                	sw	a4,0(a0)
80001e1a:	00000513          	li	a0,0
80001e1e:	87ba                	mv	a5,a4
80001e20:	c509                	beqz	a0,80001e2a <__register_exitproc+0x20>
80001e22:	411c                	lw	a5,0(a0)
80001e24:	08f72423          	sw	a5,136(a4)
80001e28:	87ba                	mv	a5,a4
80001e2a:	43d8                	lw	a4,4(a5)
80001e2c:	487d                	li	a6,31
80001e2e:	557d                	li	a0,-1
80001e30:	04e84663          	blt	a6,a4,80001e7c <__register_exitproc+0x72>
80001e34:	02088d63          	beqz	a7,80001e6e <__register_exitproc+0x64>
80001e38:	0887a803          	lw	a6,136(a5)
80001e3c:	04080063          	beqz	a6,80001e7c <__register_exitproc+0x72>
80001e40:	00271513          	slli	a0,a4,0x2
80001e44:	9542                	add	a0,a0,a6
80001e46:	c110                	sw	a2,0(a0)
80001e48:	10082303          	lw	t1,256(a6)
80001e4c:	4605                	li	a2,1
80001e4e:	00e61633          	sll	a2,a2,a4
80001e52:	00c36333          	or	t1,t1,a2
80001e56:	10682023          	sw	t1,256(a6)
80001e5a:	08d52023          	sw	a3,128(a0)
80001e5e:	4689                	li	a3,2
80001e60:	00d89763          	bne	a7,a3,80001e6e <__register_exitproc+0x64>
80001e64:	10482683          	lw	a3,260(a6)
80001e68:	8e55                	or	a2,a2,a3
80001e6a:	10c82223          	sw	a2,260(a6)
80001e6e:	00170693          	addi	a3,a4,1
80001e72:	070a                	slli	a4,a4,0x2
80001e74:	c3d4                	sw	a3,4(a5)
80001e76:	97ba                	add	a5,a5,a4
80001e78:	c78c                	sw	a1,8(a5)
80001e7a:	4501                	li	a0,0
80001e7c:	8082                	ret

80001e7e <quorem>:
quorem():
80001e7e:	1101                	addi	sp,sp,-32
80001e80:	cc22                	sw	s0,24(sp)
80001e82:	491c                	lw	a5,16(a0)
80001e84:	4980                	lw	s0,16(a1)
80001e86:	ce06                	sw	ra,28(sp)
80001e88:	ca26                	sw	s1,20(sp)
80001e8a:	c84a                	sw	s2,16(sp)
80001e8c:	c64e                	sw	s3,12(sp)
80001e8e:	c452                	sw	s4,8(sp)
80001e90:	c256                	sw	s5,4(sp)
80001e92:	1087ca63          	blt	a5,s0,80001fa6 <quorem+0x128>
80001e96:	147d                	addi	s0,s0,-1
80001e98:	00241613          	slli	a2,s0,0x2
80001e9c:	01458a13          	addi	s4,a1,20
80001ea0:	00ca0ab3          	add	s5,s4,a2
80001ea4:	01450993          	addi	s3,a0,20
80001ea8:	000aa783          	lw	a5,0(s5)
80001eac:	964e                	add	a2,a2,s3
80001eae:	4218                	lw	a4,0(a2)
80001eb0:	0785                	addi	a5,a5,1
80001eb2:	892a                	mv	s2,a0
80001eb4:	02f754b3          	divu	s1,a4,a5
80001eb8:	06f76263          	bltu	a4,a5,80001f1c <quorem+0x9e>
80001ebc:	6541                	lui	a0,0x10
80001ebe:	8852                	mv	a6,s4
80001ec0:	88ce                	mv	a7,s3
80001ec2:	4301                	li	t1,0
80001ec4:	4e01                	li	t3,0
80001ec6:	157d                	addi	a0,a0,-1
80001ec8:	00082683          	lw	a3,0(a6)
80001ecc:	0891                	addi	a7,a7,4
80001ece:	0811                	addi	a6,a6,4
80001ed0:	00a6f7b3          	and	a5,a3,a0
80001ed4:	82c1                	srli	a3,a3,0x10
80001ed6:	029787b3          	mul	a5,a5,s1
80001eda:	029686b3          	mul	a3,a3,s1
80001ede:	979a                	add	a5,a5,t1
80001ee0:	0107d713          	srli	a4,a5,0x10
80001ee4:	8fe9                	and	a5,a5,a0
80001ee6:	40fe07b3          	sub	a5,t3,a5
80001eea:	96ba                	add	a3,a3,a4
80001eec:	ffc8a703          	lw	a4,-4(a7)
80001ef0:	0106d313          	srli	t1,a3,0x10
80001ef4:	8ee9                	and	a3,a3,a0
80001ef6:	00a77e33          	and	t3,a4,a0
80001efa:	97f2                	add	a5,a5,t3
80001efc:	8341                	srli	a4,a4,0x10
80001efe:	8f15                	sub	a4,a4,a3
80001f00:	4107d693          	srai	a3,a5,0x10
80001f04:	9736                	add	a4,a4,a3
80001f06:	41075e13          	srai	t3,a4,0x10
80001f0a:	8fe9                	and	a5,a5,a0
80001f0c:	0742                	slli	a4,a4,0x10
80001f0e:	8fd9                	or	a5,a5,a4
80001f10:	fef8ae23          	sw	a5,-4(a7)
80001f14:	fb0afae3          	bgeu	s5,a6,80001ec8 <quorem+0x4a>
80001f18:	421c                	lw	a5,0(a2)
80001f1a:	c7bd                	beqz	a5,80001f88 <quorem+0x10a>
80001f1c:	854a                	mv	a0,s2
80001f1e:	15f010ef          	jal	ra,8000387c <__mcmp>
80001f22:	04054663          	bltz	a0,80001f6e <quorem+0xf0>
80001f26:	66c1                	lui	a3,0x10
80001f28:	0485                	addi	s1,s1,1
80001f2a:	864e                	mv	a2,s3
80001f2c:	4581                	li	a1,0
80001f2e:	16fd                	addi	a3,a3,-1
80001f30:	000a2503          	lw	a0,0(s4)
80001f34:	421c                	lw	a5,0(a2)
80001f36:	0611                	addi	a2,a2,4
80001f38:	00d57733          	and	a4,a0,a3
80001f3c:	8d99                	sub	a1,a1,a4
80001f3e:	00d7f733          	and	a4,a5,a3
80001f42:	972e                	add	a4,a4,a1
80001f44:	83c1                	srli	a5,a5,0x10
80001f46:	8141                	srli	a0,a0,0x10
80001f48:	41075593          	srai	a1,a4,0x10
80001f4c:	8f89                	sub	a5,a5,a0
80001f4e:	97ae                	add	a5,a5,a1
80001f50:	4107d593          	srai	a1,a5,0x10
80001f54:	8f75                	and	a4,a4,a3
80001f56:	07c2                	slli	a5,a5,0x10
80001f58:	8fd9                	or	a5,a5,a4
80001f5a:	0a11                	addi	s4,s4,4
80001f5c:	fef62e23          	sw	a5,-4(a2)
80001f60:	fd4af8e3          	bgeu	s5,s4,80001f30 <quorem+0xb2>
80001f64:	00241793          	slli	a5,s0,0x2
80001f68:	97ce                	add	a5,a5,s3
80001f6a:	4398                	lw	a4,0(a5)
80001f6c:	c71d                	beqz	a4,80001f9a <quorem+0x11c>
80001f6e:	8526                	mv	a0,s1
80001f70:	40f2                	lw	ra,28(sp)
80001f72:	4462                	lw	s0,24(sp)
80001f74:	44d2                	lw	s1,20(sp)
80001f76:	4942                	lw	s2,16(sp)
80001f78:	49b2                	lw	s3,12(sp)
80001f7a:	4a22                	lw	s4,8(sp)
80001f7c:	4a92                	lw	s5,4(sp)
80001f7e:	6105                	addi	sp,sp,32
80001f80:	8082                	ret
80001f82:	421c                	lw	a5,0(a2)
80001f84:	e789                	bnez	a5,80001f8e <quorem+0x110>
80001f86:	147d                	addi	s0,s0,-1
80001f88:	1671                	addi	a2,a2,-4
80001f8a:	fec9ece3          	bltu	s3,a2,80001f82 <quorem+0x104>
80001f8e:	00892823          	sw	s0,16(s2)
80001f92:	b769                	j	80001f1c <quorem+0x9e>
80001f94:	4398                	lw	a4,0(a5)
80001f96:	e709                	bnez	a4,80001fa0 <quorem+0x122>
80001f98:	147d                	addi	s0,s0,-1
80001f9a:	17f1                	addi	a5,a5,-4
80001f9c:	fef9ece3          	bltu	s3,a5,80001f94 <quorem+0x116>
80001fa0:	00892823          	sw	s0,16(s2)
80001fa4:	b7e9                	j	80001f6e <quorem+0xf0>
80001fa6:	4501                	li	a0,0
80001fa8:	b7e1                	j	80001f70 <quorem+0xf2>

80001faa <_dtoa_r>:
_dtoa_r():
80001faa:	7135                	addi	sp,sp,-160
80001fac:	dc3e                	sw	a5,56(sp)
80001fae:	515c                	lw	a5,36(a0)
80001fb0:	cd22                	sw	s0,152(sp)
80001fb2:	cb26                	sw	s1,148(sp)
80001fb4:	c94a                	sw	s2,144(sp)
80001fb6:	c74e                	sw	s3,140(sp)
80001fb8:	c356                	sw	s5,132(sp)
80001fba:	c15a                	sw	s6,128(sp)
80001fbc:	cf06                	sw	ra,156(sp)
80001fbe:	c552                	sw	s4,136(sp)
80001fc0:	dede                	sw	s7,124(sp)
80001fc2:	dce2                	sw	s8,120(sp)
80001fc4:	dae6                	sw	s9,116(sp)
80001fc6:	d8ea                	sw	s10,112(sp)
80001fc8:	d6ee                	sw	s11,108(sp)
80001fca:	ca36                	sw	a3,20(sp)
80001fcc:	d03a                	sw	a4,32(sp)
80001fce:	d246                	sw	a7,36(sp)
80001fd0:	84aa                	mv	s1,a0
80001fd2:	8aae                	mv	s5,a1
80001fd4:	8432                	mv	s0,a2
80001fd6:	8942                	mv	s2,a6
80001fd8:	89ae                	mv	s3,a1
80001fda:	8b32                	mv	s6,a2
80001fdc:	eb9d                	bnez	a5,80002012 <_dtoa_r+0x68>
80001fde:	4541                	li	a0,16
80001fe0:	0f0010ef          	jal	ra,800030d0 <malloc>
80001fe4:	d0c8                	sw	a0,36(s1)
80001fe6:	ed11                	bnez	a0,80002002 <_dtoa_r+0x58>
80001fe8:	00004697          	auipc	a3,0x4
80001fec:	0b868693          	addi	a3,a3,184 # 800060a0 <__clz_tab+0x1a4>
80001ff0:	4601                	li	a2,0
80001ff2:	0ea00593          	li	a1,234
80001ff6:	00004517          	auipc	a0,0x4
80001ffa:	0c250513          	addi	a0,a0,194 # 800060b8 <__clz_tab+0x1bc>
80001ffe:	0ba020ef          	jal	ra,800040b8 <__assert_func>
80002002:	00052223          	sw	zero,4(a0)
80002006:	00052423          	sw	zero,8(a0)
8000200a:	00052023          	sw	zero,0(a0)
8000200e:	00052623          	sw	zero,12(a0)
80002012:	50dc                	lw	a5,36(s1)
80002014:	438c                	lw	a1,0(a5)
80002016:	cd89                	beqz	a1,80002030 <_dtoa_r+0x86>
80002018:	43d8                	lw	a4,4(a5)
8000201a:	4785                	li	a5,1
8000201c:	8526                	mv	a0,s1
8000201e:	00e797b3          	sll	a5,a5,a4
80002022:	c59c                	sw	a5,8(a1)
80002024:	c1d8                	sw	a4,4(a1)
80002026:	302010ef          	jal	ra,80003328 <_Bfree>
8000202a:	50dc                	lw	a5,36(s1)
8000202c:	0007a023          	sw	zero,0(a5)
80002030:	04045263          	bgez	s0,80002074 <_dtoa_r+0xca>
80002034:	4785                	li	a5,1
80002036:	0406                	slli	s0,s0,0x1
80002038:	00f92023          	sw	a5,0(s2)
8000203c:	00145b13          	srli	s6,s0,0x1
80002040:	7ff007b7          	lui	a5,0x7ff00
80002044:	00fb7733          	and	a4,s6,a5
80002048:	06f71463          	bne	a4,a5,800020b0 <_dtoa_r+0x106>
8000204c:	5762                	lw	a4,56(sp)
8000204e:	6789                	lui	a5,0x2
80002050:	0b32                	slli	s6,s6,0xc
80002052:	70f78793          	addi	a5,a5,1807 # 270f <__stack_size+0x1f0f>
80002056:	00cb5b13          	srli	s6,s6,0xc
8000205a:	c31c                	sw	a5,0(a4)
8000205c:	015b6ab3          	or	s5,s6,s5
80002060:	340a82e3          	beqz	s5,80002ba4 <_dtoa_r+0xbfa>
80002064:	5792                	lw	a5,36(sp)
80002066:	eb91                	bnez	a5,8000207a <_dtoa_r+0xd0>
80002068:	00004797          	auipc	a5,0x4
8000206c:	03478793          	addi	a5,a5,52 # 8000609c <__clz_tab+0x1a0>
80002070:	c63e                	sw	a5,12(sp)
80002072:	a839                	j	80002090 <_dtoa_r+0xe6>
80002074:	00092023          	sw	zero,0(s2)
80002078:	b7e1                	j	80002040 <_dtoa_r+0x96>
8000207a:	00004797          	auipc	a5,0x4
8000207e:	02278793          	addi	a5,a5,34 # 8000609c <__clz_tab+0x1a0>
80002082:	c63e                	sw	a5,12(sp)
80002084:	00004797          	auipc	a5,0x4
80002088:	01b78793          	addi	a5,a5,27 # 8000609f <__clz_tab+0x1a3>
8000208c:	5712                	lw	a4,36(sp)
8000208e:	c31c                	sw	a5,0(a4)
80002090:	40fa                	lw	ra,156(sp)
80002092:	446a                	lw	s0,152(sp)
80002094:	4532                	lw	a0,12(sp)
80002096:	44da                	lw	s1,148(sp)
80002098:	494a                	lw	s2,144(sp)
8000209a:	49ba                	lw	s3,140(sp)
8000209c:	4a2a                	lw	s4,136(sp)
8000209e:	4a9a                	lw	s5,132(sp)
800020a0:	4b0a                	lw	s6,128(sp)
800020a2:	5bf6                	lw	s7,124(sp)
800020a4:	5c66                	lw	s8,120(sp)
800020a6:	5cd6                	lw	s9,116(sp)
800020a8:	5d46                	lw	s10,112(sp)
800020aa:	5db6                	lw	s11,108(sp)
800020ac:	610d                	addi	sp,sp,160
800020ae:	8082                	ret
800020b0:	4601                	li	a2,0
800020b2:	4681                	li	a3,0
800020b4:	8556                	mv	a0,s5
800020b6:	85da                	mv	a1,s6
800020b8:	d656                	sw	s5,44(sp)
800020ba:	d85a                	sw	s6,48(sp)
800020bc:	585020ef          	jal	ra,80004e40 <__eqdf2>
800020c0:	e105                	bnez	a0,800020e0 <_dtoa_r+0x136>
800020c2:	5762                	lw	a4,56(sp)
800020c4:	4785                	li	a5,1
800020c6:	c31c                	sw	a5,0(a4)
800020c8:	00004797          	auipc	a5,0x4
800020cc:	f4478793          	addi	a5,a5,-188 # 8000600c <__clz_tab+0x110>
800020d0:	c63e                	sw	a5,12(sp)
800020d2:	5792                	lw	a5,36(sp)
800020d4:	dfd5                	beqz	a5,80002090 <_dtoa_r+0xe6>
800020d6:	00004797          	auipc	a5,0x4
800020da:	f3778793          	addi	a5,a5,-201 # 8000600d <__clz_tab+0x111>
800020de:	b77d                	j	8000208c <_dtoa_r+0xe2>
800020e0:	08b8                	addi	a4,sp,88
800020e2:	08f4                	addi	a3,sp,92
800020e4:	865a                	mv	a2,s6
800020e6:	85d6                	mv	a1,s5
800020e8:	8526                	mv	a0,s1
800020ea:	014b5913          	srli	s2,s6,0x14
800020ee:	121010ef          	jal	ra,80003a0e <__d2b>
800020f2:	7ff97913          	andi	s2,s2,2047
800020f6:	4a66                	lw	s4,88(sp)
800020f8:	842a                	mv	s0,a0
800020fa:	12090663          	beqz	s2,80002226 <_dtoa_r+0x27c>
800020fe:	57c2                	lw	a5,48(sp)
80002100:	5532                	lw	a0,44(sp)
80002102:	c0190913          	addi	s2,s2,-1023
80002106:	00c79593          	slli	a1,a5,0xc
8000210a:	81b1                	srli	a1,a1,0xc
8000210c:	3ff007b7          	lui	a5,0x3ff00
80002110:	8ddd                	or	a1,a1,a5
80002112:	c082                	sw	zero,64(sp)
80002114:	0fffe797          	auipc	a5,0xfffe
80002118:	0d478793          	addi	a5,a5,212 # 900001e8 <_impure_ptr+0x10>
8000211c:	4390                	lw	a2,0(a5)
8000211e:	43d4                	lw	a3,4(a5)
80002120:	318030ef          	jal	ra,80005438 <__subdf3>
80002124:	0fffe797          	auipc	a5,0xfffe
80002128:	0cc78793          	addi	a5,a5,204 # 900001f0 <_impure_ptr+0x18>
8000212c:	4390                	lw	a2,0(a5)
8000212e:	43d4                	lw	a3,4(a5)
80002130:	6c7020ef          	jal	ra,80004ff6 <__muldf3>
80002134:	0fffe797          	auipc	a5,0xfffe
80002138:	0c478793          	addi	a5,a5,196 # 900001f8 <_impure_ptr+0x20>
8000213c:	4390                	lw	a2,0(a5)
8000213e:	43d4                	lw	a3,4(a5)
80002140:	1b6020ef          	jal	ra,800042f6 <__adddf3>
80002144:	8baa                	mv	s7,a0
80002146:	854a                	mv	a0,s2
80002148:	8aae                	mv	s5,a1
8000214a:	1a5030ef          	jal	ra,80005aee <__floatsidf>
8000214e:	0fffe797          	auipc	a5,0xfffe
80002152:	0b278793          	addi	a5,a5,178 # 90000200 <_impure_ptr+0x28>
80002156:	4390                	lw	a2,0(a5)
80002158:	43d4                	lw	a3,4(a5)
8000215a:	69d020ef          	jal	ra,80004ff6 <__muldf3>
8000215e:	862a                	mv	a2,a0
80002160:	86ae                	mv	a3,a1
80002162:	855e                	mv	a0,s7
80002164:	85d6                	mv	a1,s5
80002166:	190020ef          	jal	ra,800042f6 <__adddf3>
8000216a:	8baa                	mv	s7,a0
8000216c:	8aae                	mv	s5,a1
8000216e:	11d030ef          	jal	ra,80005a8a <__fixdfsi>
80002172:	8daa                	mv	s11,a0
80002174:	4601                	li	a2,0
80002176:	4681                	li	a3,0
80002178:	855e                	mv	a0,s7
8000217a:	85d6                	mv	a1,s5
8000217c:	5d5020ef          	jal	ra,80004f50 <__ledf2>
80002180:	00055b63          	bgez	a0,80002196 <_dtoa_r+0x1ec>
80002184:	856e                	mv	a0,s11
80002186:	169030ef          	jal	ra,80005aee <__floatsidf>
8000218a:	865e                	mv	a2,s7
8000218c:	86d6                	mv	a3,s5
8000218e:	4b3020ef          	jal	ra,80004e40 <__eqdf2>
80002192:	c111                	beqz	a0,80002196 <_dtoa_r+0x1ec>
80002194:	1dfd                	addi	s11,s11,-1
80002196:	4705                	li	a4,1
80002198:	47d9                	li	a5,22
8000219a:	da3a                	sw	a4,52(sp)
8000219c:	03b7e363          	bltu	a5,s11,800021c2 <_dtoa_r+0x218>
800021a0:	003d9713          	slli	a4,s11,0x3
800021a4:	00004797          	auipc	a5,0x4
800021a8:	05c78793          	addi	a5,a5,92 # 80006200 <__mprec_tens>
800021ac:	97ba                	add	a5,a5,a4
800021ae:	4390                	lw	a2,0(a5)
800021b0:	43d4                	lw	a3,4(a5)
800021b2:	5532                	lw	a0,44(sp)
800021b4:	55c2                	lw	a1,48(sp)
800021b6:	59b020ef          	jal	ra,80004f50 <__ledf2>
800021ba:	00055363          	bgez	a0,800021c0 <_dtoa_r+0x216>
800021be:	1dfd                	addi	s11,s11,-1
800021c0:	da02                	sw	zero,52(sp)
800021c2:	412a0933          	sub	s2,s4,s2
800021c6:	fff90c13          	addi	s8,s2,-1
800021ca:	4b81                	li	s7,0
800021cc:	000c5663          	bgez	s8,800021d8 <_dtoa_r+0x22e>
800021d0:	4b85                	li	s7,1
800021d2:	412b8bb3          	sub	s7,s7,s2
800021d6:	4c01                	li	s8,0
800021d8:	080dc863          	bltz	s11,80002268 <_dtoa_r+0x2be>
800021dc:	9c6e                	add	s8,s8,s11
800021de:	d46e                	sw	s11,40(sp)
800021e0:	4c81                	li	s9,0
800021e2:	4752                	lw	a4,20(sp)
800021e4:	47a5                	li	a5,9
800021e6:	0ee7e563          	bltu	a5,a4,800022d0 <_dtoa_r+0x326>
800021ea:	4795                	li	a5,5
800021ec:	4905                	li	s2,1
800021ee:	00e7d663          	bge	a5,a4,800021fa <_dtoa_r+0x250>
800021f2:	ffc70793          	addi	a5,a4,-4
800021f6:	ca3e                	sw	a5,20(sp)
800021f8:	4901                	li	s2,0
800021fa:	4752                	lw	a4,20(sp)
800021fc:	4791                	li	a5,4
800021fe:	06f70b63          	beq	a4,a5,80002274 <_dtoa_r+0x2ca>
80002202:	4795                	li	a5,5
80002204:	0af70a63          	beq	a4,a5,800022b8 <_dtoa_r+0x30e>
80002208:	4789                	li	a5,2
8000220a:	0af70563          	beq	a4,a5,800022b4 <_dtoa_r+0x30a>
8000220e:	478d                	li	a5,3
80002210:	ce02                	sw	zero,28(sp)
80002212:	0af70563          	beq	a4,a5,800022bc <_dtoa_r+0x312>
80002216:	4785                	li	a5,1
80002218:	ce3e                	sw	a5,28(sp)
8000221a:	57fd                	li	a5,-1
8000221c:	c83e                	sw	a5,16(sp)
8000221e:	5d7d                	li	s10,-1
80002220:	47c9                	li	a5,18
80002222:	d002                	sw	zero,32(sp)
80002224:	a095                	j	80002288 <_dtoa_r+0x2de>
80002226:	4976                	lw	s2,92(sp)
80002228:	02000793          	li	a5,32
8000222c:	9952                	add	s2,s2,s4
8000222e:	43290593          	addi	a1,s2,1074
80002232:	02b7d663          	bge	a5,a1,8000225e <_dtoa_r+0x2b4>
80002236:	04000513          	li	a0,64
8000223a:	8d0d                	sub	a0,a0,a1
8000223c:	41290593          	addi	a1,s2,1042
80002240:	00ab1533          	sll	a0,s6,a0
80002244:	00badab3          	srl	s5,s5,a1
80002248:	01556533          	or	a0,a0,s5
8000224c:	109030ef          	jal	ra,80005b54 <__floatunsidf>
80002250:	fe1007b7          	lui	a5,0xfe100
80002254:	95be                	add	a1,a1,a5
80002256:	4785                	li	a5,1
80002258:	197d                	addi	s2,s2,-1
8000225a:	c0be                	sw	a5,64(sp)
8000225c:	bd65                	j	80002114 <_dtoa_r+0x16a>
8000225e:	40b78533          	sub	a0,a5,a1
80002262:	00aa9533          	sll	a0,s5,a0
80002266:	b7dd                	j	8000224c <_dtoa_r+0x2a2>
80002268:	41bb8bb3          	sub	s7,s7,s11
8000226c:	41b00cb3          	neg	s9,s11
80002270:	d402                	sw	zero,40(sp)
80002272:	bf85                	j	800021e2 <_dtoa_r+0x238>
80002274:	4785                	li	a5,1
80002276:	ce3e                	sw	a5,28(sp)
80002278:	5782                	lw	a5,32(sp)
8000227a:	04f04e63          	bgtz	a5,800022d6 <_dtoa_r+0x32c>
8000227e:	4785                	li	a5,1
80002280:	4705                	li	a4,1
80002282:	c83e                	sw	a5,16(sp)
80002284:	4d05                	li	s10,1
80002286:	d03a                	sw	a4,32(sp)
80002288:	50d4                	lw	a3,36(s1)
8000228a:	4711                	li	a4,4
8000228c:	0006a223          	sw	zero,4(a3)
80002290:	01470613          	addi	a2,a4,20
80002294:	42cc                	lw	a1,4(a3)
80002296:	04c7f463          	bgeu	a5,a2,800022de <_dtoa_r+0x334>
8000229a:	8526                	mv	a0,s1
8000229c:	7e1000ef          	jal	ra,8000327c <_Balloc>
800022a0:	c62a                	sw	a0,12(sp)
800022a2:	e131                	bnez	a0,800022e6 <_dtoa_r+0x33c>
800022a4:	00004697          	auipc	a3,0x4
800022a8:	e6868693          	addi	a3,a3,-408 # 8000610c <__clz_tab+0x210>
800022ac:	4601                	li	a2,0
800022ae:	1aa00593          	li	a1,426
800022b2:	b391                	j	80001ff6 <_dtoa_r+0x4c>
800022b4:	ce02                	sw	zero,28(sp)
800022b6:	b7c9                	j	80002278 <_dtoa_r+0x2ce>
800022b8:	4785                	li	a5,1
800022ba:	ce3e                	sw	a5,28(sp)
800022bc:	5782                	lw	a5,32(sp)
800022be:	97ee                	add	a5,a5,s11
800022c0:	c83e                	sw	a5,16(sp)
800022c2:	00178d13          	addi	s10,a5,1 # fe100001 <_sp+0x6e0f0001>
800022c6:	87ea                	mv	a5,s10
800022c8:	fda040e3          	bgtz	s10,80002288 <_dtoa_r+0x2de>
800022cc:	4785                	li	a5,1
800022ce:	bf6d                	j	80002288 <_dtoa_r+0x2de>
800022d0:	4905                	li	s2,1
800022d2:	ca02                	sw	zero,20(sp)
800022d4:	b789                	j	80002216 <_dtoa_r+0x26c>
800022d6:	5782                	lw	a5,32(sp)
800022d8:	c83e                	sw	a5,16(sp)
800022da:	8d3e                	mv	s10,a5
800022dc:	b775                	j	80002288 <_dtoa_r+0x2de>
800022de:	0585                	addi	a1,a1,1
800022e0:	c2cc                	sw	a1,4(a3)
800022e2:	0706                	slli	a4,a4,0x1
800022e4:	b775                	j	80002290 <_dtoa_r+0x2e6>
800022e6:	50dc                	lw	a5,36(s1)
800022e8:	4732                	lw	a4,12(sp)
800022ea:	c398                	sw	a4,0(a5)
800022ec:	47b9                	li	a5,14
800022ee:	13a7e863          	bltu	a5,s10,8000241e <_dtoa_r+0x474>
800022f2:	12090663          	beqz	s2,8000241e <_dtoa_r+0x474>
800022f6:	1bb05a63          	blez	s11,800024aa <_dtoa_r+0x500>
800022fa:	00fdf713          	andi	a4,s11,15
800022fe:	00371793          	slli	a5,a4,0x3
80002302:	00004717          	auipc	a4,0x4
80002306:	efe70713          	addi	a4,a4,-258 # 80006200 <__mprec_tens>
8000230a:	973e                	add	a4,a4,a5
8000230c:	404dd913          	srai	s2,s11,0x4
80002310:	431c                	lw	a5,0(a4)
80002312:	00472a83          	lw	s5,4(a4)
80002316:	01097713          	andi	a4,s2,16
8000231a:	4a09                	li	s4,2
8000231c:	c315                	beqz	a4,80002340 <_dtoa_r+0x396>
8000231e:	00004717          	auipc	a4,0x4
80002322:	eba70713          	addi	a4,a4,-326 # 800061d8 <__mprec_bigtens>
80002326:	5310                	lw	a2,32(a4)
80002328:	5354                	lw	a3,36(a4)
8000232a:	5532                	lw	a0,44(sp)
8000232c:	55c2                	lw	a1,48(sp)
8000232e:	cc3e                	sw	a5,24(sp)
80002330:	00f97913          	andi	s2,s2,15
80002334:	5cc020ef          	jal	ra,80004900 <__divdf3>
80002338:	47e2                	lw	a5,24(sp)
8000233a:	89aa                	mv	s3,a0
8000233c:	8b2e                	mv	s6,a1
8000233e:	4a0d                	li	s4,3
80002340:	00004717          	auipc	a4,0x4
80002344:	e9870713          	addi	a4,a4,-360 # 800061d8 <__mprec_bigtens>
80002348:	12091f63          	bnez	s2,80002486 <_dtoa_r+0x4dc>
8000234c:	854e                	mv	a0,s3
8000234e:	863e                	mv	a2,a5
80002350:	86d6                	mv	a3,s5
80002352:	85da                	mv	a1,s6
80002354:	5ac020ef          	jal	ra,80004900 <__divdf3>
80002358:	89aa                	mv	s3,a0
8000235a:	8b2e                	mv	s6,a1
8000235c:	57d2                	lw	a5,52(sp)
8000235e:	1a078b63          	beqz	a5,80002514 <_dtoa_r+0x56a>
80002362:	0fffe797          	auipc	a5,0xfffe
80002366:	ea678793          	addi	a5,a5,-346 # 90000208 <_impure_ptr+0x30>
8000236a:	4390                	lw	a2,0(a5)
8000236c:	43d4                	lw	a3,4(a5)
8000236e:	854e                	mv	a0,s3
80002370:	85da                	mv	a1,s6
80002372:	3df020ef          	jal	ra,80004f50 <__ledf2>
80002376:	18055f63          	bgez	a0,80002514 <_dtoa_r+0x56a>
8000237a:	1a0d0063          	beqz	s10,8000251a <_dtoa_r+0x570>
8000237e:	47c2                	lw	a5,16(sp)
80002380:	08f05d63          	blez	a5,8000241a <_dtoa_r+0x470>
80002384:	fffd8793          	addi	a5,s11,-1
80002388:	cc3e                	sw	a5,24(sp)
8000238a:	0fffe797          	auipc	a5,0xfffe
8000238e:	e8678793          	addi	a5,a5,-378 # 90000210 <_impure_ptr+0x38>
80002392:	4390                	lw	a2,0(a5)
80002394:	43d4                	lw	a3,4(a5)
80002396:	854e                	mv	a0,s3
80002398:	85da                	mv	a1,s6
8000239a:	45d020ef          	jal	ra,80004ff6 <__muldf3>
8000239e:	4842                	lw	a6,16(sp)
800023a0:	89aa                	mv	s3,a0
800023a2:	8b2e                	mv	s6,a1
800023a4:	0a05                	addi	s4,s4,1
800023a6:	8552                	mv	a0,s4
800023a8:	c4c2                	sw	a6,72(sp)
800023aa:	de5a                	sw	s6,60(sp)
800023ac:	c2ce                	sw	s3,68(sp)
800023ae:	740030ef          	jal	ra,80005aee <__floatsidf>
800023b2:	86da                	mv	a3,s6
800023b4:	864e                	mv	a2,s3
800023b6:	441020ef          	jal	ra,80004ff6 <__muldf3>
800023ba:	0fffe697          	auipc	a3,0xfffe
800023be:	e5e68693          	addi	a3,a3,-418 # 90000218 <_impure_ptr+0x40>
800023c2:	4290                	lw	a2,0(a3)
800023c4:	42d4                	lw	a3,4(a3)
800023c6:	895a                	mv	s2,s6
800023c8:	8ace                	mv	s5,s3
800023ca:	72d010ef          	jal	ra,800042f6 <__adddf3>
800023ce:	4826                	lw	a6,72(sp)
800023d0:	fcc008b7          	lui	a7,0xfcc00
800023d4:	8b2a                	mv	s6,a0
800023d6:	00b88a33          	add	s4,a7,a1
800023da:	14081363          	bnez	a6,80002520 <_dtoa_r+0x576>
800023de:	0fffe697          	auipc	a3,0xfffe
800023e2:	e4268693          	addi	a3,a3,-446 # 90000220 <_impure_ptr+0x48>
800023e6:	4290                	lw	a2,0(a3)
800023e8:	42d4                	lw	a3,4(a3)
800023ea:	854e                	mv	a0,s3
800023ec:	85ca                	mv	a1,s2
800023ee:	04a030ef          	jal	ra,80005438 <__subdf3>
800023f2:	865a                	mv	a2,s6
800023f4:	86d2                	mv	a3,s4
800023f6:	89aa                	mv	s3,a0
800023f8:	892e                	mv	s2,a1
800023fa:	2b1020ef          	jal	ra,80004eaa <__gedf2>
800023fe:	5aa04b63          	bgtz	a0,800029b4 <_dtoa_r+0xa0a>
80002402:	800007b7          	lui	a5,0x80000
80002406:	0147c7b3          	xor	a5,a5,s4
8000240a:	865a                	mv	a2,s6
8000240c:	86be                	mv	a3,a5
8000240e:	854e                	mv	a0,s3
80002410:	85ca                	mv	a1,s2
80002412:	33f020ef          	jal	ra,80004f50 <__ledf2>
80002416:	58054c63          	bltz	a0,800029ae <_dtoa_r+0xa04>
8000241a:	59b2                	lw	s3,44(sp)
8000241c:	5b42                	lw	s6,48(sp)
8000241e:	47f6                	lw	a5,92(sp)
80002420:	3607c863          	bltz	a5,80002790 <_dtoa_r+0x7e6>
80002424:	4739                	li	a4,14
80002426:	37b74563          	blt	a4,s11,80002790 <_dtoa_r+0x7e6>
8000242a:	003d9713          	slli	a4,s11,0x3
8000242e:	00004797          	auipc	a5,0x4
80002432:	dd278793          	addi	a5,a5,-558 # 80006200 <__mprec_tens>
80002436:	97ba                	add	a5,a5,a4
80002438:	0007aa03          	lw	s4,0(a5)
8000243c:	0047aa83          	lw	s5,4(a5)
80002440:	5782                	lw	a5,32(sp)
80002442:	2607d163          	bgez	a5,800026a4 <_dtoa_r+0x6fa>
80002446:	25a04f63          	bgtz	s10,800026a4 <_dtoa_r+0x6fa>
8000244a:	560d1263          	bnez	s10,800029ae <_dtoa_r+0xa04>
8000244e:	0fffe797          	auipc	a5,0xfffe
80002452:	dd278793          	addi	a5,a5,-558 # 90000220 <_impure_ptr+0x48>
80002456:	4390                	lw	a2,0(a5)
80002458:	43d4                	lw	a3,4(a5)
8000245a:	8552                	mv	a0,s4
8000245c:	85d6                	mv	a1,s5
8000245e:	399020ef          	jal	ra,80004ff6 <__muldf3>
80002462:	864e                	mv	a2,s3
80002464:	86da                	mv	a3,s6
80002466:	245020ef          	jal	ra,80004eaa <__gedf2>
8000246a:	4a01                	li	s4,0
8000246c:	4901                	li	s2,0
8000246e:	50055863          	bgez	a0,8000297e <_dtoa_r+0x9d4>
80002472:	47b2                	lw	a5,12(sp)
80002474:	4732                	lw	a4,12(sp)
80002476:	0d85                	addi	s11,s11,1
80002478:	00178993          	addi	s3,a5,1
8000247c:	03100793          	li	a5,49
80002480:	00f70023          	sb	a5,0(a4)
80002484:	a309                	j	80002986 <_dtoa_r+0x9dc>
80002486:	00197693          	andi	a3,s2,1
8000248a:	ce81                	beqz	a3,800024a2 <_dtoa_r+0x4f8>
8000248c:	4310                	lw	a2,0(a4)
8000248e:	4354                	lw	a3,4(a4)
80002490:	853e                	mv	a0,a5
80002492:	85d6                	mv	a1,s5
80002494:	cc3a                	sw	a4,24(sp)
80002496:	361020ef          	jal	ra,80004ff6 <__muldf3>
8000249a:	4762                	lw	a4,24(sp)
8000249c:	0a05                	addi	s4,s4,1
8000249e:	87aa                	mv	a5,a0
800024a0:	8aae                	mv	s5,a1
800024a2:	40195913          	srai	s2,s2,0x1
800024a6:	0721                	addi	a4,a4,8
800024a8:	b545                	j	80002348 <_dtoa_r+0x39e>
800024aa:	4a09                	li	s4,2
800024ac:	ea0d88e3          	beqz	s11,8000235c <_dtoa_r+0x3b2>
800024b0:	41b00933          	neg	s2,s11
800024b4:	00f97793          	andi	a5,s2,15
800024b8:	00379713          	slli	a4,a5,0x3
800024bc:	00004797          	auipc	a5,0x4
800024c0:	d4478793          	addi	a5,a5,-700 # 80006200 <__mprec_tens>
800024c4:	97ba                	add	a5,a5,a4
800024c6:	4390                	lw	a2,0(a5)
800024c8:	43d4                	lw	a3,4(a5)
800024ca:	5532                	lw	a0,44(sp)
800024cc:	55c2                	lw	a1,48(sp)
800024ce:	40495913          	srai	s2,s2,0x4
800024d2:	00004a97          	auipc	s5,0x4
800024d6:	d06a8a93          	addi	s5,s5,-762 # 800061d8 <__mprec_bigtens>
800024da:	31d020ef          	jal	ra,80004ff6 <__muldf3>
800024de:	87aa                	mv	a5,a0
800024e0:	89aa                	mv	s3,a0
800024e2:	8b2e                	mv	s6,a1
800024e4:	4701                	li	a4,0
800024e6:	00091663          	bnez	s2,800024f2 <_dtoa_r+0x548>
800024ea:	e60709e3          	beqz	a4,8000235c <_dtoa_r+0x3b2>
800024ee:	89be                	mv	s3,a5
800024f0:	b5ad                	j	8000235a <_dtoa_r+0x3b0>
800024f2:	00197693          	andi	a3,s2,1
800024f6:	ca99                	beqz	a3,8000250c <_dtoa_r+0x562>
800024f8:	000aa603          	lw	a2,0(s5)
800024fc:	004aa683          	lw	a3,4(s5)
80002500:	853e                	mv	a0,a5
80002502:	0a05                	addi	s4,s4,1
80002504:	2f3020ef          	jal	ra,80004ff6 <__muldf3>
80002508:	87aa                	mv	a5,a0
8000250a:	4705                	li	a4,1
8000250c:	40195913          	srai	s2,s2,0x1
80002510:	0aa1                	addi	s5,s5,8
80002512:	bfd1                	j	800024e6 <_dtoa_r+0x53c>
80002514:	cc6e                	sw	s11,24(sp)
80002516:	886a                	mv	a6,s10
80002518:	b579                	j	800023a6 <_dtoa_r+0x3fc>
8000251a:	cc6e                	sw	s11,24(sp)
8000251c:	4801                	li	a6,0
8000251e:	b561                	j	800023a6 <_dtoa_r+0x3fc>
80002520:	fff80793          	addi	a5,a6,-1
80002524:	00379713          	slli	a4,a5,0x3
80002528:	00004797          	auipc	a5,0x4
8000252c:	cd878793          	addi	a5,a5,-808 # 80006200 <__mprec_tens>
80002530:	97ba                	add	a5,a5,a4
80002532:	4390                	lw	a2,0(a5)
80002534:	43d4                	lw	a3,4(a5)
80002536:	47b2                	lw	a5,12(sp)
80002538:	97c2                	add	a5,a5,a6
8000253a:	de3e                	sw	a5,60(sp)
8000253c:	47f2                	lw	a5,28(sp)
8000253e:	cbc5                	beqz	a5,800025ee <_dtoa_r+0x644>
80002540:	0fffe797          	auipc	a5,0xfffe
80002544:	ce878793          	addi	a5,a5,-792 # 90000228 <_impure_ptr+0x50>
80002548:	43cc                	lw	a1,4(a5)
8000254a:	c2aa                	sw	a0,68(sp)
8000254c:	4388                	lw	a0,0(a5)
8000254e:	3b2020ef          	jal	ra,80004900 <__divdf3>
80002552:	865a                	mv	a2,s6
80002554:	86d2                	mv	a3,s4
80002556:	6e3020ef          	jal	ra,80005438 <__subdf3>
8000255a:	49b2                	lw	s3,12(sp)
8000255c:	8a2a                	mv	s4,a0
8000255e:	8b2e                	mv	s6,a1
80002560:	85ca                	mv	a1,s2
80002562:	8556                	mv	a0,s5
80002564:	526030ef          	jal	ra,80005a8a <__fixdfsi>
80002568:	c2aa                	sw	a0,68(sp)
8000256a:	584030ef          	jal	ra,80005aee <__floatsidf>
8000256e:	862a                	mv	a2,a0
80002570:	86ae                	mv	a3,a1
80002572:	8556                	mv	a0,s5
80002574:	85ca                	mv	a1,s2
80002576:	6c3020ef          	jal	ra,80005438 <__subdf3>
8000257a:	4796                	lw	a5,68(sp)
8000257c:	0985                	addi	s3,s3,1
8000257e:	8652                	mv	a2,s4
80002580:	03078793          	addi	a5,a5,48
80002584:	fef98fa3          	sb	a5,-1(s3)
80002588:	86da                	mv	a3,s6
8000258a:	892a                	mv	s2,a0
8000258c:	8aae                	mv	s5,a1
8000258e:	1c3020ef          	jal	ra,80004f50 <__ledf2>
80002592:	0e054c63          	bltz	a0,8000268a <_dtoa_r+0x6e0>
80002596:	0fffe797          	auipc	a5,0xfffe
8000259a:	c7278793          	addi	a5,a5,-910 # 90000208 <_impure_ptr+0x30>
8000259e:	4388                	lw	a0,0(a5)
800025a0:	43cc                	lw	a1,4(a5)
800025a2:	864a                	mv	a2,s2
800025a4:	86d6                	mv	a3,s5
800025a6:	693020ef          	jal	ra,80005438 <__subdf3>
800025aa:	8652                	mv	a2,s4
800025ac:	86da                	mv	a3,s6
800025ae:	1a3020ef          	jal	ra,80004f50 <__ledf2>
800025b2:	18054763          	bltz	a0,80002740 <_dtoa_r+0x796>
800025b6:	57f2                	lw	a5,60(sp)
800025b8:	e6f981e3          	beq	s3,a5,8000241a <_dtoa_r+0x470>
800025bc:	0fffe797          	auipc	a5,0xfffe
800025c0:	c5478793          	addi	a5,a5,-940 # 90000210 <_impure_ptr+0x38>
800025c4:	4390                	lw	a2,0(a5)
800025c6:	43d4                	lw	a3,4(a5)
800025c8:	8552                	mv	a0,s4
800025ca:	85da                	mv	a1,s6
800025cc:	22b020ef          	jal	ra,80004ff6 <__muldf3>
800025d0:	0fffe797          	auipc	a5,0xfffe
800025d4:	c4078793          	addi	a5,a5,-960 # 90000210 <_impure_ptr+0x38>
800025d8:	4390                	lw	a2,0(a5)
800025da:	43d4                	lw	a3,4(a5)
800025dc:	8a2a                	mv	s4,a0
800025de:	8b2e                	mv	s6,a1
800025e0:	854a                	mv	a0,s2
800025e2:	85d6                	mv	a1,s5
800025e4:	213020ef          	jal	ra,80004ff6 <__muldf3>
800025e8:	8aaa                	mv	s5,a0
800025ea:	892e                	mv	s2,a1
800025ec:	bf95                	j	80002560 <_dtoa_r+0x5b6>
800025ee:	85d2                	mv	a1,s4
800025f0:	207020ef          	jal	ra,80004ff6 <__muldf3>
800025f4:	57f2                	lw	a5,60(sp)
800025f6:	49b2                	lw	s3,12(sp)
800025f8:	c4aa                	sw	a0,72(sp)
800025fa:	8b2e                	mv	s6,a1
800025fc:	c2be                	sw	a5,68(sp)
800025fe:	85ca                	mv	a1,s2
80002600:	8556                	mv	a0,s5
80002602:	488030ef          	jal	ra,80005a8a <__fixdfsi>
80002606:	c6aa                	sw	a0,76(sp)
80002608:	4e6030ef          	jal	ra,80005aee <__floatsidf>
8000260c:	862a                	mv	a2,a0
8000260e:	86ae                	mv	a3,a1
80002610:	8556                	mv	a0,s5
80002612:	85ca                	mv	a1,s2
80002614:	625020ef          	jal	ra,80005438 <__subdf3>
80002618:	47b6                	lw	a5,76(sp)
8000261a:	0985                	addi	s3,s3,1
8000261c:	8a2a                	mv	s4,a0
8000261e:	03078793          	addi	a5,a5,48
80002622:	fef98fa3          	sb	a5,-1(s3)
80002626:	57f2                	lw	a5,60(sp)
80002628:	892e                	mv	s2,a1
8000262a:	06f99263          	bne	s3,a5,8000268e <_dtoa_r+0x6e4>
8000262e:	0fffea97          	auipc	s5,0xfffe
80002632:	bfaa8a93          	addi	s5,s5,-1030 # 90000228 <_impure_ptr+0x50>
80002636:	000aa603          	lw	a2,0(s5)
8000263a:	004aa683          	lw	a3,4(s5)
8000263e:	4526                	lw	a0,72(sp)
80002640:	85da                	mv	a1,s6
80002642:	4b5010ef          	jal	ra,800042f6 <__adddf3>
80002646:	862a                	mv	a2,a0
80002648:	86ae                	mv	a3,a1
8000264a:	8552                	mv	a0,s4
8000264c:	85ca                	mv	a1,s2
8000264e:	05d020ef          	jal	ra,80004eaa <__gedf2>
80002652:	0ea04763          	bgtz	a0,80002740 <_dtoa_r+0x796>
80002656:	4626                	lw	a2,72(sp)
80002658:	000aa503          	lw	a0,0(s5)
8000265c:	004aa583          	lw	a1,4(s5)
80002660:	86da                	mv	a3,s6
80002662:	5d7020ef          	jal	ra,80005438 <__subdf3>
80002666:	862a                	mv	a2,a0
80002668:	86ae                	mv	a3,a1
8000266a:	8552                	mv	a0,s4
8000266c:	85ca                	mv	a1,s2
8000266e:	0e3020ef          	jal	ra,80004f50 <__ledf2>
80002672:	da0554e3          	bgez	a0,8000241a <_dtoa_r+0x470>
80002676:	03000793          	li	a5,48
8000267a:	4996                	lw	s3,68(sp)
8000267c:	fff98713          	addi	a4,s3,-1
80002680:	c2ba                	sw	a4,68(sp)
80002682:	fff9c703          	lbu	a4,-1(s3)
80002686:	fef70ae3          	beq	a4,a5,8000267a <_dtoa_r+0x6d0>
8000268a:	4de2                	lw	s11,24(sp)
8000268c:	a849                	j	8000271e <_dtoa_r+0x774>
8000268e:	0fffe797          	auipc	a5,0xfffe
80002692:	b8278793          	addi	a5,a5,-1150 # 90000210 <_impure_ptr+0x38>
80002696:	4390                	lw	a2,0(a5)
80002698:	43d4                	lw	a3,4(a5)
8000269a:	15d020ef          	jal	ra,80004ff6 <__muldf3>
8000269e:	8aaa                	mv	s5,a0
800026a0:	892e                	mv	s2,a1
800026a2:	bfb1                	j	800025fe <_dtoa_r+0x654>
800026a4:	47b2                	lw	a5,12(sp)
800026a6:	8c5a                	mv	s8,s6
800026a8:	8cce                	mv	s9,s3
800026aa:	00178b13          	addi	s6,a5,1
800026ae:	9d3e                	add	s10,s10,a5
800026b0:	0fffeb97          	auipc	s7,0xfffe
800026b4:	b60b8b93          	addi	s7,s7,-1184 # 90000210 <_impure_ptr+0x38>
800026b8:	8652                	mv	a2,s4
800026ba:	86d6                	mv	a3,s5
800026bc:	8566                	mv	a0,s9
800026be:	85e2                	mv	a1,s8
800026c0:	240020ef          	jal	ra,80004900 <__divdf3>
800026c4:	3c6030ef          	jal	ra,80005a8a <__fixdfsi>
800026c8:	892a                	mv	s2,a0
800026ca:	424030ef          	jal	ra,80005aee <__floatsidf>
800026ce:	8652                	mv	a2,s4
800026d0:	86d6                	mv	a3,s5
800026d2:	125020ef          	jal	ra,80004ff6 <__muldf3>
800026d6:	86ae                	mv	a3,a1
800026d8:	862a                	mv	a2,a0
800026da:	85e2                	mv	a1,s8
800026dc:	8566                	mv	a0,s9
800026de:	55b020ef          	jal	ra,80005438 <__subdf3>
800026e2:	03090693          	addi	a3,s2,48
800026e6:	fedb0fa3          	sb	a3,-1(s6)
800026ea:	89da                	mv	s3,s6
800026ec:	096d1363          	bne	s10,s6,80002772 <_dtoa_r+0x7c8>
800026f0:	862a                	mv	a2,a0
800026f2:	86ae                	mv	a3,a1
800026f4:	403010ef          	jal	ra,800042f6 <__adddf3>
800026f8:	8652                	mv	a2,s4
800026fa:	86d6                	mv	a3,s5
800026fc:	8baa                	mv	s7,a0
800026fe:	8b2e                	mv	s6,a1
80002700:	7aa020ef          	jal	ra,80004eaa <__gedf2>
80002704:	02a04d63          	bgtz	a0,8000273e <_dtoa_r+0x794>
80002708:	8652                	mv	a2,s4
8000270a:	86d6                	mv	a3,s5
8000270c:	855e                	mv	a0,s7
8000270e:	85da                	mv	a1,s6
80002710:	730020ef          	jal	ra,80004e40 <__eqdf2>
80002714:	e509                	bnez	a0,8000271e <_dtoa_r+0x774>
80002716:	00197913          	andi	s2,s2,1
8000271a:	02091263          	bnez	s2,8000273e <_dtoa_r+0x794>
8000271e:	8526                	mv	a0,s1
80002720:	85a2                	mv	a1,s0
80002722:	407000ef          	jal	ra,80003328 <_Bfree>
80002726:	57e2                	lw	a5,56(sp)
80002728:	00098023          	sb	zero,0(s3)
8000272c:	001d8513          	addi	a0,s11,1
80002730:	c388                	sw	a0,0(a5)
80002732:	5792                	lw	a5,36(sp)
80002734:	94078ee3          	beqz	a5,80002090 <_dtoa_r+0xe6>
80002738:	0137a023          	sw	s3,0(a5)
8000273c:	ba91                	j	80002090 <_dtoa_r+0xe6>
8000273e:	cc6e                	sw	s11,24(sp)
80002740:	87ce                	mv	a5,s3
80002742:	03900713          	li	a4,57
80002746:	89be                	mv	s3,a5
80002748:	fff7c683          	lbu	a3,-1(a5)
8000274c:	17fd                	addi	a5,a5,-1
8000274e:	00e69c63          	bne	a3,a4,80002766 <_dtoa_r+0x7bc>
80002752:	46b2                	lw	a3,12(sp)
80002754:	fef699e3          	bne	a3,a5,80002746 <_dtoa_r+0x79c>
80002758:	4762                	lw	a4,24(sp)
8000275a:	0705                	addi	a4,a4,1
8000275c:	cc3a                	sw	a4,24(sp)
8000275e:	03000713          	li	a4,48
80002762:	00e68023          	sb	a4,0(a3)
80002766:	0007c703          	lbu	a4,0(a5)
8000276a:	0705                	addi	a4,a4,1
8000276c:	00e78023          	sb	a4,0(a5)
80002770:	bf29                	j	8000268a <_dtoa_r+0x6e0>
80002772:	000ba603          	lw	a2,0(s7)
80002776:	004ba683          	lw	a3,4(s7)
8000277a:	0b05                	addi	s6,s6,1
8000277c:	07b020ef          	jal	ra,80004ff6 <__muldf3>
80002780:	4601                	li	a2,0
80002782:	4681                	li	a3,0
80002784:	8caa                	mv	s9,a0
80002786:	8c2e                	mv	s8,a1
80002788:	6b8020ef          	jal	ra,80004e40 <__eqdf2>
8000278c:	f515                	bnez	a0,800026b8 <_dtoa_r+0x70e>
8000278e:	bf41                	j	8000271e <_dtoa_r+0x774>
80002790:	4772                	lw	a4,28(sp)
80002792:	10070063          	beqz	a4,80002892 <_dtoa_r+0x8e8>
80002796:	46d2                	lw	a3,20(sp)
80002798:	4705                	li	a4,1
8000279a:	0cd74563          	blt	a4,a3,80002864 <_dtoa_r+0x8ba>
8000279e:	4706                	lw	a4,64(sp)
800027a0:	43378793          	addi	a5,a5,1075
800027a4:	e709                	bnez	a4,800027ae <_dtoa_r+0x804>
800027a6:	4766                	lw	a4,88(sp)
800027a8:	03600793          	li	a5,54
800027ac:	8f99                	sub	a5,a5,a4
800027ae:	8a66                	mv	s4,s9
800027b0:	8ade                	mv	s5,s7
800027b2:	4585                	li	a1,1
800027b4:	8526                	mv	a0,s1
800027b6:	9bbe                	add	s7,s7,a5
800027b8:	9c3e                	add	s8,s8,a5
800027ba:	539000ef          	jal	ra,800034f2 <__i2b>
800027be:	892a                	mv	s2,a0
800027c0:	01505e63          	blez	s5,800027dc <_dtoa_r+0x832>
800027c4:	01805c63          	blez	s8,800027dc <_dtoa_r+0x832>
800027c8:	87d6                	mv	a5,s5
800027ca:	015c5363          	bge	s8,s5,800027d0 <_dtoa_r+0x826>
800027ce:	87e2                	mv	a5,s8
800027d0:	40fb8bb3          	sub	s7,s7,a5
800027d4:	40fa8ab3          	sub	s5,s5,a5
800027d8:	40fc0c33          	sub	s8,s8,a5
800027dc:	040c8163          	beqz	s9,8000281e <_dtoa_r+0x874>
800027e0:	47f2                	lw	a5,28(sp)
800027e2:	cfc5                	beqz	a5,8000289a <_dtoa_r+0x8f0>
800027e4:	03405463          	blez	s4,8000280c <_dtoa_r+0x862>
800027e8:	85ca                	mv	a1,s2
800027ea:	8652                	mv	a2,s4
800027ec:	8526                	mv	a0,s1
800027ee:	6b9000ef          	jal	ra,800036a6 <__pow5mult>
800027f2:	8622                	mv	a2,s0
800027f4:	85aa                	mv	a1,a0
800027f6:	892a                	mv	s2,a0
800027f8:	8526                	mv	a0,s1
800027fa:	52f000ef          	jal	ra,80003528 <__multiply>
800027fe:	cc2a                	sw	a0,24(sp)
80002800:	85a2                	mv	a1,s0
80002802:	8526                	mv	a0,s1
80002804:	325000ef          	jal	ra,80003328 <_Bfree>
80002808:	47e2                	lw	a5,24(sp)
8000280a:	843e                	mv	s0,a5
8000280c:	414c8633          	sub	a2,s9,s4
80002810:	014c8763          	beq	s9,s4,8000281e <_dtoa_r+0x874>
80002814:	85a2                	mv	a1,s0
80002816:	8526                	mv	a0,s1
80002818:	68f000ef          	jal	ra,800036a6 <__pow5mult>
8000281c:	842a                	mv	s0,a0
8000281e:	4585                	li	a1,1
80002820:	8526                	mv	a0,s1
80002822:	4d1000ef          	jal	ra,800034f2 <__i2b>
80002826:	57a2                	lw	a5,40(sp)
80002828:	8a2a                	mv	s4,a0
8000282a:	06f05a63          	blez	a5,8000289e <_dtoa_r+0x8f4>
8000282e:	863e                	mv	a2,a5
80002830:	85aa                	mv	a1,a0
80002832:	8526                	mv	a0,s1
80002834:	673000ef          	jal	ra,800036a6 <__pow5mult>
80002838:	4752                	lw	a4,20(sp)
8000283a:	4785                	li	a5,1
8000283c:	8a2a                	mv	s4,a0
8000283e:	4c81                	li	s9,0
80002840:	06e7c763          	blt	a5,a4,800028ae <_dtoa_r+0x904>
80002844:	4c81                	li	s9,0
80002846:	06099163          	bnez	s3,800028a8 <_dtoa_r+0x8fe>
8000284a:	00cb1793          	slli	a5,s6,0xc
8000284e:	efa9                	bnez	a5,800028a8 <_dtoa_r+0x8fe>
80002850:	7ff005b7          	lui	a1,0x7ff00
80002854:	00bb7b33          	and	s6,s6,a1
80002858:	040b0863          	beqz	s6,800028a8 <_dtoa_r+0x8fe>
8000285c:	0b85                	addi	s7,s7,1
8000285e:	0c05                	addi	s8,s8,1
80002860:	4c85                	li	s9,1
80002862:	a099                	j	800028a8 <_dtoa_r+0x8fe>
80002864:	fffd0a13          	addi	s4,s10,-1
80002868:	014cca63          	blt	s9,s4,8000287c <_dtoa_r+0x8d2>
8000286c:	414c8a33          	sub	s4,s9,s4
80002870:	000d5e63          	bgez	s10,8000288c <_dtoa_r+0x8e2>
80002874:	41ab8ab3          	sub	s5,s7,s10
80002878:	4781                	li	a5,0
8000287a:	bf25                	j	800027b2 <_dtoa_r+0x808>
8000287c:	57a2                	lw	a5,40(sp)
8000287e:	419a0cb3          	sub	s9,s4,s9
80002882:	97e6                	add	a5,a5,s9
80002884:	d43e                	sw	a5,40(sp)
80002886:	8cd2                	mv	s9,s4
80002888:	4a01                	li	s4,0
8000288a:	b7dd                	j	80002870 <_dtoa_r+0x8c6>
8000288c:	8ade                	mv	s5,s7
8000288e:	87ea                	mv	a5,s10
80002890:	b70d                	j	800027b2 <_dtoa_r+0x808>
80002892:	8a66                	mv	s4,s9
80002894:	8ade                	mv	s5,s7
80002896:	4901                	li	s2,0
80002898:	b725                	j	800027c0 <_dtoa_r+0x816>
8000289a:	8666                	mv	a2,s9
8000289c:	bfa5                	j	80002814 <_dtoa_r+0x86a>
8000289e:	4752                	lw	a4,20(sp)
800028a0:	4785                	li	a5,1
800028a2:	4c81                	li	s9,0
800028a4:	fae7d0e3          	bge	a5,a4,80002844 <_dtoa_r+0x89a>
800028a8:	57a2                	lw	a5,40(sp)
800028aa:	4505                	li	a0,1
800028ac:	cf89                	beqz	a5,800028c6 <_dtoa_r+0x91c>
800028ae:	010a2783          	lw	a5,16(s4)
800028b2:	078d                	addi	a5,a5,3
800028b4:	078a                	slli	a5,a5,0x2
800028b6:	97d2                	add	a5,a5,s4
800028b8:	43c8                	lw	a0,4(a5)
800028ba:	389000ef          	jal	ra,80003442 <__hi0bits>
800028be:	02000793          	li	a5,32
800028c2:	40a78533          	sub	a0,a5,a0
800028c6:	9562                	add	a0,a0,s8
800028c8:	897d                	andi	a0,a0,31
800028ca:	c151                	beqz	a0,8000294e <_dtoa_r+0x9a4>
800028cc:	02000793          	li	a5,32
800028d0:	8f89                	sub	a5,a5,a0
800028d2:	4711                	li	a4,4
800028d4:	06f75a63          	bge	a4,a5,80002948 <_dtoa_r+0x99e>
800028d8:	47f1                	li	a5,28
800028da:	40a78533          	sub	a0,a5,a0
800028de:	9baa                	add	s7,s7,a0
800028e0:	9aaa                	add	s5,s5,a0
800028e2:	9c2a                	add	s8,s8,a0
800028e4:	01705863          	blez	s7,800028f4 <_dtoa_r+0x94a>
800028e8:	85a2                	mv	a1,s0
800028ea:	865e                	mv	a2,s7
800028ec:	8526                	mv	a0,s1
800028ee:	68b000ef          	jal	ra,80003778 <__lshift>
800028f2:	842a                	mv	s0,a0
800028f4:	01805863          	blez	s8,80002904 <_dtoa_r+0x95a>
800028f8:	85d2                	mv	a1,s4
800028fa:	8662                	mv	a2,s8
800028fc:	8526                	mv	a0,s1
800028fe:	67b000ef          	jal	ra,80003778 <__lshift>
80002902:	8a2a                	mv	s4,a0
80002904:	57d2                	lw	a5,52(sp)
80002906:	c7b1                	beqz	a5,80002952 <_dtoa_r+0x9a8>
80002908:	85d2                	mv	a1,s4
8000290a:	8522                	mv	a0,s0
8000290c:	771000ef          	jal	ra,8000387c <__mcmp>
80002910:	04055163          	bgez	a0,80002952 <_dtoa_r+0x9a8>
80002914:	85a2                	mv	a1,s0
80002916:	4681                	li	a3,0
80002918:	4629                	li	a2,10
8000291a:	8526                	mv	a0,s1
8000291c:	26d000ef          	jal	ra,80003388 <__multadd>
80002920:	47f2                	lw	a5,28(sp)
80002922:	1dfd                	addi	s11,s11,-1
80002924:	842a                	mv	s0,a0
80002926:	28078d63          	beqz	a5,80002bc0 <_dtoa_r+0xc16>
8000292a:	85ca                	mv	a1,s2
8000292c:	4681                	li	a3,0
8000292e:	4629                	li	a2,10
80002930:	8526                	mv	a0,s1
80002932:	257000ef          	jal	ra,80003388 <__multadd>
80002936:	47c2                	lw	a5,16(sp)
80002938:	892a                	mv	s2,a0
8000293a:	08f04563          	bgtz	a5,800029c4 <_dtoa_r+0xa1a>
8000293e:	4752                	lw	a4,20(sp)
80002940:	4789                	li	a5,2
80002942:	00e7cf63          	blt	a5,a4,80002960 <_dtoa_r+0x9b6>
80002946:	a8bd                	j	800029c4 <_dtoa_r+0xa1a>
80002948:	f8e78ee3          	beq	a5,a4,800028e4 <_dtoa_r+0x93a>
8000294c:	853e                	mv	a0,a5
8000294e:	0571                	addi	a0,a0,28
80002950:	b779                	j	800028de <_dtoa_r+0x934>
80002952:	07a04563          	bgtz	s10,800029bc <_dtoa_r+0xa12>
80002956:	4752                	lw	a4,20(sp)
80002958:	4789                	li	a5,2
8000295a:	06e7d163          	bge	a5,a4,800029bc <_dtoa_r+0xa12>
8000295e:	c86a                	sw	s10,16(sp)
80002960:	47c2                	lw	a5,16(sp)
80002962:	ef91                	bnez	a5,8000297e <_dtoa_r+0x9d4>
80002964:	85d2                	mv	a1,s4
80002966:	4681                	li	a3,0
80002968:	4615                	li	a2,5
8000296a:	8526                	mv	a0,s1
8000296c:	21d000ef          	jal	ra,80003388 <__multadd>
80002970:	8a2a                	mv	s4,a0
80002972:	85aa                	mv	a1,a0
80002974:	8522                	mv	a0,s0
80002976:	707000ef          	jal	ra,8000387c <__mcmp>
8000297a:	aea04ce3          	bgtz	a0,80002472 <_dtoa_r+0x4c8>
8000297e:	5782                	lw	a5,32(sp)
80002980:	49b2                	lw	s3,12(sp)
80002982:	fff7cd93          	not	s11,a5
80002986:	4b01                	li	s6,0
80002988:	85d2                	mv	a1,s4
8000298a:	8526                	mv	a0,s1
8000298c:	19d000ef          	jal	ra,80003328 <_Bfree>
80002990:	d80907e3          	beqz	s2,8000271e <_dtoa_r+0x774>
80002994:	000b0863          	beqz	s6,800029a4 <_dtoa_r+0x9fa>
80002998:	012b0663          	beq	s6,s2,800029a4 <_dtoa_r+0x9fa>
8000299c:	85da                	mv	a1,s6
8000299e:	8526                	mv	a0,s1
800029a0:	189000ef          	jal	ra,80003328 <_Bfree>
800029a4:	85ca                	mv	a1,s2
800029a6:	8526                	mv	a0,s1
800029a8:	181000ef          	jal	ra,80003328 <_Bfree>
800029ac:	bb8d                	j	8000271e <_dtoa_r+0x774>
800029ae:	4a01                	li	s4,0
800029b0:	4901                	li	s2,0
800029b2:	b7f1                	j	8000297e <_dtoa_r+0x9d4>
800029b4:	4de2                	lw	s11,24(sp)
800029b6:	4a01                	li	s4,0
800029b8:	4901                	li	s2,0
800029ba:	bc65                	j	80002472 <_dtoa_r+0x4c8>
800029bc:	47f2                	lw	a5,28(sp)
800029be:	c86a                	sw	s10,16(sp)
800029c0:	20078763          	beqz	a5,80002bce <_dtoa_r+0xc24>
800029c4:	01505863          	blez	s5,800029d4 <_dtoa_r+0xa2a>
800029c8:	85ca                	mv	a1,s2
800029ca:	8656                	mv	a2,s5
800029cc:	8526                	mv	a0,s1
800029ce:	5ab000ef          	jal	ra,80003778 <__lshift>
800029d2:	892a                	mv	s2,a0
800029d4:	854a                	mv	a0,s2
800029d6:	040c8063          	beqz	s9,80002a16 <_dtoa_r+0xa6c>
800029da:	00492583          	lw	a1,4(s2)
800029de:	8526                	mv	a0,s1
800029e0:	09d000ef          	jal	ra,8000327c <_Balloc>
800029e4:	8aaa                	mv	s5,a0
800029e6:	e911                	bnez	a0,800029fa <_dtoa_r+0xa50>
800029e8:	00003697          	auipc	a3,0x3
800029ec:	72468693          	addi	a3,a3,1828 # 8000610c <__clz_tab+0x210>
800029f0:	4601                	li	a2,0
800029f2:	2ea00593          	li	a1,746
800029f6:	e00ff06f          	j	80001ff6 <_dtoa_r+0x4c>
800029fa:	01092603          	lw	a2,16(s2)
800029fe:	00c90593          	addi	a1,s2,12
80002a02:	0531                	addi	a0,a0,12
80002a04:	0609                	addi	a2,a2,2
80002a06:	060a                	slli	a2,a2,0x2
80002a08:	6f0000ef          	jal	ra,800030f8 <memcpy>
80002a0c:	4605                	li	a2,1
80002a0e:	85d6                	mv	a1,s5
80002a10:	8526                	mv	a0,s1
80002a12:	567000ef          	jal	ra,80003778 <__lshift>
80002a16:	47b2                	lw	a5,12(sp)
80002a18:	4742                	lw	a4,16(sp)
80002a1a:	8b4a                	mv	s6,s2
80002a1c:	00178c13          	addi	s8,a5,1
80002a20:	97ba                	add	a5,a5,a4
80002a22:	cc3e                	sw	a5,24(sp)
80002a24:	0019f793          	andi	a5,s3,1
80002a28:	892a                	mv	s2,a0
80002a2a:	c83e                	sw	a5,16(sp)
80002a2c:	85d2                	mv	a1,s4
80002a2e:	8522                	mv	a0,s0
80002a30:	c4eff0ef          	jal	ra,80001e7e <quorem>
80002a34:	85da                	mv	a1,s6
80002a36:	8caa                	mv	s9,a0
80002a38:	03050a93          	addi	s5,a0,48
80002a3c:	8522                	mv	a0,s0
80002a3e:	63f000ef          	jal	ra,8000387c <__mcmp>
80002a42:	85d2                	mv	a1,s4
80002a44:	8baa                	mv	s7,a0
80002a46:	864a                	mv	a2,s2
80002a48:	8526                	mv	a0,s1
80002a4a:	669000ef          	jal	ra,800038b2 <__mdiff>
80002a4e:	4554                	lw	a3,12(a0)
80002a50:	fffc0d13          	addi	s10,s8,-1
80002a54:	85aa                	mv	a1,a0
80002a56:	4705                	li	a4,1
80002a58:	e699                	bnez	a3,80002a66 <_dtoa_r+0xabc>
80002a5a:	ce2a                	sw	a0,28(sp)
80002a5c:	8522                	mv	a0,s0
80002a5e:	61f000ef          	jal	ra,8000387c <__mcmp>
80002a62:	45f2                	lw	a1,28(sp)
80002a64:	872a                	mv	a4,a0
80002a66:	8526                	mv	a0,s1
80002a68:	ce3a                	sw	a4,28(sp)
80002a6a:	0bf000ef          	jal	ra,80003328 <_Bfree>
80002a6e:	47d2                	lw	a5,20(sp)
80002a70:	4772                	lw	a4,28(sp)
80002a72:	89e2                	mv	s3,s8
80002a74:	00e7e6b3          	or	a3,a5,a4
80002a78:	47c2                	lw	a5,16(sp)
80002a7a:	8edd                	or	a3,a3,a5
80002a7c:	ee81                	bnez	a3,80002a94 <_dtoa_r+0xaea>
80002a7e:	03900713          	li	a4,57
80002a82:	04ea8863          	beq	s5,a4,80002ad2 <_dtoa_r+0xb28>
80002a86:	01705463          	blez	s7,80002a8e <_dtoa_r+0xae4>
80002a8a:	031c8a93          	addi	s5,s9,49
80002a8e:	015d0023          	sb	s5,0(s10)
80002a92:	bddd                	j	80002988 <_dtoa_r+0x9de>
80002a94:	000bca63          	bltz	s7,80002aa8 <_dtoa_r+0xafe>
80002a98:	47d2                	lw	a5,20(sp)
80002a9a:	0177ebb3          	or	s7,a5,s7
80002a9e:	47c2                	lw	a5,16(sp)
80002aa0:	00fbebb3          	or	s7,s7,a5
80002aa4:	040b9863          	bnez	s7,80002af4 <_dtoa_r+0xb4a>
80002aa8:	fee053e3          	blez	a4,80002a8e <_dtoa_r+0xae4>
80002aac:	85a2                	mv	a1,s0
80002aae:	4605                	li	a2,1
80002ab0:	8526                	mv	a0,s1
80002ab2:	4c7000ef          	jal	ra,80003778 <__lshift>
80002ab6:	85d2                	mv	a1,s4
80002ab8:	842a                	mv	s0,a0
80002aba:	5c3000ef          	jal	ra,8000387c <__mcmp>
80002abe:	00a04663          	bgtz	a0,80002aca <_dtoa_r+0xb20>
80002ac2:	f571                	bnez	a0,80002a8e <_dtoa_r+0xae4>
80002ac4:	001af713          	andi	a4,s5,1
80002ac8:	d379                	beqz	a4,80002a8e <_dtoa_r+0xae4>
80002aca:	03900713          	li	a4,57
80002ace:	faea9ee3          	bne	s5,a4,80002a8a <_dtoa_r+0xae0>
80002ad2:	03900793          	li	a5,57
80002ad6:	00fd0023          	sb	a5,0(s10)
80002ada:	87ce                	mv	a5,s3
80002adc:	03900693          	li	a3,57
80002ae0:	89be                	mv	s3,a5
80002ae2:	fff9c703          	lbu	a4,-1(s3)
80002ae6:	17fd                	addi	a5,a5,-1
80002ae8:	0ad70563          	beq	a4,a3,80002b92 <_dtoa_r+0xbe8>
80002aec:	0705                	addi	a4,a4,1
80002aee:	00e78023          	sb	a4,0(a5)
80002af2:	bd59                	j	80002988 <_dtoa_r+0x9de>
80002af4:	00e05b63          	blez	a4,80002b0a <_dtoa_r+0xb60>
80002af8:	03900713          	li	a4,57
80002afc:	fcea8be3          	beq	s5,a4,80002ad2 <_dtoa_r+0xb28>
80002b00:	001a8793          	addi	a5,s5,1
80002b04:	00fd0023          	sb	a5,0(s10)
80002b08:	b541                	j	80002988 <_dtoa_r+0x9de>
80002b0a:	47e2                	lw	a5,24(sp)
80002b0c:	ff5c0fa3          	sb	s5,-1(s8)
80002b10:	05878863          	beq	a5,s8,80002b60 <_dtoa_r+0xbb6>
80002b14:	85a2                	mv	a1,s0
80002b16:	4681                	li	a3,0
80002b18:	4629                	li	a2,10
80002b1a:	8526                	mv	a0,s1
80002b1c:	06d000ef          	jal	ra,80003388 <__multadd>
80002b20:	842a                	mv	s0,a0
80002b22:	4681                	li	a3,0
80002b24:	4629                	li	a2,10
80002b26:	85da                	mv	a1,s6
80002b28:	8526                	mv	a0,s1
80002b2a:	012b1863          	bne	s6,s2,80002b3a <_dtoa_r+0xb90>
80002b2e:	05b000ef          	jal	ra,80003388 <__multadd>
80002b32:	8b2a                	mv	s6,a0
80002b34:	892a                	mv	s2,a0
80002b36:	0c05                	addi	s8,s8,1
80002b38:	bdd5                	j	80002a2c <_dtoa_r+0xa82>
80002b3a:	04f000ef          	jal	ra,80003388 <__multadd>
80002b3e:	85ca                	mv	a1,s2
80002b40:	8b2a                	mv	s6,a0
80002b42:	4681                	li	a3,0
80002b44:	4629                	li	a2,10
80002b46:	8526                	mv	a0,s1
80002b48:	041000ef          	jal	ra,80003388 <__multadd>
80002b4c:	892a                	mv	s2,a0
80002b4e:	b7e5                	j	80002b36 <_dtoa_r+0xb8c>
80002b50:	47c2                	lw	a5,16(sp)
80002b52:	4985                	li	s3,1
80002b54:	00f05363          	blez	a5,80002b5a <_dtoa_r+0xbb0>
80002b58:	89be                	mv	s3,a5
80002b5a:	47b2                	lw	a5,12(sp)
80002b5c:	4b01                	li	s6,0
80002b5e:	99be                	add	s3,s3,a5
80002b60:	85a2                	mv	a1,s0
80002b62:	4605                	li	a2,1
80002b64:	8526                	mv	a0,s1
80002b66:	413000ef          	jal	ra,80003778 <__lshift>
80002b6a:	85d2                	mv	a1,s4
80002b6c:	842a                	mv	s0,a0
80002b6e:	50f000ef          	jal	ra,8000387c <__mcmp>
80002b72:	f6a044e3          	bgtz	a0,80002ada <_dtoa_r+0xb30>
80002b76:	e501                	bnez	a0,80002b7e <_dtoa_r+0xbd4>
80002b78:	001af793          	andi	a5,s5,1
80002b7c:	ffb9                	bnez	a5,80002ada <_dtoa_r+0xb30>
80002b7e:	87ce                	mv	a5,s3
80002b80:	03000713          	li	a4,48
80002b84:	89be                	mv	s3,a5
80002b86:	fff7c683          	lbu	a3,-1(a5)
80002b8a:	17fd                	addi	a5,a5,-1
80002b8c:	fee68ce3          	beq	a3,a4,80002b84 <_dtoa_r+0xbda>
80002b90:	bbe5                	j	80002988 <_dtoa_r+0x9de>
80002b92:	4732                	lw	a4,12(sp)
80002b94:	f4f716e3          	bne	a4,a5,80002ae0 <_dtoa_r+0xb36>
80002b98:	03100793          	li	a5,49
80002b9c:	0d85                	addi	s11,s11,1
80002b9e:	00f70023          	sb	a5,0(a4)
80002ba2:	b3dd                	j	80002988 <_dtoa_r+0x9de>
80002ba4:	5712                	lw	a4,36(sp)
80002ba6:	00003797          	auipc	a5,0x3
80002baa:	4ea78793          	addi	a5,a5,1258 # 80006090 <__clz_tab+0x194>
80002bae:	c63e                	sw	a5,12(sp)
80002bb0:	00003797          	auipc	a5,0x3
80002bb4:	4e878793          	addi	a5,a5,1256 # 80006098 <__clz_tab+0x19c>
80002bb8:	cc071a63          	bnez	a4,8000208c <_dtoa_r+0xe2>
80002bbc:	cd4ff06f          	j	80002090 <_dtoa_r+0xe6>
80002bc0:	47c2                	lw	a5,16(sp)
80002bc2:	00f04663          	bgtz	a5,80002bce <_dtoa_r+0xc24>
80002bc6:	4752                	lw	a4,20(sp)
80002bc8:	4789                	li	a5,2
80002bca:	d8e7cbe3          	blt	a5,a4,80002960 <_dtoa_r+0x9b6>
80002bce:	4981                	li	s3,0
80002bd0:	85d2                	mv	a1,s4
80002bd2:	8522                	mv	a0,s0
80002bd4:	aaaff0ef          	jal	ra,80001e7e <quorem>
80002bd8:	47b2                	lw	a5,12(sp)
80002bda:	03050a93          	addi	s5,a0,48
80002bde:	01378733          	add	a4,a5,s3
80002be2:	47c2                	lw	a5,16(sp)
80002be4:	01570023          	sb	s5,0(a4)
80002be8:	0985                	addi	s3,s3,1
80002bea:	f6f9d3e3          	bge	s3,a5,80002b50 <_dtoa_r+0xba6>
80002bee:	85a2                	mv	a1,s0
80002bf0:	4681                	li	a3,0
80002bf2:	4629                	li	a2,10
80002bf4:	8526                	mv	a0,s1
80002bf6:	792000ef          	jal	ra,80003388 <__multadd>
80002bfa:	842a                	mv	s0,a0
80002bfc:	bfd1                	j	80002bd0 <_dtoa_r+0xc26>

80002bfe <__sflush_r>:
__sflush_r():
80002bfe:	00c5d783          	lhu	a5,12(a1) # 7ff0000c <__stack_size+0x7feff80c>
80002c02:	1101                	addi	sp,sp,-32
80002c04:	cc22                	sw	s0,24(sp)
80002c06:	ca26                	sw	s1,20(sp)
80002c08:	ce06                	sw	ra,28(sp)
80002c0a:	c84a                	sw	s2,16(sp)
80002c0c:	c64e                	sw	s3,12(sp)
80002c0e:	0087f713          	andi	a4,a5,8
80002c12:	84aa                	mv	s1,a0
80002c14:	842e                	mv	s0,a1
80002c16:	e37d                	bnez	a4,80002cfc <__sflush_r+0xfe>
80002c18:	41d8                	lw	a4,4(a1)
80002c1a:	00e04763          	bgtz	a4,80002c28 <__sflush_r+0x2a>
80002c1e:	41b8                	lw	a4,64(a1)
80002c20:	00e04463          	bgtz	a4,80002c28 <__sflush_r+0x2a>
80002c24:	4501                	li	a0,0
80002c26:	a87d                	j	80002ce4 <__sflush_r+0xe6>
80002c28:	5458                	lw	a4,44(s0)
80002c2a:	df6d                	beqz	a4,80002c24 <__sflush_r+0x26>
80002c2c:	6685                	lui	a3,0x1
80002c2e:	0004a903          	lw	s2,0(s1)
80002c32:	8ff5                	and	a5,a5,a3
80002c34:	0004a023          	sw	zero,0(s1)
80002c38:	cfad                	beqz	a5,80002cb2 <__sflush_r+0xb4>
80002c3a:	4868                	lw	a0,84(s0)
80002c3c:	00c45783          	lhu	a5,12(s0)
80002c40:	8b91                	andi	a5,a5,4
80002c42:	c799                	beqz	a5,80002c50 <__sflush_r+0x52>
80002c44:	405c                	lw	a5,4(s0)
80002c46:	8d1d                	sub	a0,a0,a5
80002c48:	585c                	lw	a5,52(s0)
80002c4a:	c399                	beqz	a5,80002c50 <__sflush_r+0x52>
80002c4c:	403c                	lw	a5,64(s0)
80002c4e:	8d1d                	sub	a0,a0,a5
80002c50:	545c                	lw	a5,44(s0)
80002c52:	500c                	lw	a1,32(s0)
80002c54:	862a                	mv	a2,a0
80002c56:	4681                	li	a3,0
80002c58:	8526                	mv	a0,s1
80002c5a:	9782                	jalr	a5
80002c5c:	57fd                	li	a5,-1
80002c5e:	00c45703          	lhu	a4,12(s0)
80002c62:	00f51d63          	bne	a0,a5,80002c7c <__sflush_r+0x7e>
80002c66:	4094                	lw	a3,0(s1)
80002c68:	47f5                	li	a5,29
80002c6a:	08d7e463          	bltu	a5,a3,80002cf2 <__sflush_r+0xf4>
80002c6e:	204007b7          	lui	a5,0x20400
80002c72:	0785                	addi	a5,a5,1
80002c74:	00d7d7b3          	srl	a5,a5,a3
80002c78:	8b85                	andi	a5,a5,1
80002c7a:	cfa5                	beqz	a5,80002cf2 <__sflush_r+0xf4>
80002c7c:	481c                	lw	a5,16(s0)
80002c7e:	00042223          	sw	zero,4(s0)
80002c82:	c01c                	sw	a5,0(s0)
80002c84:	6785                	lui	a5,0x1
80002c86:	8f7d                	and	a4,a4,a5
80002c88:	c719                	beqz	a4,80002c96 <__sflush_r+0x98>
80002c8a:	57fd                	li	a5,-1
80002c8c:	00f51463          	bne	a0,a5,80002c94 <__sflush_r+0x96>
80002c90:	409c                	lw	a5,0(s1)
80002c92:	e391                	bnez	a5,80002c96 <__sflush_r+0x98>
80002c94:	c868                	sw	a0,84(s0)
80002c96:	584c                	lw	a1,52(s0)
80002c98:	0124a023          	sw	s2,0(s1)
80002c9c:	d5c1                	beqz	a1,80002c24 <__sflush_r+0x26>
80002c9e:	04440793          	addi	a5,s0,68
80002ca2:	00f58563          	beq	a1,a5,80002cac <__sflush_r+0xae>
80002ca6:	8526                	mv	a0,s1
80002ca8:	68b000ef          	jal	ra,80003b32 <_free_r>
80002cac:	02042a23          	sw	zero,52(s0)
80002cb0:	bf95                	j	80002c24 <__sflush_r+0x26>
80002cb2:	500c                	lw	a1,32(s0)
80002cb4:	4685                	li	a3,1
80002cb6:	4601                	li	a2,0
80002cb8:	8526                	mv	a0,s1
80002cba:	9702                	jalr	a4
80002cbc:	57fd                	li	a5,-1
80002cbe:	f6f51fe3          	bne	a0,a5,80002c3c <__sflush_r+0x3e>
80002cc2:	409c                	lw	a5,0(s1)
80002cc4:	dfa5                	beqz	a5,80002c3c <__sflush_r+0x3e>
80002cc6:	4775                	li	a4,29
80002cc8:	00e78563          	beq	a5,a4,80002cd2 <__sflush_r+0xd4>
80002ccc:	4759                	li	a4,22
80002cce:	00e79563          	bne	a5,a4,80002cd8 <__sflush_r+0xda>
80002cd2:	0124a023          	sw	s2,0(s1)
80002cd6:	b7b9                	j	80002c24 <__sflush_r+0x26>
80002cd8:	00c45783          	lhu	a5,12(s0)
80002cdc:	0407e793          	ori	a5,a5,64
80002ce0:	00f41623          	sh	a5,12(s0)
80002ce4:	40f2                	lw	ra,28(sp)
80002ce6:	4462                	lw	s0,24(sp)
80002ce8:	44d2                	lw	s1,20(sp)
80002cea:	4942                	lw	s2,16(sp)
80002cec:	49b2                	lw	s3,12(sp)
80002cee:	6105                	addi	sp,sp,32
80002cf0:	8082                	ret
80002cf2:	04076713          	ori	a4,a4,64
80002cf6:	00e41623          	sh	a4,12(s0)
80002cfa:	b7ed                	j	80002ce4 <__sflush_r+0xe6>
80002cfc:	0105a983          	lw	s3,16(a1)
80002d00:	f20982e3          	beqz	s3,80002c24 <__sflush_r+0x26>
80002d04:	0005a903          	lw	s2,0(a1)
80002d08:	8b8d                	andi	a5,a5,3
80002d0a:	0135a023          	sw	s3,0(a1)
80002d0e:	41390933          	sub	s2,s2,s3
80002d12:	4701                	li	a4,0
80002d14:	e391                	bnez	a5,80002d18 <__sflush_r+0x11a>
80002d16:	49d8                	lw	a4,20(a1)
80002d18:	c418                	sw	a4,8(s0)
80002d1a:	f12055e3          	blez	s2,80002c24 <__sflush_r+0x26>
80002d1e:	541c                	lw	a5,40(s0)
80002d20:	500c                	lw	a1,32(s0)
80002d22:	86ca                	mv	a3,s2
80002d24:	864e                	mv	a2,s3
80002d26:	8526                	mv	a0,s1
80002d28:	9782                	jalr	a5
80002d2a:	00a04a63          	bgtz	a0,80002d3e <__sflush_r+0x140>
80002d2e:	00c45783          	lhu	a5,12(s0)
80002d32:	557d                	li	a0,-1
80002d34:	0407e793          	ori	a5,a5,64
80002d38:	00f41623          	sh	a5,12(s0)
80002d3c:	b765                	j	80002ce4 <__sflush_r+0xe6>
80002d3e:	99aa                	add	s3,s3,a0
80002d40:	40a90933          	sub	s2,s2,a0
80002d44:	bfd9                	j	80002d1a <__sflush_r+0x11c>

80002d46 <_fflush_r>:
_fflush_r():
80002d46:	499c                	lw	a5,16(a1)
80002d48:	cfb9                	beqz	a5,80002da6 <_fflush_r+0x60>
80002d4a:	1101                	addi	sp,sp,-32
80002d4c:	cc22                	sw	s0,24(sp)
80002d4e:	ce06                	sw	ra,28(sp)
80002d50:	842a                	mv	s0,a0
80002d52:	c511                	beqz	a0,80002d5e <_fflush_r+0x18>
80002d54:	4d1c                	lw	a5,24(a0)
80002d56:	e781                	bnez	a5,80002d5e <_fflush_r+0x18>
80002d58:	c62e                	sw	a1,12(sp)
80002d5a:	2221                	jal	80002e62 <__sinit>
80002d5c:	45b2                	lw	a1,12(sp)
80002d5e:	00003797          	auipc	a5,0x3
80002d62:	3e278793          	addi	a5,a5,994 # 80006140 <__sf_fake_stdin>
80002d66:	00f59b63          	bne	a1,a5,80002d7c <_fflush_r+0x36>
80002d6a:	404c                	lw	a1,4(s0)
80002d6c:	00c59783          	lh	a5,12(a1)
80002d70:	c795                	beqz	a5,80002d9c <_fflush_r+0x56>
80002d72:	8522                	mv	a0,s0
80002d74:	4462                	lw	s0,24(sp)
80002d76:	40f2                	lw	ra,28(sp)
80002d78:	6105                	addi	sp,sp,32
80002d7a:	b551                	j	80002bfe <__sflush_r>
80002d7c:	00003797          	auipc	a5,0x3
80002d80:	3e478793          	addi	a5,a5,996 # 80006160 <__sf_fake_stdout>
80002d84:	00f59463          	bne	a1,a5,80002d8c <_fflush_r+0x46>
80002d88:	440c                	lw	a1,8(s0)
80002d8a:	b7cd                	j	80002d6c <_fflush_r+0x26>
80002d8c:	00003797          	auipc	a5,0x3
80002d90:	39478793          	addi	a5,a5,916 # 80006120 <__sf_fake_stderr>
80002d94:	fcf59ce3          	bne	a1,a5,80002d6c <_fflush_r+0x26>
80002d98:	444c                	lw	a1,12(s0)
80002d9a:	bfc9                	j	80002d6c <_fflush_r+0x26>
80002d9c:	40f2                	lw	ra,28(sp)
80002d9e:	4462                	lw	s0,24(sp)
80002da0:	4501                	li	a0,0
80002da2:	6105                	addi	sp,sp,32
80002da4:	8082                	ret
80002da6:	4501                	li	a0,0
80002da8:	8082                	ret

80002daa <std>:
std():
80002daa:	1141                	addi	sp,sp,-16
80002dac:	c422                	sw	s0,8(sp)
80002dae:	c606                	sw	ra,12(sp)
80002db0:	842a                	mv	s0,a0
80002db2:	00b51623          	sh	a1,12(a0)
80002db6:	00c51723          	sh	a2,14(a0)
80002dba:	00052023          	sw	zero,0(a0)
80002dbe:	00052223          	sw	zero,4(a0)
80002dc2:	00052423          	sw	zero,8(a0)
80002dc6:	06052223          	sw	zero,100(a0)
80002dca:	00052823          	sw	zero,16(a0)
80002dce:	00052a23          	sw	zero,20(a0)
80002dd2:	00052c23          	sw	zero,24(a0)
80002dd6:	4621                	li	a2,8
80002dd8:	4581                	li	a1,0
80002dda:	05c50513          	addi	a0,a0,92
80002dde:	2edd                	jal	800031d4 <memset>
80002de0:	00001797          	auipc	a5,0x1
80002de4:	1f278793          	addi	a5,a5,498 # 80003fd2 <__sread>
80002de8:	d05c                	sw	a5,36(s0)
80002dea:	00001797          	auipc	a5,0x1
80002dee:	21878793          	addi	a5,a5,536 # 80004002 <__swrite>
80002df2:	d41c                	sw	a5,40(s0)
80002df4:	00001797          	auipc	a5,0x1
80002df8:	25c78793          	addi	a5,a5,604 # 80004050 <__sseek>
80002dfc:	d45c                	sw	a5,44(s0)
80002dfe:	00001797          	auipc	a5,0x1
80002e02:	28878793          	addi	a5,a5,648 # 80004086 <__sclose>
80002e06:	40b2                	lw	ra,12(sp)
80002e08:	d000                	sw	s0,32(s0)
80002e0a:	d81c                	sw	a5,48(s0)
80002e0c:	4422                	lw	s0,8(sp)
80002e0e:	0141                	addi	sp,sp,16
80002e10:	8082                	ret

80002e12 <_cleanup_r>:
_cleanup_r():
80002e12:	00000597          	auipc	a1,0x0
80002e16:	f3458593          	addi	a1,a1,-204 # 80002d46 <_fflush_r>
80002e1a:	a299                	j	80002f60 <_fwalk_reent>

80002e1c <__sfmoreglue>:
__sfmoreglue():
80002e1c:	1141                	addi	sp,sp,-16
80002e1e:	c226                	sw	s1,4(sp)
80002e20:	06800613          	li	a2,104
80002e24:	fff58493          	addi	s1,a1,-1
80002e28:	02c484b3          	mul	s1,s1,a2
80002e2c:	c04a                	sw	s2,0(sp)
80002e2e:	892e                	mv	s2,a1
80002e30:	c422                	sw	s0,8(sp)
80002e32:	c606                	sw	ra,12(sp)
80002e34:	07448593          	addi	a1,s1,116
80002e38:	599000ef          	jal	ra,80003bd0 <_malloc_r>
80002e3c:	842a                	mv	s0,a0
80002e3e:	c919                	beqz	a0,80002e54 <__sfmoreglue+0x38>
80002e40:	00052023          	sw	zero,0(a0)
80002e44:	01252223          	sw	s2,4(a0)
80002e48:	0531                	addi	a0,a0,12
80002e4a:	c408                	sw	a0,8(s0)
80002e4c:	06848613          	addi	a2,s1,104
80002e50:	4581                	li	a1,0
80002e52:	2649                	jal	800031d4 <memset>
80002e54:	40b2                	lw	ra,12(sp)
80002e56:	8522                	mv	a0,s0
80002e58:	4422                	lw	s0,8(sp)
80002e5a:	4492                	lw	s1,4(sp)
80002e5c:	4902                	lw	s2,0(sp)
80002e5e:	0141                	addi	sp,sp,16
80002e60:	8082                	ret

80002e62 <__sinit>:
__sinit():
80002e62:	4d1c                	lw	a5,24(a0)
80002e64:	e3ad                	bnez	a5,80002ec6 <__sinit+0x64>
80002e66:	1141                	addi	sp,sp,-16
80002e68:	c422                	sw	s0,8(sp)
80002e6a:	c606                	sw	ra,12(sp)
80002e6c:	00000797          	auipc	a5,0x0
80002e70:	fa678793          	addi	a5,a5,-90 # 80002e12 <_cleanup_r>
80002e74:	d51c                	sw	a5,40(a0)
80002e76:	04052423          	sw	zero,72(a0)
80002e7a:	04052623          	sw	zero,76(a0)
80002e7e:	04052823          	sw	zero,80(a0)
80002e82:	8601a783          	lw	a5,-1952(gp) # 90000230 <_global_impure_ptr>
80002e86:	842a                	mv	s0,a0
80002e88:	00f51463          	bne	a0,a5,80002e90 <__sinit+0x2e>
80002e8c:	4785                	li	a5,1
80002e8e:	cd1c                	sw	a5,24(a0)
80002e90:	8522                	mv	a0,s0
80002e92:	281d                	jal	80002ec8 <__sfp>
80002e94:	c048                	sw	a0,4(s0)
80002e96:	8522                	mv	a0,s0
80002e98:	2805                	jal	80002ec8 <__sfp>
80002e9a:	c408                	sw	a0,8(s0)
80002e9c:	8522                	mv	a0,s0
80002e9e:	202d                	jal	80002ec8 <__sfp>
80002ea0:	c448                	sw	a0,12(s0)
80002ea2:	4048                	lw	a0,4(s0)
80002ea4:	4601                	li	a2,0
80002ea6:	4591                	li	a1,4
80002ea8:	3709                	jal	80002daa <std>
80002eaa:	4408                	lw	a0,8(s0)
80002eac:	4605                	li	a2,1
80002eae:	45a5                	li	a1,9
80002eb0:	3ded                	jal	80002daa <std>
80002eb2:	4448                	lw	a0,12(s0)
80002eb4:	4609                	li	a2,2
80002eb6:	45c9                	li	a1,18
80002eb8:	3dcd                	jal	80002daa <std>
80002eba:	4785                	li	a5,1
80002ebc:	40b2                	lw	ra,12(sp)
80002ebe:	cc1c                	sw	a5,24(s0)
80002ec0:	4422                	lw	s0,8(sp)
80002ec2:	0141                	addi	sp,sp,16
80002ec4:	8082                	ret
80002ec6:	8082                	ret

80002ec8 <__sfp>:
__sfp():
80002ec8:	1141                	addi	sp,sp,-16
80002eca:	c226                	sw	s1,4(sp)
80002ecc:	8601a483          	lw	s1,-1952(gp) # 90000230 <_global_impure_ptr>
80002ed0:	4c9c                	lw	a5,24(s1)
80002ed2:	c04a                	sw	s2,0(sp)
80002ed4:	c606                	sw	ra,12(sp)
80002ed6:	c422                	sw	s0,8(sp)
80002ed8:	892a                	mv	s2,a0
80002eda:	e399                	bnez	a5,80002ee0 <__sfp+0x18>
80002edc:	8526                	mv	a0,s1
80002ede:	3751                	jal	80002e62 <__sinit>
80002ee0:	04848493          	addi	s1,s1,72
80002ee4:	4480                	lw	s0,8(s1)
80002ee6:	40dc                	lw	a5,4(s1)
80002ee8:	17fd                	addi	a5,a5,-1
80002eea:	0007d663          	bgez	a5,80002ef6 <__sfp+0x2e>
80002eee:	409c                	lw	a5,0(s1)
80002ef0:	cfb1                	beqz	a5,80002f4c <__sfp+0x84>
80002ef2:	4084                	lw	s1,0(s1)
80002ef4:	bfc5                	j	80002ee4 <__sfp+0x1c>
80002ef6:	00c41703          	lh	a4,12(s0)
80002efa:	e731                	bnez	a4,80002f46 <__sfp+0x7e>
80002efc:	77c1                	lui	a5,0xffff0
80002efe:	0785                	addi	a5,a5,1
80002f00:	06042223          	sw	zero,100(s0)
80002f04:	00042023          	sw	zero,0(s0)
80002f08:	00042223          	sw	zero,4(s0)
80002f0c:	00042423          	sw	zero,8(s0)
80002f10:	c45c                	sw	a5,12(s0)
80002f12:	00042823          	sw	zero,16(s0)
80002f16:	00042a23          	sw	zero,20(s0)
80002f1a:	00042c23          	sw	zero,24(s0)
80002f1e:	4621                	li	a2,8
80002f20:	4581                	li	a1,0
80002f22:	05c40513          	addi	a0,s0,92
80002f26:	247d                	jal	800031d4 <memset>
80002f28:	02042a23          	sw	zero,52(s0)
80002f2c:	02042c23          	sw	zero,56(s0)
80002f30:	04042423          	sw	zero,72(s0)
80002f34:	04042623          	sw	zero,76(s0)
80002f38:	40b2                	lw	ra,12(sp)
80002f3a:	8522                	mv	a0,s0
80002f3c:	4422                	lw	s0,8(sp)
80002f3e:	4492                	lw	s1,4(sp)
80002f40:	4902                	lw	s2,0(sp)
80002f42:	0141                	addi	sp,sp,16
80002f44:	8082                	ret
80002f46:	06840413          	addi	s0,s0,104
80002f4a:	bf79                	j	80002ee8 <__sfp+0x20>
80002f4c:	4591                	li	a1,4
80002f4e:	854a                	mv	a0,s2
80002f50:	35f1                	jal	80002e1c <__sfmoreglue>
80002f52:	c088                	sw	a0,0(s1)
80002f54:	842a                	mv	s0,a0
80002f56:	fd51                	bnez	a0,80002ef2 <__sfp+0x2a>
80002f58:	47b1                	li	a5,12
80002f5a:	00f92023          	sw	a5,0(s2)
80002f5e:	bfe9                	j	80002f38 <__sfp+0x70>

80002f60 <_fwalk_reent>:
_fwalk_reent():
80002f60:	7179                	addi	sp,sp,-48
80002f62:	d422                	sw	s0,40(sp)
80002f64:	d04a                	sw	s2,32(sp)
80002f66:	ce4e                	sw	s3,28(sp)
80002f68:	cc52                	sw	s4,24(sp)
80002f6a:	c85a                	sw	s6,16(sp)
80002f6c:	c65e                	sw	s7,12(sp)
80002f6e:	d606                	sw	ra,44(sp)
80002f70:	d226                	sw	s1,36(sp)
80002f72:	ca56                	sw	s5,20(sp)
80002f74:	892a                	mv	s2,a0
80002f76:	8a2e                	mv	s4,a1
80002f78:	04850413          	addi	s0,a0,72
80002f7c:	4981                	li	s3,0
80002f7e:	4b05                	li	s6,1
80002f80:	5bfd                	li	s7,-1
80002f82:	4404                	lw	s1,8(s0)
80002f84:	00442a83          	lw	s5,4(s0)
80002f88:	1afd                	addi	s5,s5,-1
80002f8a:	020ad063          	bgez	s5,80002faa <_fwalk_reent+0x4a>
80002f8e:	4000                	lw	s0,0(s0)
80002f90:	f86d                	bnez	s0,80002f82 <_fwalk_reent+0x22>
80002f92:	50b2                	lw	ra,44(sp)
80002f94:	5422                	lw	s0,40(sp)
80002f96:	5492                	lw	s1,36(sp)
80002f98:	5902                	lw	s2,32(sp)
80002f9a:	4a62                	lw	s4,24(sp)
80002f9c:	4ad2                	lw	s5,20(sp)
80002f9e:	4b42                	lw	s6,16(sp)
80002fa0:	4bb2                	lw	s7,12(sp)
80002fa2:	854e                	mv	a0,s3
80002fa4:	49f2                	lw	s3,28(sp)
80002fa6:	6145                	addi	sp,sp,48
80002fa8:	8082                	ret
80002faa:	00c4d783          	lhu	a5,12(s1)
80002fae:	00fb7b63          	bgeu	s6,a5,80002fc4 <_fwalk_reent+0x64>
80002fb2:	00e49783          	lh	a5,14(s1)
80002fb6:	01778763          	beq	a5,s7,80002fc4 <_fwalk_reent+0x64>
80002fba:	85a6                	mv	a1,s1
80002fbc:	854a                	mv	a0,s2
80002fbe:	9a02                	jalr	s4
80002fc0:	00a9e9b3          	or	s3,s3,a0
80002fc4:	06848493          	addi	s1,s1,104
80002fc8:	b7c1                	j	80002f88 <_fwalk_reent+0x28>

80002fca <_localeconv_r>:
_localeconv_r():
80002fca:	0fffd517          	auipc	a0,0xfffd
80002fce:	18650513          	addi	a0,a0,390 # 90000150 <__global_locale+0xf0>
80002fd2:	8082                	ret

80002fd4 <__swhatbuf_r>:
__swhatbuf_r():
80002fd4:	7159                	addi	sp,sp,-112
80002fd6:	d0ca                	sw	s2,96(sp)
80002fd8:	892e                	mv	s2,a1
80002fda:	00e59583          	lh	a1,14(a1)
80002fde:	d4a2                	sw	s0,104(sp)
80002fe0:	d2a6                	sw	s1,100(sp)
80002fe2:	d686                	sw	ra,108(sp)
80002fe4:	8432                	mv	s0,a2
80002fe6:	84b6                	mv	s1,a3
80002fe8:	0005dc63          	bgez	a1,80003000 <__swhatbuf_r+0x2c>
80002fec:	00c91783          	lh	a5,12(s2)
80002ff0:	0004a023          	sw	zero,0(s1)
80002ff4:	0807f793          	andi	a5,a5,128
80002ff8:	e395                	bnez	a5,8000301c <__swhatbuf_r+0x48>
80002ffa:	40000793          	li	a5,1024
80002ffe:	a00d                	j	80003020 <__swhatbuf_r+0x4c>
80003000:	0030                	addi	a2,sp,8
80003002:	142010ef          	jal	ra,80004144 <_fstat_r>
80003006:	fe0543e3          	bltz	a0,80002fec <__swhatbuf_r+0x18>
8000300a:	4732                	lw	a4,12(sp)
8000300c:	67bd                	lui	a5,0xf
8000300e:	8ff9                	and	a5,a5,a4
80003010:	7779                	lui	a4,0xffffe
80003012:	97ba                	add	a5,a5,a4
80003014:	0017b793          	seqz	a5,a5
80003018:	c09c                	sw	a5,0(s1)
8000301a:	b7c5                	j	80002ffa <__swhatbuf_r+0x26>
8000301c:	04000793          	li	a5,64
80003020:	50b6                	lw	ra,108(sp)
80003022:	c01c                	sw	a5,0(s0)
80003024:	5426                	lw	s0,104(sp)
80003026:	5496                	lw	s1,100(sp)
80003028:	5906                	lw	s2,96(sp)
8000302a:	4501                	li	a0,0
8000302c:	6165                	addi	sp,sp,112
8000302e:	8082                	ret

80003030 <__smakebuf_r>:
__smakebuf_r():
80003030:	00c5d783          	lhu	a5,12(a1)
80003034:	1101                	addi	sp,sp,-32
80003036:	cc22                	sw	s0,24(sp)
80003038:	ce06                	sw	ra,28(sp)
8000303a:	ca26                	sw	s1,20(sp)
8000303c:	c84a                	sw	s2,16(sp)
8000303e:	8b89                	andi	a5,a5,2
80003040:	842e                	mv	s0,a1
80003042:	cf89                	beqz	a5,8000305c <__smakebuf_r+0x2c>
80003044:	04740793          	addi	a5,s0,71
80003048:	c01c                	sw	a5,0(s0)
8000304a:	c81c                	sw	a5,16(s0)
8000304c:	4785                	li	a5,1
8000304e:	c85c                	sw	a5,20(s0)
80003050:	40f2                	lw	ra,28(sp)
80003052:	4462                	lw	s0,24(sp)
80003054:	44d2                	lw	s1,20(sp)
80003056:	4942                	lw	s2,16(sp)
80003058:	6105                	addi	sp,sp,32
8000305a:	8082                	ret
8000305c:	0074                	addi	a3,sp,12
8000305e:	0030                	addi	a2,sp,8
80003060:	892a                	mv	s2,a0
80003062:	3f8d                	jal	80002fd4 <__swhatbuf_r>
80003064:	45a2                	lw	a1,8(sp)
80003066:	84aa                	mv	s1,a0
80003068:	854a                	mv	a0,s2
8000306a:	367000ef          	jal	ra,80003bd0 <_malloc_r>
8000306e:	ed01                	bnez	a0,80003086 <__smakebuf_r+0x56>
80003070:	00c41783          	lh	a5,12(s0)
80003074:	2007f713          	andi	a4,a5,512
80003078:	ff61                	bnez	a4,80003050 <__smakebuf_r+0x20>
8000307a:	9bf1                	andi	a5,a5,-4
8000307c:	0027e793          	ori	a5,a5,2
80003080:	00f41623          	sh	a5,12(s0)
80003084:	b7c1                	j	80003044 <__smakebuf_r+0x14>
80003086:	00000797          	auipc	a5,0x0
8000308a:	d8c78793          	addi	a5,a5,-628 # 80002e12 <_cleanup_r>
8000308e:	02f92423          	sw	a5,40(s2)
80003092:	00c45783          	lhu	a5,12(s0)
80003096:	c008                	sw	a0,0(s0)
80003098:	c808                	sw	a0,16(s0)
8000309a:	0807e793          	ori	a5,a5,128
8000309e:	00f41623          	sh	a5,12(s0)
800030a2:	47a2                	lw	a5,8(sp)
800030a4:	c85c                	sw	a5,20(s0)
800030a6:	47b2                	lw	a5,12(sp)
800030a8:	cf91                	beqz	a5,800030c4 <__smakebuf_r+0x94>
800030aa:	00e41583          	lh	a1,14(s0)
800030ae:	854a                	mv	a0,s2
800030b0:	0be010ef          	jal	ra,8000416e <_isatty_r>
800030b4:	c901                	beqz	a0,800030c4 <__smakebuf_r+0x94>
800030b6:	00c45783          	lhu	a5,12(s0)
800030ba:	9bf1                	andi	a5,a5,-4
800030bc:	0017e793          	ori	a5,a5,1
800030c0:	00f41623          	sh	a5,12(s0)
800030c4:	00c45503          	lhu	a0,12(s0)
800030c8:	8cc9                	or	s1,s1,a0
800030ca:	00941623          	sh	s1,12(s0)
800030ce:	b749                	j	80003050 <__smakebuf_r+0x20>

800030d0 <malloc>:
malloc():
800030d0:	85aa                	mv	a1,a0
800030d2:	0fffd517          	auipc	a0,0xfffd
800030d6:	10652503          	lw	a0,262(a0) # 900001d8 <_impure_ptr>
800030da:	2f70006f          	j	80003bd0 <_malloc_r>

800030de <memchr>:
memchr():
800030de:	0ff5f593          	zext.b	a1,a1
800030e2:	962a                	add	a2,a2,a0
800030e4:	00c51463          	bne	a0,a2,800030ec <memchr+0xe>
800030e8:	4501                	li	a0,0
800030ea:	8082                	ret
800030ec:	00054783          	lbu	a5,0(a0)
800030f0:	feb78de3          	beq	a5,a1,800030ea <memchr+0xc>
800030f4:	0505                	addi	a0,a0,1
800030f6:	b7fd                	j	800030e4 <memchr+0x6>

800030f8 <memcpy>:
memcpy():
800030f8:	00a5c7b3          	xor	a5,a1,a0
800030fc:	8b8d                	andi	a5,a5,3
800030fe:	00c506b3          	add	a3,a0,a2
80003102:	e781                	bnez	a5,8000310a <memcpy+0x12>
80003104:	478d                	li	a5,3
80003106:	00c7ee63          	bltu	a5,a2,80003122 <memcpy+0x2a>
8000310a:	87aa                	mv	a5,a0
8000310c:	06d57163          	bgeu	a0,a3,8000316e <memcpy+0x76>
80003110:	0005c703          	lbu	a4,0(a1)
80003114:	0785                	addi	a5,a5,1
80003116:	0585                	addi	a1,a1,1
80003118:	fee78fa3          	sb	a4,-1(a5)
8000311c:	fed7eae3          	bltu	a5,a3,80003110 <memcpy+0x18>
80003120:	8082                	ret
80003122:	00357713          	andi	a4,a0,3
80003126:	87aa                	mv	a5,a0
80003128:	cb11                	beqz	a4,8000313c <memcpy+0x44>
8000312a:	0005c703          	lbu	a4,0(a1)
8000312e:	0785                	addi	a5,a5,1
80003130:	0585                	addi	a1,a1,1
80003132:	fee78fa3          	sb	a4,-1(a5)
80003136:	0037f713          	andi	a4,a5,3
8000313a:	b7fd                	j	80003128 <memcpy+0x30>
8000313c:	ffc6f713          	andi	a4,a3,-4
80003140:	40f70833          	sub	a6,a4,a5
80003144:	02000613          	li	a2,32
80003148:	03064463          	blt	a2,a6,80003170 <memcpy+0x78>
8000314c:	882e                	mv	a6,a1
8000314e:	863e                	mv	a2,a5
80003150:	06e66b63          	bltu	a2,a4,800031c6 <memcpy+0xce>
80003154:	ffd78813          	addi	a6,a5,-3
80003158:	4601                	li	a2,0
8000315a:	01076663          	bltu	a4,a6,80003166 <memcpy+0x6e>
8000315e:	070d                	addi	a4,a4,3
80003160:	8f1d                	sub	a4,a4,a5
80003162:	ffc77613          	andi	a2,a4,-4
80003166:	97b2                	add	a5,a5,a2
80003168:	95b2                	add	a1,a1,a2
8000316a:	fad7e3e3          	bltu	a5,a3,80003110 <memcpy+0x18>
8000316e:	8082                	ret
80003170:	0005a383          	lw	t2,0(a1)
80003174:	0045a283          	lw	t0,4(a1)
80003178:	0085af83          	lw	t6,8(a1)
8000317c:	00c5af03          	lw	t5,12(a1)
80003180:	0105ae83          	lw	t4,16(a1)
80003184:	0145ae03          	lw	t3,20(a1)
80003188:	0185a303          	lw	t1,24(a1)
8000318c:	01c5a883          	lw	a7,28(a1)
80003190:	0077a023          	sw	t2,0(a5)
80003194:	0057a223          	sw	t0,4(a5)
80003198:	0205a803          	lw	a6,32(a1)
8000319c:	01f7a423          	sw	t6,8(a5)
800031a0:	01e7a623          	sw	t5,12(a5)
800031a4:	01d7a823          	sw	t4,16(a5)
800031a8:	01c7aa23          	sw	t3,20(a5)
800031ac:	0067ac23          	sw	t1,24(a5)
800031b0:	0117ae23          	sw	a7,28(a5)
800031b4:	02478793          	addi	a5,a5,36
800031b8:	02458593          	addi	a1,a1,36
800031bc:	ff07ae23          	sw	a6,-4(a5)
800031c0:	40f70833          	sub	a6,a4,a5
800031c4:	b751                	j	80003148 <memcpy+0x50>
800031c6:	00082883          	lw	a7,0(a6)
800031ca:	0611                	addi	a2,a2,4
800031cc:	0811                	addi	a6,a6,4
800031ce:	ff162e23          	sw	a7,-4(a2)
800031d2:	bfbd                	j	80003150 <memcpy+0x58>

800031d4 <memset>:
memset():
800031d4:	433d                	li	t1,15
800031d6:	872a                	mv	a4,a0
800031d8:	02c37363          	bgeu	t1,a2,800031fe <memset+0x2a>
800031dc:	00f77793          	andi	a5,a4,15
800031e0:	efbd                	bnez	a5,8000325e <memset+0x8a>
800031e2:	e5ad                	bnez	a1,8000324c <memset+0x78>
800031e4:	ff067693          	andi	a3,a2,-16
800031e8:	8a3d                	andi	a2,a2,15
800031ea:	96ba                	add	a3,a3,a4
800031ec:	c30c                	sw	a1,0(a4)
800031ee:	c34c                	sw	a1,4(a4)
800031f0:	c70c                	sw	a1,8(a4)
800031f2:	c74c                	sw	a1,12(a4)
800031f4:	0741                	addi	a4,a4,16
800031f6:	fed76be3          	bltu	a4,a3,800031ec <memset+0x18>
800031fa:	e211                	bnez	a2,800031fe <memset+0x2a>
800031fc:	8082                	ret
800031fe:	40c306b3          	sub	a3,t1,a2
80003202:	068a                	slli	a3,a3,0x2
80003204:	00000297          	auipc	t0,0x0
80003208:	9696                	add	a3,a3,t0
8000320a:	00a68067          	jr	10(a3) # 100a <__stack_size+0x80a>
8000320e:	00b70723          	sb	a1,14(a4) # ffffe00e <_sp+0x6ffee00e>
80003212:	00b706a3          	sb	a1,13(a4)
80003216:	00b70623          	sb	a1,12(a4)
8000321a:	00b705a3          	sb	a1,11(a4)
8000321e:	00b70523          	sb	a1,10(a4)
80003222:	00b704a3          	sb	a1,9(a4)
80003226:	00b70423          	sb	a1,8(a4)
8000322a:	00b703a3          	sb	a1,7(a4)
8000322e:	00b70323          	sb	a1,6(a4)
80003232:	00b702a3          	sb	a1,5(a4)
80003236:	00b70223          	sb	a1,4(a4)
8000323a:	00b701a3          	sb	a1,3(a4)
8000323e:	00b70123          	sb	a1,2(a4)
80003242:	00b700a3          	sb	a1,1(a4)
80003246:	00b70023          	sb	a1,0(a4)
8000324a:	8082                	ret
8000324c:	0ff5f593          	zext.b	a1,a1
80003250:	00859693          	slli	a3,a1,0x8
80003254:	8dd5                	or	a1,a1,a3
80003256:	01059693          	slli	a3,a1,0x10
8000325a:	8dd5                	or	a1,a1,a3
8000325c:	b761                	j	800031e4 <memset+0x10>
8000325e:	00279693          	slli	a3,a5,0x2
80003262:	00000297          	auipc	t0,0x0
80003266:	9696                	add	a3,a3,t0
80003268:	8286                	mv	t0,ra
8000326a:	fa8680e7          	jalr	-88(a3)
8000326e:	8096                	mv	ra,t0
80003270:	17c1                	addi	a5,a5,-16
80003272:	8f1d                	sub	a4,a4,a5
80003274:	963e                	add	a2,a2,a5
80003276:	f8c374e3          	bgeu	t1,a2,800031fe <memset+0x2a>
8000327a:	b7a5                	j	800031e2 <memset+0xe>

8000327c <_Balloc>:
_Balloc():
8000327c:	515c                	lw	a5,36(a0)
8000327e:	1141                	addi	sp,sp,-16
80003280:	c422                	sw	s0,8(sp)
80003282:	c226                	sw	s1,4(sp)
80003284:	c606                	sw	ra,12(sp)
80003286:	c04a                	sw	s2,0(sp)
80003288:	842a                	mv	s0,a0
8000328a:	84ae                	mv	s1,a1
8000328c:	eb95                	bnez	a5,800032c0 <_Balloc+0x44>
8000328e:	4541                	li	a0,16
80003290:	3581                	jal	800030d0 <malloc>
80003292:	d048                	sw	a0,36(s0)
80003294:	ed11                	bnez	a0,800032b0 <_Balloc+0x34>
80003296:	00003697          	auipc	a3,0x3
8000329a:	e0a68693          	addi	a3,a3,-502 # 800060a0 <__clz_tab+0x1a4>
8000329e:	4601                	li	a2,0
800032a0:	06600593          	li	a1,102
800032a4:	00003517          	auipc	a0,0x3
800032a8:	edc50513          	addi	a0,a0,-292 # 80006180 <__sf_fake_stdout+0x20>
800032ac:	60d000ef          	jal	ra,800040b8 <__assert_func>
800032b0:	00052223          	sw	zero,4(a0)
800032b4:	00052423          	sw	zero,8(a0)
800032b8:	00052023          	sw	zero,0(a0)
800032bc:	00052623          	sw	zero,12(a0)
800032c0:	02442903          	lw	s2,36(s0)
800032c4:	00c92783          	lw	a5,12(s2)
800032c8:	c79d                	beqz	a5,800032f6 <_Balloc+0x7a>
800032ca:	5058                	lw	a4,36(s0)
800032cc:	00249793          	slli	a5,s1,0x2
800032d0:	4758                	lw	a4,12(a4)
800032d2:	97ba                	add	a5,a5,a4
800032d4:	4388                	lw	a0,0(a5)
800032d6:	e131                	bnez	a0,8000331a <_Balloc+0x9e>
800032d8:	4905                	li	s2,1
800032da:	00991933          	sll	s2,s2,s1
800032de:	00590613          	addi	a2,s2,5
800032e2:	060a                	slli	a2,a2,0x2
800032e4:	4585                	li	a1,1
800032e6:	8522                	mv	a0,s0
800032e8:	015000ef          	jal	ra,80003afc <_calloc_r>
800032ec:	c105                	beqz	a0,8000330c <_Balloc+0x90>
800032ee:	c144                	sw	s1,4(a0)
800032f0:	01252423          	sw	s2,8(a0)
800032f4:	a02d                	j	8000331e <_Balloc+0xa2>
800032f6:	02100613          	li	a2,33
800032fa:	4591                	li	a1,4
800032fc:	8522                	mv	a0,s0
800032fe:	7fe000ef          	jal	ra,80003afc <_calloc_r>
80003302:	505c                	lw	a5,36(s0)
80003304:	00a92623          	sw	a0,12(s2)
80003308:	47dc                	lw	a5,12(a5)
8000330a:	f3e1                	bnez	a5,800032ca <_Balloc+0x4e>
8000330c:	4501                	li	a0,0
8000330e:	40b2                	lw	ra,12(sp)
80003310:	4422                	lw	s0,8(sp)
80003312:	4492                	lw	s1,4(sp)
80003314:	4902                	lw	s2,0(sp)
80003316:	0141                	addi	sp,sp,16
80003318:	8082                	ret
8000331a:	4118                	lw	a4,0(a0)
8000331c:	c398                	sw	a4,0(a5)
8000331e:	00052823          	sw	zero,16(a0)
80003322:	00052623          	sw	zero,12(a0)
80003326:	b7e5                	j	8000330e <_Balloc+0x92>

80003328 <_Bfree>:
_Bfree():
80003328:	515c                	lw	a5,36(a0)
8000332a:	1141                	addi	sp,sp,-16
8000332c:	c422                	sw	s0,8(sp)
8000332e:	c226                	sw	s1,4(sp)
80003330:	c606                	sw	ra,12(sp)
80003332:	84aa                	mv	s1,a0
80003334:	842e                	mv	s0,a1
80003336:	eb95                	bnez	a5,8000336a <_Bfree+0x42>
80003338:	4541                	li	a0,16
8000333a:	3b59                	jal	800030d0 <malloc>
8000333c:	d0c8                	sw	a0,36(s1)
8000333e:	ed11                	bnez	a0,8000335a <_Bfree+0x32>
80003340:	00003697          	auipc	a3,0x3
80003344:	d6068693          	addi	a3,a3,-672 # 800060a0 <__clz_tab+0x1a4>
80003348:	4601                	li	a2,0
8000334a:	08a00593          	li	a1,138
8000334e:	00003517          	auipc	a0,0x3
80003352:	e3250513          	addi	a0,a0,-462 # 80006180 <__sf_fake_stdout+0x20>
80003356:	563000ef          	jal	ra,800040b8 <__assert_func>
8000335a:	00052223          	sw	zero,4(a0)
8000335e:	00052423          	sw	zero,8(a0)
80003362:	00052023          	sw	zero,0(a0)
80003366:	00052623          	sw	zero,12(a0)
8000336a:	c811                	beqz	s0,8000337e <_Bfree+0x56>
8000336c:	50d4                	lw	a3,36(s1)
8000336e:	405c                	lw	a5,4(s0)
80003370:	00279713          	slli	a4,a5,0x2
80003374:	46dc                	lw	a5,12(a3)
80003376:	97ba                	add	a5,a5,a4
80003378:	4398                	lw	a4,0(a5)
8000337a:	c018                	sw	a4,0(s0)
8000337c:	c380                	sw	s0,0(a5)
8000337e:	40b2                	lw	ra,12(sp)
80003380:	4422                	lw	s0,8(sp)
80003382:	4492                	lw	s1,4(sp)
80003384:	0141                	addi	sp,sp,16
80003386:	8082                	ret

80003388 <__multadd>:
__multadd():
80003388:	1101                	addi	sp,sp,-32
8000338a:	cc22                	sw	s0,24(sp)
8000338c:	c84a                	sw	s2,16(sp)
8000338e:	c64e                	sw	s3,12(sp)
80003390:	0105a903          	lw	s2,16(a1)
80003394:	842e                	mv	s0,a1
80003396:	89b6                	mv	s3,a3
80003398:	01458693          	addi	a3,a1,20
8000339c:	65c1                	lui	a1,0x10
8000339e:	ca26                	sw	s1,20(sp)
800033a0:	ce06                	sw	ra,28(sp)
800033a2:	84aa                	mv	s1,a0
800033a4:	c452                	sw	s4,8(sp)
800033a6:	4501                	li	a0,0
800033a8:	15fd                	addi	a1,a1,-1
800033aa:	429c                	lw	a5,0(a3)
800033ac:	0691                	addi	a3,a3,4
800033ae:	0505                	addi	a0,a0,1
800033b0:	00b7f733          	and	a4,a5,a1
800033b4:	02c70733          	mul	a4,a4,a2
800033b8:	83c1                	srli	a5,a5,0x10
800033ba:	02c787b3          	mul	a5,a5,a2
800033be:	974e                	add	a4,a4,s3
800033c0:	01075813          	srli	a6,a4,0x10
800033c4:	8f6d                	and	a4,a4,a1
800033c6:	97c2                	add	a5,a5,a6
800033c8:	0107d993          	srli	s3,a5,0x10
800033cc:	07c2                	slli	a5,a5,0x10
800033ce:	97ba                	add	a5,a5,a4
800033d0:	fef6ae23          	sw	a5,-4(a3)
800033d4:	fd254be3          	blt	a0,s2,800033aa <__multadd+0x22>
800033d8:	04098c63          	beqz	s3,80003430 <__multadd+0xa8>
800033dc:	441c                	lw	a5,8(s0)
800033de:	04f94063          	blt	s2,a5,8000341e <__multadd+0x96>
800033e2:	404c                	lw	a1,4(s0)
800033e4:	8526                	mv	a0,s1
800033e6:	0585                	addi	a1,a1,1
800033e8:	3d51                	jal	8000327c <_Balloc>
800033ea:	8a2a                	mv	s4,a0
800033ec:	ed11                	bnez	a0,80003408 <__multadd+0x80>
800033ee:	00003697          	auipc	a3,0x3
800033f2:	d1e68693          	addi	a3,a3,-738 # 8000610c <__clz_tab+0x210>
800033f6:	4601                	li	a2,0
800033f8:	0b500593          	li	a1,181
800033fc:	00003517          	auipc	a0,0x3
80003400:	d8450513          	addi	a0,a0,-636 # 80006180 <__sf_fake_stdout+0x20>
80003404:	4b5000ef          	jal	ra,800040b8 <__assert_func>
80003408:	4810                	lw	a2,16(s0)
8000340a:	00c40593          	addi	a1,s0,12
8000340e:	0531                	addi	a0,a0,12
80003410:	0609                	addi	a2,a2,2
80003412:	060a                	slli	a2,a2,0x2
80003414:	31d5                	jal	800030f8 <memcpy>
80003416:	85a2                	mv	a1,s0
80003418:	8526                	mv	a0,s1
8000341a:	3739                	jal	80003328 <_Bfree>
8000341c:	8452                	mv	s0,s4
8000341e:	00490793          	addi	a5,s2,4
80003422:	078a                	slli	a5,a5,0x2
80003424:	97a2                	add	a5,a5,s0
80003426:	0137a223          	sw	s3,4(a5)
8000342a:	0905                	addi	s2,s2,1
8000342c:	01242823          	sw	s2,16(s0)
80003430:	40f2                	lw	ra,28(sp)
80003432:	8522                	mv	a0,s0
80003434:	4462                	lw	s0,24(sp)
80003436:	44d2                	lw	s1,20(sp)
80003438:	4942                	lw	s2,16(sp)
8000343a:	49b2                	lw	s3,12(sp)
8000343c:	4a22                	lw	s4,8(sp)
8000343e:	6105                	addi	sp,sp,32
80003440:	8082                	ret

80003442 <__hi0bits>:
__hi0bits():
80003442:	7741                	lui	a4,0xffff0
80003444:	8f69                	and	a4,a4,a0
80003446:	87aa                	mv	a5,a0
80003448:	4501                	li	a0,0
8000344a:	e319                	bnez	a4,80003450 <__hi0bits+0xe>
8000344c:	07c2                	slli	a5,a5,0x10
8000344e:	4541                	li	a0,16
80003450:	ff000737          	lui	a4,0xff000
80003454:	8f7d                	and	a4,a4,a5
80003456:	e319                	bnez	a4,8000345c <__hi0bits+0x1a>
80003458:	0521                	addi	a0,a0,8
8000345a:	07a2                	slli	a5,a5,0x8
8000345c:	f0000737          	lui	a4,0xf0000
80003460:	8f7d                	and	a4,a4,a5
80003462:	e319                	bnez	a4,80003468 <__hi0bits+0x26>
80003464:	0511                	addi	a0,a0,4
80003466:	0792                	slli	a5,a5,0x4
80003468:	c0000737          	lui	a4,0xc0000
8000346c:	8f7d                	and	a4,a4,a5
8000346e:	e319                	bnez	a4,80003474 <__hi0bits+0x32>
80003470:	0509                	addi	a0,a0,2
80003472:	078a                	slli	a5,a5,0x2
80003474:	0007c963          	bltz	a5,80003486 <__hi0bits+0x44>
80003478:	40000737          	lui	a4,0x40000
8000347c:	8ff9                	and	a5,a5,a4
8000347e:	0505                	addi	a0,a0,1
80003480:	e399                	bnez	a5,80003486 <__hi0bits+0x44>
80003482:	02000513          	li	a0,32
80003486:	8082                	ret

80003488 <__lo0bits>:
__lo0bits():
80003488:	411c                	lw	a5,0(a0)
8000348a:	872a                	mv	a4,a0
8000348c:	0077f693          	andi	a3,a5,7
80003490:	c285                	beqz	a3,800034b0 <__lo0bits+0x28>
80003492:	0017f693          	andi	a3,a5,1
80003496:	4501                	li	a0,0
80003498:	eea1                	bnez	a3,800034f0 <__lo0bits+0x68>
8000349a:	0027f693          	andi	a3,a5,2
8000349e:	c689                	beqz	a3,800034a8 <__lo0bits+0x20>
800034a0:	8385                	srli	a5,a5,0x1
800034a2:	c31c                	sw	a5,0(a4)
800034a4:	4505                	li	a0,1
800034a6:	8082                	ret
800034a8:	8389                	srli	a5,a5,0x2
800034aa:	c31c                	sw	a5,0(a4)
800034ac:	4509                	li	a0,2
800034ae:	8082                	ret
800034b0:	01079693          	slli	a3,a5,0x10
800034b4:	82c1                	srli	a3,a3,0x10
800034b6:	4501                	li	a0,0
800034b8:	e299                	bnez	a3,800034be <__lo0bits+0x36>
800034ba:	83c1                	srli	a5,a5,0x10
800034bc:	4541                	li	a0,16
800034be:	0ff7f693          	zext.b	a3,a5
800034c2:	e299                	bnez	a3,800034c8 <__lo0bits+0x40>
800034c4:	0521                	addi	a0,a0,8
800034c6:	83a1                	srli	a5,a5,0x8
800034c8:	00f7f693          	andi	a3,a5,15
800034cc:	e299                	bnez	a3,800034d2 <__lo0bits+0x4a>
800034ce:	0511                	addi	a0,a0,4
800034d0:	8391                	srli	a5,a5,0x4
800034d2:	0037f693          	andi	a3,a5,3
800034d6:	e299                	bnez	a3,800034dc <__lo0bits+0x54>
800034d8:	0509                	addi	a0,a0,2
800034da:	8389                	srli	a5,a5,0x2
800034dc:	0017f693          	andi	a3,a5,1
800034e0:	e681                	bnez	a3,800034e8 <__lo0bits+0x60>
800034e2:	8385                	srli	a5,a5,0x1
800034e4:	0505                	addi	a0,a0,1
800034e6:	c399                	beqz	a5,800034ec <__lo0bits+0x64>
800034e8:	c31c                	sw	a5,0(a4)
800034ea:	8082                	ret
800034ec:	02000513          	li	a0,32
800034f0:	8082                	ret

800034f2 <__i2b>:
__i2b():
800034f2:	1141                	addi	sp,sp,-16
800034f4:	c422                	sw	s0,8(sp)
800034f6:	842e                	mv	s0,a1
800034f8:	4585                	li	a1,1
800034fa:	c606                	sw	ra,12(sp)
800034fc:	3341                	jal	8000327c <_Balloc>
800034fe:	ed11                	bnez	a0,8000351a <__i2b+0x28>
80003500:	00003697          	auipc	a3,0x3
80003504:	c0c68693          	addi	a3,a3,-1012 # 8000610c <__clz_tab+0x210>
80003508:	4601                	li	a2,0
8000350a:	14000593          	li	a1,320
8000350e:	00003517          	auipc	a0,0x3
80003512:	c7250513          	addi	a0,a0,-910 # 80006180 <__sf_fake_stdout+0x20>
80003516:	3a3000ef          	jal	ra,800040b8 <__assert_func>
8000351a:	40b2                	lw	ra,12(sp)
8000351c:	c940                	sw	s0,20(a0)
8000351e:	4422                	lw	s0,8(sp)
80003520:	4705                	li	a4,1
80003522:	c918                	sw	a4,16(a0)
80003524:	0141                	addi	sp,sp,16
80003526:	8082                	ret

80003528 <__multiply>:
__multiply():
80003528:	4998                	lw	a4,16(a1)
8000352a:	4a1c                	lw	a5,16(a2)
8000352c:	1101                	addi	sp,sp,-32
8000352e:	cc22                	sw	s0,24(sp)
80003530:	c84a                	sw	s2,16(sp)
80003532:	ce06                	sw	ra,28(sp)
80003534:	ca26                	sw	s1,20(sp)
80003536:	c64e                	sw	s3,12(sp)
80003538:	c452                	sw	s4,8(sp)
8000353a:	842e                	mv	s0,a1
8000353c:	8932                	mv	s2,a2
8000353e:	00f75463          	bge	a4,a5,80003546 <__multiply+0x1e>
80003542:	8432                	mv	s0,a2
80003544:	892e                	mv	s2,a1
80003546:	01042a03          	lw	s4,16(s0)
8000354a:	01092983          	lw	s3,16(s2)
8000354e:	441c                	lw	a5,8(s0)
80003550:	404c                	lw	a1,4(s0)
80003552:	013a04b3          	add	s1,s4,s3
80003556:	0097d363          	bge	a5,s1,8000355c <__multiply+0x34>
8000355a:	0585                	addi	a1,a1,1
8000355c:	3305                	jal	8000327c <_Balloc>
8000355e:	ed11                	bnez	a0,8000357a <__multiply+0x52>
80003560:	00003697          	auipc	a3,0x3
80003564:	bac68693          	addi	a3,a3,-1108 # 8000610c <__clz_tab+0x210>
80003568:	4601                	li	a2,0
8000356a:	15d00593          	li	a1,349
8000356e:	00003517          	auipc	a0,0x3
80003572:	c1250513          	addi	a0,a0,-1006 # 80006180 <__sf_fake_stdout+0x20>
80003576:	343000ef          	jal	ra,800040b8 <__assert_func>
8000357a:	01450693          	addi	a3,a0,20
8000357e:	00249813          	slli	a6,s1,0x2
80003582:	9836                	add	a6,a6,a3
80003584:	87b6                	mv	a5,a3
80003586:	0507ea63          	bltu	a5,a6,800035da <__multiply+0xb2>
8000358a:	01440313          	addi	t1,s0,20
8000358e:	002a1593          	slli	a1,s4,0x2
80003592:	01490613          	addi	a2,s2,20
80003596:	00299893          	slli	a7,s3,0x2
8000359a:	959a                	add	a1,a1,t1
8000359c:	01540793          	addi	a5,s0,21
800035a0:	98b2                	add	a7,a7,a2
800035a2:	4e11                	li	t3,4
800035a4:	00f5e863          	bltu	a1,a5,800035b4 <__multiply+0x8c>
800035a8:	40858433          	sub	s0,a1,s0
800035ac:	142d                	addi	s0,s0,-21
800035ae:	9871                	andi	s0,s0,-4
800035b0:	00440e13          	addi	t3,s0,4
800035b4:	6ec1                	lui	t4,0x10
800035b6:	1efd                	addi	t4,t4,-1
800035b8:	03166563          	bltu	a2,a7,800035e2 <__multiply+0xba>
800035bc:	00905663          	blez	s1,800035c8 <__multiply+0xa0>
800035c0:	ffc82783          	lw	a5,-4(a6)
800035c4:	1871                	addi	a6,a6,-4
800035c6:	cff1                	beqz	a5,800036a2 <__multiply+0x17a>
800035c8:	40f2                	lw	ra,28(sp)
800035ca:	4462                	lw	s0,24(sp)
800035cc:	c904                	sw	s1,16(a0)
800035ce:	4942                	lw	s2,16(sp)
800035d0:	44d2                	lw	s1,20(sp)
800035d2:	49b2                	lw	s3,12(sp)
800035d4:	4a22                	lw	s4,8(sp)
800035d6:	6105                	addi	sp,sp,32
800035d8:	8082                	ret
800035da:	0007a023          	sw	zero,0(a5)
800035de:	0791                	addi	a5,a5,4
800035e0:	b75d                	j	80003586 <__multiply+0x5e>
800035e2:	00062f83          	lw	t6,0(a2)
800035e6:	01dfffb3          	and	t6,t6,t4
800035ea:	040f8b63          	beqz	t6,80003640 <__multiply+0x118>
800035ee:	83b6                	mv	t2,a3
800035f0:	829a                	mv	t0,t1
800035f2:	4901                	li	s2,0
800035f4:	0002a703          	lw	a4,0(t0) # 80003262 <memset+0x8e>
800035f8:	0003a403          	lw	s0,0(t2)
800035fc:	0391                	addi	t2,t2,4
800035fe:	01d77f33          	and	t5,a4,t4
80003602:	03ff0f33          	mul	t5,t5,t6
80003606:	01d477b3          	and	a5,s0,t4
8000360a:	8041                	srli	s0,s0,0x10
8000360c:	0291                	addi	t0,t0,4
8000360e:	9f3e                	add	t5,t5,a5
80003610:	01075793          	srli	a5,a4,0x10
80003614:	03f787b3          	mul	a5,a5,t6
80003618:	9f4a                	add	t5,t5,s2
8000361a:	010f5713          	srli	a4,t5,0x10
8000361e:	01df7f33          	and	t5,t5,t4
80003622:	97a2                	add	a5,a5,s0
80003624:	97ba                	add	a5,a5,a4
80003626:	0107d913          	srli	s2,a5,0x10
8000362a:	07c2                	slli	a5,a5,0x10
8000362c:	01e7e7b3          	or	a5,a5,t5
80003630:	fef3ae23          	sw	a5,-4(t2)
80003634:	fcb2e0e3          	bltu	t0,a1,800035f4 <__multiply+0xcc>
80003638:	01c687b3          	add	a5,a3,t3
8000363c:	0127a023          	sw	s2,0(a5)
80003640:	00265383          	lhu	t2,2(a2)
80003644:	04038c63          	beqz	t2,8000369c <__multiply+0x174>
80003648:	429c                	lw	a5,0(a3)
8000364a:	8fb6                	mv	t6,a3
8000364c:	8f1a                	mv	t5,t1
8000364e:	4281                	li	t0,0
80003650:	000f2703          	lw	a4,0(t5)
80003654:	002fd403          	lhu	s0,2(t6)
80003658:	01d7f7b3          	and	a5,a5,t4
8000365c:	01d77733          	and	a4,a4,t4
80003660:	02770733          	mul	a4,a4,t2
80003664:	0f91                	addi	t6,t6,4
80003666:	0f11                	addi	t5,t5,4
80003668:	9722                	add	a4,a4,s0
8000366a:	9716                	add	a4,a4,t0
8000366c:	01071293          	slli	t0,a4,0x10
80003670:	00f2e7b3          	or	a5,t0,a5
80003674:	feffae23          	sw	a5,-4(t6)
80003678:	ffef5783          	lhu	a5,-2(t5)
8000367c:	000fa283          	lw	t0,0(t6)
80003680:	8341                	srli	a4,a4,0x10
80003682:	027787b3          	mul	a5,a5,t2
80003686:	01d2f2b3          	and	t0,t0,t4
8000368a:	9796                	add	a5,a5,t0
8000368c:	97ba                	add	a5,a5,a4
8000368e:	0107d293          	srli	t0,a5,0x10
80003692:	fabf6fe3          	bltu	t5,a1,80003650 <__multiply+0x128>
80003696:	01c68733          	add	a4,a3,t3
8000369a:	c31c                	sw	a5,0(a4)
8000369c:	0611                	addi	a2,a2,4
8000369e:	0691                	addi	a3,a3,4
800036a0:	bf21                	j	800035b8 <__multiply+0x90>
800036a2:	14fd                	addi	s1,s1,-1
800036a4:	bf21                	j	800035bc <__multiply+0x94>

800036a6 <__pow5mult>:
__pow5mult():
800036a6:	1101                	addi	sp,sp,-32
800036a8:	ca26                	sw	s1,20(sp)
800036aa:	c84a                	sw	s2,16(sp)
800036ac:	c64e                	sw	s3,12(sp)
800036ae:	ce06                	sw	ra,28(sp)
800036b0:	cc22                	sw	s0,24(sp)
800036b2:	c452                	sw	s4,8(sp)
800036b4:	00367793          	andi	a5,a2,3
800036b8:	892a                	mv	s2,a0
800036ba:	84b2                	mv	s1,a2
800036bc:	89ae                	mv	s3,a1
800036be:	cf81                	beqz	a5,800036d6 <__pow5mult+0x30>
800036c0:	17fd                	addi	a5,a5,-1
800036c2:	00003717          	auipc	a4,0x3
800036c6:	c0670713          	addi	a4,a4,-1018 # 800062c8 <p05.0>
800036ca:	078a                	slli	a5,a5,0x2
800036cc:	97ba                	add	a5,a5,a4
800036ce:	4390                	lw	a2,0(a5)
800036d0:	4681                	li	a3,0
800036d2:	395d                	jal	80003388 <__multadd>
800036d4:	89aa                	mv	s3,a0
800036d6:	8489                	srai	s1,s1,0x2
800036d8:	c4d9                	beqz	s1,80003766 <__pow5mult+0xc0>
800036da:	02492783          	lw	a5,36(s2)
800036de:	ef85                	bnez	a5,80003716 <__pow5mult+0x70>
800036e0:	4541                	li	a0,16
800036e2:	9efff0ef          	jal	ra,800030d0 <malloc>
800036e6:	02a92223          	sw	a0,36(s2)
800036ea:	ed11                	bnez	a0,80003706 <__pow5mult+0x60>
800036ec:	00003697          	auipc	a3,0x3
800036f0:	9b468693          	addi	a3,a3,-1612 # 800060a0 <__clz_tab+0x1a4>
800036f4:	4601                	li	a2,0
800036f6:	1ae00593          	li	a1,430
800036fa:	00003517          	auipc	a0,0x3
800036fe:	a8650513          	addi	a0,a0,-1402 # 80006180 <__sf_fake_stdout+0x20>
80003702:	1b7000ef          	jal	ra,800040b8 <__assert_func>
80003706:	00052223          	sw	zero,4(a0)
8000370a:	00052423          	sw	zero,8(a0)
8000370e:	00052023          	sw	zero,0(a0)
80003712:	00052623          	sw	zero,12(a0)
80003716:	02492a03          	lw	s4,36(s2)
8000371a:	008a2403          	lw	s0,8(s4)
8000371e:	e811                	bnez	s0,80003732 <__pow5mult+0x8c>
80003720:	27100593          	li	a1,625
80003724:	854a                	mv	a0,s2
80003726:	33f1                	jal	800034f2 <__i2b>
80003728:	00aa2423          	sw	a0,8(s4)
8000372c:	842a                	mv	s0,a0
8000372e:	00052023          	sw	zero,0(a0)
80003732:	0014f793          	andi	a5,s1,1
80003736:	cb99                	beqz	a5,8000374c <__pow5mult+0xa6>
80003738:	85ce                	mv	a1,s3
8000373a:	8622                	mv	a2,s0
8000373c:	854a                	mv	a0,s2
8000373e:	33ed                	jal	80003528 <__multiply>
80003740:	8a2a                	mv	s4,a0
80003742:	85ce                	mv	a1,s3
80003744:	854a                	mv	a0,s2
80003746:	be3ff0ef          	jal	ra,80003328 <_Bfree>
8000374a:	89d2                	mv	s3,s4
8000374c:	8485                	srai	s1,s1,0x1
8000374e:	cc81                	beqz	s1,80003766 <__pow5mult+0xc0>
80003750:	4008                	lw	a0,0(s0)
80003752:	e901                	bnez	a0,80003762 <__pow5mult+0xbc>
80003754:	8622                	mv	a2,s0
80003756:	85a2                	mv	a1,s0
80003758:	854a                	mv	a0,s2
8000375a:	33f9                	jal	80003528 <__multiply>
8000375c:	c008                	sw	a0,0(s0)
8000375e:	00052023          	sw	zero,0(a0)
80003762:	842a                	mv	s0,a0
80003764:	b7f9                	j	80003732 <__pow5mult+0x8c>
80003766:	40f2                	lw	ra,28(sp)
80003768:	4462                	lw	s0,24(sp)
8000376a:	44d2                	lw	s1,20(sp)
8000376c:	4942                	lw	s2,16(sp)
8000376e:	4a22                	lw	s4,8(sp)
80003770:	854e                	mv	a0,s3
80003772:	49b2                	lw	s3,12(sp)
80003774:	6105                	addi	sp,sp,32
80003776:	8082                	ret

80003778 <__lshift>:
__lshift():
80003778:	1101                	addi	sp,sp,-32
8000377a:	cc22                	sw	s0,24(sp)
8000377c:	842e                	mv	s0,a1
8000377e:	c05a                	sw	s6,0(sp)
80003780:	01042b03          	lw	s6,16(s0)
80003784:	ca26                	sw	s1,20(sp)
80003786:	41cc                	lw	a1,4(a1)
80003788:	40565493          	srai	s1,a2,0x5
8000378c:	441c                	lw	a5,8(s0)
8000378e:	9b26                	add	s6,s6,s1
80003790:	c84a                	sw	s2,16(sp)
80003792:	c452                	sw	s4,8(sp)
80003794:	c256                	sw	s5,4(sp)
80003796:	ce06                	sw	ra,28(sp)
80003798:	c64e                	sw	s3,12(sp)
8000379a:	8aaa                	mv	s5,a0
8000379c:	8932                	mv	s2,a2
8000379e:	001b0a13          	addi	s4,s6,1
800037a2:	0347c463          	blt	a5,s4,800037ca <__lshift+0x52>
800037a6:	8556                	mv	a0,s5
800037a8:	ad5ff0ef          	jal	ra,8000327c <_Balloc>
800037ac:	89aa                	mv	s3,a0
800037ae:	e10d                	bnez	a0,800037d0 <__lshift+0x58>
800037b0:	00003697          	auipc	a3,0x3
800037b4:	95c68693          	addi	a3,a3,-1700 # 8000610c <__clz_tab+0x210>
800037b8:	4601                	li	a2,0
800037ba:	1d900593          	li	a1,473
800037be:	00003517          	auipc	a0,0x3
800037c2:	9c250513          	addi	a0,a0,-1598 # 80006180 <__sf_fake_stdout+0x20>
800037c6:	0f3000ef          	jal	ra,800040b8 <__assert_func>
800037ca:	0585                	addi	a1,a1,1
800037cc:	0786                	slli	a5,a5,0x1
800037ce:	bfd1                	j	800037a2 <__lshift+0x2a>
800037d0:	01450793          	addi	a5,a0,20
800037d4:	86be                	mv	a3,a5
800037d6:	4701                	li	a4,0
800037d8:	0691                	addi	a3,a3,4
800037da:	08974563          	blt	a4,s1,80003864 <__lshift+0xec>
800037de:	0004d363          	bgez	s1,800037e4 <__lshift+0x6c>
800037e2:	4481                	li	s1,0
800037e4:	048a                	slli	s1,s1,0x2
800037e6:	009786b3          	add	a3,a5,s1
800037ea:	481c                	lw	a5,16(s0)
800037ec:	01440713          	addi	a4,s0,20
800037f0:	01f97613          	andi	a2,s2,31
800037f4:	078a                	slli	a5,a5,0x2
800037f6:	97ba                	add	a5,a5,a4
800037f8:	ca35                	beqz	a2,8000386c <__lshift+0xf4>
800037fa:	02000813          	li	a6,32
800037fe:	40c80833          	sub	a6,a6,a2
80003802:	88b6                	mv	a7,a3
80003804:	4581                	li	a1,0
80003806:	4308                	lw	a0,0(a4)
80003808:	0891                	addi	a7,a7,4
8000380a:	0711                	addi	a4,a4,4
8000380c:	00c51533          	sll	a0,a0,a2
80003810:	8dc9                	or	a1,a1,a0
80003812:	feb8ae23          	sw	a1,-4(a7) # fcbffffc <_sp+0x6cbefffc>
80003816:	ffc72583          	lw	a1,-4(a4)
8000381a:	0105d5b3          	srl	a1,a1,a6
8000381e:	fef764e3          	bltu	a4,a5,80003806 <__lshift+0x8e>
80003822:	01540713          	addi	a4,s0,21
80003826:	4611                	li	a2,4
80003828:	00e7e763          	bltu	a5,a4,80003836 <__lshift+0xbe>
8000382c:	8f81                	sub	a5,a5,s0
8000382e:	17ad                	addi	a5,a5,-21
80003830:	9bf1                	andi	a5,a5,-4
80003832:	00478613          	addi	a2,a5,4
80003836:	96b2                	add	a3,a3,a2
80003838:	c28c                	sw	a1,0(a3)
8000383a:	c199                	beqz	a1,80003840 <__lshift+0xc8>
8000383c:	002b0a13          	addi	s4,s6,2
80003840:	1a7d                	addi	s4,s4,-1
80003842:	0149a823          	sw	s4,16(s3)
80003846:	8556                	mv	a0,s5
80003848:	85a2                	mv	a1,s0
8000384a:	adfff0ef          	jal	ra,80003328 <_Bfree>
8000384e:	40f2                	lw	ra,28(sp)
80003850:	4462                	lw	s0,24(sp)
80003852:	44d2                	lw	s1,20(sp)
80003854:	4942                	lw	s2,16(sp)
80003856:	4a22                	lw	s4,8(sp)
80003858:	4a92                	lw	s5,4(sp)
8000385a:	4b02                	lw	s6,0(sp)
8000385c:	854e                	mv	a0,s3
8000385e:	49b2                	lw	s3,12(sp)
80003860:	6105                	addi	sp,sp,32
80003862:	8082                	ret
80003864:	fe06ae23          	sw	zero,-4(a3)
80003868:	0705                	addi	a4,a4,1
8000386a:	b7bd                	j	800037d8 <__lshift+0x60>
8000386c:	4310                	lw	a2,0(a4)
8000386e:	0711                	addi	a4,a4,4
80003870:	0691                	addi	a3,a3,4
80003872:	fec6ae23          	sw	a2,-4(a3)
80003876:	fef76be3          	bltu	a4,a5,8000386c <__lshift+0xf4>
8000387a:	b7d9                	j	80003840 <__lshift+0xc8>

8000387c <__mcmp>:
__mcmp():
8000387c:	4914                	lw	a3,16(a0)
8000387e:	4998                	lw	a4,16(a1)
80003880:	87aa                	mv	a5,a0
80003882:	40e68533          	sub	a0,a3,a4
80003886:	02e69563          	bne	a3,a4,800038b0 <__mcmp+0x34>
8000388a:	070a                	slli	a4,a4,0x2
8000388c:	07d1                	addi	a5,a5,20
8000388e:	05d1                	addi	a1,a1,20
80003890:	00e786b3          	add	a3,a5,a4
80003894:	95ba                	add	a1,a1,a4
80003896:	16f1                	addi	a3,a3,-4
80003898:	15f1                	addi	a1,a1,-4
8000389a:	4290                	lw	a2,0(a3)
8000389c:	4198                	lw	a4,0(a1)
8000389e:	00e60763          	beq	a2,a4,800038ac <__mcmp+0x30>
800038a2:	557d                	li	a0,-1
800038a4:	00e66663          	bltu	a2,a4,800038b0 <__mcmp+0x34>
800038a8:	4505                	li	a0,1
800038aa:	8082                	ret
800038ac:	fed7e5e3          	bltu	a5,a3,80003896 <__mcmp+0x1a>
800038b0:	8082                	ret

800038b2 <__mdiff>:
__mdiff():
800038b2:	1101                	addi	sp,sp,-32
800038b4:	cc22                	sw	s0,24(sp)
800038b6:	842e                	mv	s0,a1
800038b8:	c84a                	sw	s2,16(sp)
800038ba:	85b2                	mv	a1,a2
800038bc:	892a                	mv	s2,a0
800038be:	8522                	mv	a0,s0
800038c0:	ca26                	sw	s1,20(sp)
800038c2:	ce06                	sw	ra,28(sp)
800038c4:	c64e                	sw	s3,12(sp)
800038c6:	84b2                	mv	s1,a2
800038c8:	3f55                	jal	8000387c <__mcmp>
800038ca:	ed15                	bnez	a0,80003906 <__mdiff+0x54>
800038cc:	4581                	li	a1,0
800038ce:	854a                	mv	a0,s2
800038d0:	9adff0ef          	jal	ra,8000327c <_Balloc>
800038d4:	ed11                	bnez	a0,800038f0 <__mdiff+0x3e>
800038d6:	00003697          	auipc	a3,0x3
800038da:	83668693          	addi	a3,a3,-1994 # 8000610c <__clz_tab+0x210>
800038de:	4601                	li	a2,0
800038e0:	23200593          	li	a1,562
800038e4:	00003517          	auipc	a0,0x3
800038e8:	89c50513          	addi	a0,a0,-1892 # 80006180 <__sf_fake_stdout+0x20>
800038ec:	7cc000ef          	jal	ra,800040b8 <__assert_func>
800038f0:	4785                	li	a5,1
800038f2:	c91c                	sw	a5,16(a0)
800038f4:	00052a23          	sw	zero,20(a0)
800038f8:	40f2                	lw	ra,28(sp)
800038fa:	4462                	lw	s0,24(sp)
800038fc:	44d2                	lw	s1,20(sp)
800038fe:	4942                	lw	s2,16(sp)
80003900:	49b2                	lw	s3,12(sp)
80003902:	6105                	addi	sp,sp,32
80003904:	8082                	ret
80003906:	4985                	li	s3,1
80003908:	00054663          	bltz	a0,80003914 <__mdiff+0x62>
8000390c:	87a6                	mv	a5,s1
8000390e:	4981                	li	s3,0
80003910:	84a2                	mv	s1,s0
80003912:	843e                	mv	s0,a5
80003914:	40cc                	lw	a1,4(s1)
80003916:	854a                	mv	a0,s2
80003918:	965ff0ef          	jal	ra,8000327c <_Balloc>
8000391c:	e909                	bnez	a0,8000392e <__mdiff+0x7c>
8000391e:	00002697          	auipc	a3,0x2
80003922:	7ee68693          	addi	a3,a3,2030 # 8000610c <__clz_tab+0x210>
80003926:	4601                	li	a2,0
80003928:	24000593          	li	a1,576
8000392c:	bf65                	j	800038e4 <__mdiff+0x32>
8000392e:	0104a803          	lw	a6,16(s1)
80003932:	4818                	lw	a4,16(s0)
80003934:	01448893          	addi	a7,s1,20
80003938:	00281693          	slli	a3,a6,0x2
8000393c:	01440793          	addi	a5,s0,20
80003940:	070a                	slli	a4,a4,0x2
80003942:	6ec1                	lui	t4,0x10
80003944:	01352623          	sw	s3,12(a0)
80003948:	96c6                	add	a3,a3,a7
8000394a:	97ba                	add	a5,a5,a4
8000394c:	01450613          	addi	a2,a0,20
80003950:	4e51                	li	t3,20
80003952:	4301                	li	t1,0
80003954:	1efd                	addi	t4,t4,-1
80003956:	01c48733          	add	a4,s1,t3
8000395a:	4318                	lw	a4,0(a4)
8000395c:	01c405b3          	add	a1,s0,t3
80003960:	0005af03          	lw	t5,0(a1) # 10000 <__stack_size+0xf800>
80003964:	01d775b3          	and	a1,a4,t4
80003968:	959a                	add	a1,a1,t1
8000396a:	01df7333          	and	t1,t5,t4
8000396e:	406585b3          	sub	a1,a1,t1
80003972:	010f5f13          	srli	t5,t5,0x10
80003976:	8341                	srli	a4,a4,0x10
80003978:	4105d313          	srai	t1,a1,0x10
8000397c:	41e70733          	sub	a4,a4,t5
80003980:	971a                	add	a4,a4,t1
80003982:	41075313          	srai	t1,a4,0x10
80003986:	01d5f5b3          	and	a1,a1,t4
8000398a:	0742                	slli	a4,a4,0x10
8000398c:	01c50f33          	add	t5,a0,t3
80003990:	8f4d                	or	a4,a4,a1
80003992:	0e11                	addi	t3,t3,4
80003994:	00ef2023          	sw	a4,0(t5)
80003998:	008e0733          	add	a4,t3,s0
8000399c:	faf76de3          	bltu	a4,a5,80003956 <__mdiff+0xa4>
800039a0:	01540593          	addi	a1,s0,21
800039a4:	4711                	li	a4,4
800039a6:	00b7e763          	bltu	a5,a1,800039b4 <__mdiff+0x102>
800039aa:	8f81                	sub	a5,a5,s0
800039ac:	17ad                	addi	a5,a5,-21
800039ae:	9bf1                	andi	a5,a5,-4
800039b0:	00478713          	addi	a4,a5,4
800039b4:	98ba                	add	a7,a7,a4
800039b6:	6e41                	lui	t3,0x10
800039b8:	9732                	add	a4,a4,a2
800039ba:	8eba                	mv	t4,a4
800039bc:	85c6                	mv	a1,a7
800039be:	1e7d                	addi	t3,t3,-1
800039c0:	02d5e263          	bltu	a1,a3,800039e4 <__mdiff+0x132>
800039c4:	ffd88613          	addi	a2,a7,-3
800039c8:	4781                	li	a5,0
800039ca:	00c6e663          	bltu	a3,a2,800039d6 <__mdiff+0x124>
800039ce:	068d                	addi	a3,a3,3
800039d0:	411687b3          	sub	a5,a3,a7
800039d4:	9bf1                	andi	a5,a5,-4
800039d6:	97ba                	add	a5,a5,a4
800039d8:	17f1                	addi	a5,a5,-4
800039da:	4398                	lw	a4,0(a5)
800039dc:	c71d                	beqz	a4,80003a0a <__mdiff+0x158>
800039de:	01052823          	sw	a6,16(a0)
800039e2:	bf19                	j	800038f8 <__mdiff+0x46>
800039e4:	419c                	lw	a5,0(a1)
800039e6:	0e91                	addi	t4,t4,4
800039e8:	0591                	addi	a1,a1,4
800039ea:	01c7f633          	and	a2,a5,t3
800039ee:	961a                	add	a2,a2,t1
800039f0:	41065313          	srai	t1,a2,0x10
800039f4:	83c1                	srli	a5,a5,0x10
800039f6:	979a                	add	a5,a5,t1
800039f8:	4107d313          	srai	t1,a5,0x10
800039fc:	01c67633          	and	a2,a2,t3
80003a00:	07c2                	slli	a5,a5,0x10
80003a02:	8fd1                	or	a5,a5,a2
80003a04:	fefeae23          	sw	a5,-4(t4) # fffc <__stack_size+0xf7fc>
80003a08:	bf65                	j	800039c0 <__mdiff+0x10e>
80003a0a:	187d                	addi	a6,a6,-1
80003a0c:	b7f1                	j	800039d8 <__mdiff+0x126>

80003a0e <__d2b>:
__d2b():
80003a0e:	7179                	addi	sp,sp,-48
80003a10:	d226                	sw	s1,36(sp)
80003a12:	84ae                	mv	s1,a1
80003a14:	4585                	li	a1,1
80003a16:	d422                	sw	s0,40(sp)
80003a18:	d04a                	sw	s2,32(sp)
80003a1a:	ce4e                	sw	s3,28(sp)
80003a1c:	d606                	sw	ra,44(sp)
80003a1e:	cc52                	sw	s4,24(sp)
80003a20:	8432                	mv	s0,a2
80003a22:	89b6                	mv	s3,a3
80003a24:	893a                	mv	s2,a4
80003a26:	857ff0ef          	jal	ra,8000327c <_Balloc>
80003a2a:	ed09                	bnez	a0,80003a44 <__d2b+0x36>
80003a2c:	00002697          	auipc	a3,0x2
80003a30:	6e068693          	addi	a3,a3,1760 # 8000610c <__clz_tab+0x210>
80003a34:	4601                	li	a2,0
80003a36:	30a00593          	li	a1,778
80003a3a:	00002517          	auipc	a0,0x2
80003a3e:	74650513          	addi	a0,a0,1862 # 80006180 <__sf_fake_stdout+0x20>
80003a42:	2d9d                	jal	800040b8 <__assert_func>
80003a44:	00100737          	lui	a4,0x100
80003a48:	fff70793          	addi	a5,a4,-1 # fffff <__stack_size+0xff7ff>
80003a4c:	8fe1                	and	a5,a5,s0
80003a4e:	8051                	srli	s0,s0,0x14
80003a50:	7ff47413          	andi	s0,s0,2047
80003a54:	8a2a                	mv	s4,a0
80003a56:	e035                	bnez	s0,80003aba <__d2b+0xac>
80003a58:	c63e                	sw	a5,12(sp)
80003a5a:	c4ad                	beqz	s1,80003ac4 <__d2b+0xb6>
80003a5c:	0028                	addi	a0,sp,8
80003a5e:	c426                	sw	s1,8(sp)
80003a60:	a29ff0ef          	jal	ra,80003488 <__lo0bits>
80003a64:	46a2                	lw	a3,8(sp)
80003a66:	cd21                	beqz	a0,80003abe <__d2b+0xb0>
80003a68:	4732                	lw	a4,12(sp)
80003a6a:	02000793          	li	a5,32
80003a6e:	8f89                	sub	a5,a5,a0
80003a70:	00f717b3          	sll	a5,a4,a5
80003a74:	8fd5                	or	a5,a5,a3
80003a76:	00a75733          	srl	a4,a4,a0
80003a7a:	00fa2a23          	sw	a5,20(s4)
80003a7e:	c63a                	sw	a4,12(sp)
80003a80:	44b2                	lw	s1,12(sp)
80003a82:	009a2c23          	sw	s1,24(s4)
80003a86:	009034b3          	snez	s1,s1
80003a8a:	0485                	addi	s1,s1,1
80003a8c:	009a2823          	sw	s1,16(s4)
80003a90:	c439                	beqz	s0,80003ade <__d2b+0xd0>
80003a92:	bcd40413          	addi	s0,s0,-1075
80003a96:	942a                	add	s0,s0,a0
80003a98:	03500793          	li	a5,53
80003a9c:	0089a023          	sw	s0,0(s3)
80003aa0:	40a78533          	sub	a0,a5,a0
80003aa4:	00a92023          	sw	a0,0(s2)
80003aa8:	50b2                	lw	ra,44(sp)
80003aaa:	5422                	lw	s0,40(sp)
80003aac:	5492                	lw	s1,36(sp)
80003aae:	5902                	lw	s2,32(sp)
80003ab0:	49f2                	lw	s3,28(sp)
80003ab2:	8552                	mv	a0,s4
80003ab4:	4a62                	lw	s4,24(sp)
80003ab6:	6145                	addi	sp,sp,48
80003ab8:	8082                	ret
80003aba:	8fd9                	or	a5,a5,a4
80003abc:	bf71                	j	80003a58 <__d2b+0x4a>
80003abe:	00da2a23          	sw	a3,20(s4)
80003ac2:	bf7d                	j	80003a80 <__d2b+0x72>
80003ac4:	0068                	addi	a0,sp,12
80003ac6:	9c3ff0ef          	jal	ra,80003488 <__lo0bits>
80003aca:	47b2                	lw	a5,12(sp)
80003acc:	02050513          	addi	a0,a0,32
80003ad0:	4485                	li	s1,1
80003ad2:	00fa2a23          	sw	a5,20(s4)
80003ad6:	4785                	li	a5,1
80003ad8:	00fa2823          	sw	a5,16(s4)
80003adc:	bf55                	j	80003a90 <__d2b+0x82>
80003ade:	bce50793          	addi	a5,a0,-1074
80003ae2:	00f9a023          	sw	a5,0(s3)
80003ae6:	00249793          	slli	a5,s1,0x2
80003aea:	97d2                	add	a5,a5,s4
80003aec:	4b88                	lw	a0,16(a5)
80003aee:	0496                	slli	s1,s1,0x5
80003af0:	953ff0ef          	jal	ra,80003442 <__hi0bits>
80003af4:	8c89                	sub	s1,s1,a0
80003af6:	00992023          	sw	s1,0(s2)
80003afa:	b77d                	j	80003aa8 <__d2b+0x9a>

80003afc <_calloc_r>:
_calloc_r():
80003afc:	8732                	mv	a4,a2
80003afe:	02e5b7b3          	mulhu	a5,a1,a4
80003b02:	1101                	addi	sp,sp,-32
80003b04:	ce06                	sw	ra,28(sp)
80003b06:	cc22                	sw	s0,24(sp)
80003b08:	02c58633          	mul	a2,a1,a2
80003b0c:	cb89                	beqz	a5,80003b1e <_calloc_r+0x22>
80003b0e:	47b1                	li	a5,12
80003b10:	c11c                	sw	a5,0(a0)
80003b12:	4401                	li	s0,0
80003b14:	40f2                	lw	ra,28(sp)
80003b16:	8522                	mv	a0,s0
80003b18:	4462                	lw	s0,24(sp)
80003b1a:	6105                	addi	sp,sp,32
80003b1c:	8082                	ret
80003b1e:	85b2                	mv	a1,a2
80003b20:	c632                	sw	a2,12(sp)
80003b22:	207d                	jal	80003bd0 <_malloc_r>
80003b24:	842a                	mv	s0,a0
80003b26:	d57d                	beqz	a0,80003b14 <_calloc_r+0x18>
80003b28:	4632                	lw	a2,12(sp)
80003b2a:	4581                	li	a1,0
80003b2c:	ea8ff0ef          	jal	ra,800031d4 <memset>
80003b30:	b7d5                	j	80003b14 <_calloc_r+0x18>

80003b32 <_free_r>:
_free_r():
80003b32:	cdd1                	beqz	a1,80003bce <_free_r+0x9c>
80003b34:	ffc5a783          	lw	a5,-4(a1)
80003b38:	1101                	addi	sp,sp,-32
80003b3a:	cc22                	sw	s0,24(sp)
80003b3c:	ce06                	sw	ra,28(sp)
80003b3e:	ffc58413          	addi	s0,a1,-4
80003b42:	0007d363          	bgez	a5,80003b48 <_free_r+0x16>
80003b46:	943e                	add	s0,s0,a5
80003b48:	c62a                	sw	a0,12(sp)
80003b4a:	2d4d                	jal	800041fc <__malloc_lock>
80003b4c:	86c18713          	addi	a4,gp,-1940 # 9000023c <__malloc_free_list>
80003b50:	431c                	lw	a5,0(a4)
80003b52:	4532                	lw	a0,12(sp)
80003b54:	eb81                	bnez	a5,80003b64 <_free_r+0x32>
80003b56:	00042223          	sw	zero,4(s0)
80003b5a:	c300                	sw	s0,0(a4)
80003b5c:	4462                	lw	s0,24(sp)
80003b5e:	40f2                	lw	ra,28(sp)
80003b60:	6105                	addi	sp,sp,32
80003b62:	ad71                	j	800041fe <__malloc_unlock>
80003b64:	00f47d63          	bgeu	s0,a5,80003b7e <_free_r+0x4c>
80003b68:	4010                	lw	a2,0(s0)
80003b6a:	00c406b3          	add	a3,s0,a2
80003b6e:	00d79663          	bne	a5,a3,80003b7a <_free_r+0x48>
80003b72:	4394                	lw	a3,0(a5)
80003b74:	43dc                	lw	a5,4(a5)
80003b76:	96b2                	add	a3,a3,a2
80003b78:	c014                	sw	a3,0(s0)
80003b7a:	c05c                	sw	a5,4(s0)
80003b7c:	bff9                	j	80003b5a <_free_r+0x28>
80003b7e:	873e                	mv	a4,a5
80003b80:	43dc                	lw	a5,4(a5)
80003b82:	c399                	beqz	a5,80003b88 <_free_r+0x56>
80003b84:	fef47de3          	bgeu	s0,a5,80003b7e <_free_r+0x4c>
80003b88:	4314                	lw	a3,0(a4)
80003b8a:	00d70633          	add	a2,a4,a3
80003b8e:	00861f63          	bne	a2,s0,80003bac <_free_r+0x7a>
80003b92:	4010                	lw	a2,0(s0)
80003b94:	96b2                	add	a3,a3,a2
80003b96:	c314                	sw	a3,0(a4)
80003b98:	00d70633          	add	a2,a4,a3
80003b9c:	fcc790e3          	bne	a5,a2,80003b5c <_free_r+0x2a>
80003ba0:	4390                	lw	a2,0(a5)
80003ba2:	43dc                	lw	a5,4(a5)
80003ba4:	96b2                	add	a3,a3,a2
80003ba6:	c314                	sw	a3,0(a4)
80003ba8:	c35c                	sw	a5,4(a4)
80003baa:	bf4d                	j	80003b5c <_free_r+0x2a>
80003bac:	00c47563          	bgeu	s0,a2,80003bb6 <_free_r+0x84>
80003bb0:	47b1                	li	a5,12
80003bb2:	c11c                	sw	a5,0(a0)
80003bb4:	b765                	j	80003b5c <_free_r+0x2a>
80003bb6:	4010                	lw	a2,0(s0)
80003bb8:	00c406b3          	add	a3,s0,a2
80003bbc:	00d79663          	bne	a5,a3,80003bc8 <_free_r+0x96>
80003bc0:	4394                	lw	a3,0(a5)
80003bc2:	43dc                	lw	a5,4(a5)
80003bc4:	96b2                	add	a3,a3,a2
80003bc6:	c014                	sw	a3,0(s0)
80003bc8:	c05c                	sw	a5,4(s0)
80003bca:	c340                	sw	s0,4(a4)
80003bcc:	bf41                	j	80003b5c <_free_r+0x2a>
80003bce:	8082                	ret

80003bd0 <_malloc_r>:
_malloc_r():
80003bd0:	1101                	addi	sp,sp,-32
80003bd2:	ca26                	sw	s1,20(sp)
80003bd4:	00358493          	addi	s1,a1,3
80003bd8:	98f1                	andi	s1,s1,-4
80003bda:	c84a                	sw	s2,16(sp)
80003bdc:	ce06                	sw	ra,28(sp)
80003bde:	cc22                	sw	s0,24(sp)
80003be0:	c64e                	sw	s3,12(sp)
80003be2:	04a1                	addi	s1,s1,8
80003be4:	47b1                	li	a5,12
80003be6:	892a                	mv	s2,a0
80003be8:	04f4f063          	bgeu	s1,a5,80003c28 <_malloc_r+0x58>
80003bec:	44b1                	li	s1,12
80003bee:	02b4ef63          	bltu	s1,a1,80003c2c <_malloc_r+0x5c>
80003bf2:	854a                	mv	a0,s2
80003bf4:	2521                	jal	800041fc <__malloc_lock>
80003bf6:	86c18693          	addi	a3,gp,-1940 # 9000023c <__malloc_free_list>
80003bfa:	4298                	lw	a4,0(a3)
80003bfc:	843a                	mv	s0,a4
80003bfe:	e031                	bnez	s0,80003c42 <_malloc_r+0x72>
80003c00:	87018413          	addi	s0,gp,-1936 # 90000240 <__malloc_sbrk_start>
80003c04:	401c                	lw	a5,0(s0)
80003c06:	e789                	bnez	a5,80003c10 <_malloc_r+0x40>
80003c08:	4581                	li	a1,0
80003c0a:	854a                	mv	a0,s2
80003c0c:	2e79                	jal	80003faa <_sbrk_r>
80003c0e:	c008                	sw	a0,0(s0)
80003c10:	85a6                	mv	a1,s1
80003c12:	854a                	mv	a0,s2
80003c14:	2e59                	jal	80003faa <_sbrk_r>
80003c16:	59fd                	li	s3,-1
80003c18:	07351863          	bne	a0,s3,80003c88 <_malloc_r+0xb8>
80003c1c:	47b1                	li	a5,12
80003c1e:	00f92023          	sw	a5,0(s2)
80003c22:	854a                	mv	a0,s2
80003c24:	2be9                	jal	800041fe <__malloc_unlock>
80003c26:	a031                	j	80003c32 <_malloc_r+0x62>
80003c28:	fc04d3e3          	bgez	s1,80003bee <_malloc_r+0x1e>
80003c2c:	47b1                	li	a5,12
80003c2e:	00f92023          	sw	a5,0(s2)
80003c32:	4501                	li	a0,0
80003c34:	40f2                	lw	ra,28(sp)
80003c36:	4462                	lw	s0,24(sp)
80003c38:	44d2                	lw	s1,20(sp)
80003c3a:	4942                	lw	s2,16(sp)
80003c3c:	49b2                	lw	s3,12(sp)
80003c3e:	6105                	addi	sp,sp,32
80003c40:	8082                	ret
80003c42:	401c                	lw	a5,0(s0)
80003c44:	8f85                	sub	a5,a5,s1
80003c46:	0207ce63          	bltz	a5,80003c82 <_malloc_r+0xb2>
80003c4a:	462d                	li	a2,11
80003c4c:	00f67663          	bgeu	a2,a5,80003c58 <_malloc_r+0x88>
80003c50:	c01c                	sw	a5,0(s0)
80003c52:	943e                	add	s0,s0,a5
80003c54:	c004                	sw	s1,0(s0)
80003c56:	a029                	j	80003c60 <_malloc_r+0x90>
80003c58:	405c                	lw	a5,4(s0)
80003c5a:	02871263          	bne	a4,s0,80003c7e <_malloc_r+0xae>
80003c5e:	c29c                	sw	a5,0(a3)
80003c60:	854a                	mv	a0,s2
80003c62:	2b71                	jal	800041fe <__malloc_unlock>
80003c64:	00b40513          	addi	a0,s0,11
80003c68:	00440793          	addi	a5,s0,4
80003c6c:	9961                	andi	a0,a0,-8
80003c6e:	40f50733          	sub	a4,a0,a5
80003c72:	fcf501e3          	beq	a0,a5,80003c34 <_malloc_r+0x64>
80003c76:	943a                	add	s0,s0,a4
80003c78:	8f89                	sub	a5,a5,a0
80003c7a:	c01c                	sw	a5,0(s0)
80003c7c:	bf65                	j	80003c34 <_malloc_r+0x64>
80003c7e:	c35c                	sw	a5,4(a4)
80003c80:	b7c5                	j	80003c60 <_malloc_r+0x90>
80003c82:	8722                	mv	a4,s0
80003c84:	4040                	lw	s0,4(s0)
80003c86:	bfa5                	j	80003bfe <_malloc_r+0x2e>
80003c88:	00350413          	addi	s0,a0,3
80003c8c:	9871                	andi	s0,s0,-4
80003c8e:	fc8503e3          	beq	a0,s0,80003c54 <_malloc_r+0x84>
80003c92:	40a405b3          	sub	a1,s0,a0
80003c96:	854a                	mv	a0,s2
80003c98:	2e09                	jal	80003faa <_sbrk_r>
80003c9a:	fb351de3          	bne	a0,s3,80003c54 <_malloc_r+0x84>
80003c9e:	bfbd                	j	80003c1c <_malloc_r+0x4c>

80003ca0 <__sfputc_r>:
__sfputc_r():
80003ca0:	461c                	lw	a5,8(a2)
80003ca2:	17fd                	addi	a5,a5,-1
80003ca4:	c61c                	sw	a5,8(a2)
80003ca6:	0007da63          	bgez	a5,80003cba <__sfputc_r+0x1a>
80003caa:	4e18                	lw	a4,24(a2)
80003cac:	00e7c563          	blt	a5,a4,80003cb6 <__sfputc_r+0x16>
80003cb0:	47a9                	li	a5,10
80003cb2:	00f59463          	bne	a1,a5,80003cba <__sfputc_r+0x1a>
80003cb6:	f7ffd06f          	j	80001c34 <__swbuf_r>
80003cba:	421c                	lw	a5,0(a2)
80003cbc:	852e                	mv	a0,a1
80003cbe:	00178713          	addi	a4,a5,1
80003cc2:	c218                	sw	a4,0(a2)
80003cc4:	00b78023          	sb	a1,0(a5)
80003cc8:	8082                	ret

80003cca <__sfputs_r>:
__sfputs_r():
80003cca:	1101                	addi	sp,sp,-32
80003ccc:	cc22                	sw	s0,24(sp)
80003cce:	ca26                	sw	s1,20(sp)
80003cd0:	c84a                	sw	s2,16(sp)
80003cd2:	c64e                	sw	s3,12(sp)
80003cd4:	c452                	sw	s4,8(sp)
80003cd6:	ce06                	sw	ra,28(sp)
80003cd8:	892a                	mv	s2,a0
80003cda:	89ae                	mv	s3,a1
80003cdc:	8432                	mv	s0,a2
80003cde:	00d604b3          	add	s1,a2,a3
80003ce2:	5a7d                	li	s4,-1
80003ce4:	00941463          	bne	s0,s1,80003cec <__sfputs_r+0x22>
80003ce8:	4501                	li	a0,0
80003cea:	a809                	j	80003cfc <__sfputs_r+0x32>
80003cec:	00044583          	lbu	a1,0(s0)
80003cf0:	864e                	mv	a2,s3
80003cf2:	854a                	mv	a0,s2
80003cf4:	3775                	jal	80003ca0 <__sfputc_r>
80003cf6:	0405                	addi	s0,s0,1
80003cf8:	ff4516e3          	bne	a0,s4,80003ce4 <__sfputs_r+0x1a>
80003cfc:	40f2                	lw	ra,28(sp)
80003cfe:	4462                	lw	s0,24(sp)
80003d00:	44d2                	lw	s1,20(sp)
80003d02:	4942                	lw	s2,16(sp)
80003d04:	49b2                	lw	s3,12(sp)
80003d06:	4a22                	lw	s4,8(sp)
80003d08:	6105                	addi	sp,sp,32
80003d0a:	8082                	ret

80003d0c <_vfiprintf_r>:
_vfiprintf_r():
80003d0c:	7135                	addi	sp,sp,-160
80003d0e:	cd22                	sw	s0,152(sp)
80003d10:	cb26                	sw	s1,148(sp)
80003d12:	c94a                	sw	s2,144(sp)
80003d14:	c74e                	sw	s3,140(sp)
80003d16:	cf06                	sw	ra,156(sp)
80003d18:	c552                	sw	s4,136(sp)
80003d1a:	c356                	sw	s5,132(sp)
80003d1c:	c15a                	sw	s6,128(sp)
80003d1e:	dede                	sw	s7,124(sp)
80003d20:	dce2                	sw	s8,120(sp)
80003d22:	dae6                	sw	s9,116(sp)
80003d24:	89aa                	mv	s3,a0
80003d26:	84ae                	mv	s1,a1
80003d28:	8932                	mv	s2,a2
80003d2a:	8436                	mv	s0,a3
80003d2c:	c509                	beqz	a0,80003d36 <_vfiprintf_r+0x2a>
80003d2e:	4d1c                	lw	a5,24(a0)
80003d30:	e399                	bnez	a5,80003d36 <_vfiprintf_r+0x2a>
80003d32:	930ff0ef          	jal	ra,80002e62 <__sinit>
80003d36:	00002797          	auipc	a5,0x2
80003d3a:	40a78793          	addi	a5,a5,1034 # 80006140 <__sf_fake_stdin>
80003d3e:	0cf49c63          	bne	s1,a5,80003e16 <_vfiprintf_r+0x10a>
80003d42:	0049a483          	lw	s1,4(s3)
80003d46:	00c4d783          	lhu	a5,12(s1)
80003d4a:	8ba1                	andi	a5,a5,8
80003d4c:	c7fd                	beqz	a5,80003e3a <_vfiprintf_r+0x12e>
80003d4e:	489c                	lw	a5,16(s1)
80003d50:	c7ed                	beqz	a5,80003e3a <_vfiprintf_r+0x12e>
80003d52:	02000793          	li	a5,32
80003d56:	02f104a3          	sb	a5,41(sp)
80003d5a:	03000793          	li	a5,48
80003d5e:	d202                	sw	zero,36(sp)
80003d60:	02f10523          	sb	a5,42(sp)
80003d64:	c622                	sw	s0,12(sp)
80003d66:	02500b93          	li	s7,37
80003d6a:	00002a97          	auipc	s5,0x2
80003d6e:	56aa8a93          	addi	s5,s5,1386 # 800062d4 <p05.0+0xc>
80003d72:	4c05                	li	s8,1
80003d74:	4b29                	li	s6,10
80003d76:	844a                	mv	s0,s2
80003d78:	00044783          	lbu	a5,0(s0)
80003d7c:	c399                	beqz	a5,80003d82 <_vfiprintf_r+0x76>
80003d7e:	0f779163          	bne	a5,s7,80003e60 <_vfiprintf_r+0x154>
80003d82:	41240cb3          	sub	s9,s0,s2
80003d86:	01240d63          	beq	s0,s2,80003da0 <_vfiprintf_r+0x94>
80003d8a:	86e6                	mv	a3,s9
80003d8c:	864a                	mv	a2,s2
80003d8e:	85a6                	mv	a1,s1
80003d90:	854e                	mv	a0,s3
80003d92:	3f25                	jal	80003cca <__sfputs_r>
80003d94:	57fd                	li	a5,-1
80003d96:	1ef50763          	beq	a0,a5,80003f84 <_vfiprintf_r+0x278>
80003d9a:	5792                	lw	a5,36(sp)
80003d9c:	97e6                	add	a5,a5,s9
80003d9e:	d23e                	sw	a5,36(sp)
80003da0:	00044783          	lbu	a5,0(s0)
80003da4:	1e078063          	beqz	a5,80003f84 <_vfiprintf_r+0x278>
80003da8:	57fd                	li	a5,-1
80003daa:	00140913          	addi	s2,s0,1
80003dae:	c802                	sw	zero,16(sp)
80003db0:	ce02                	sw	zero,28(sp)
80003db2:	ca3e                	sw	a5,20(sp)
80003db4:	cc02                	sw	zero,24(sp)
80003db6:	040109a3          	sb	zero,83(sp)
80003dba:	d482                	sw	zero,104(sp)
80003dbc:	00094583          	lbu	a1,0(s2)
80003dc0:	4615                	li	a2,5
80003dc2:	8556                	mv	a0,s5
80003dc4:	b1aff0ef          	jal	ra,800030de <memchr>
80003dc8:	47c2                	lw	a5,16(sp)
80003dca:	00190413          	addi	s0,s2,1
80003dce:	e959                	bnez	a0,80003e64 <_vfiprintf_r+0x158>
80003dd0:	0107f713          	andi	a4,a5,16
80003dd4:	c709                	beqz	a4,80003dde <_vfiprintf_r+0xd2>
80003dd6:	02000713          	li	a4,32
80003dda:	04e109a3          	sb	a4,83(sp)
80003dde:	0087f713          	andi	a4,a5,8
80003de2:	c709                	beqz	a4,80003dec <_vfiprintf_r+0xe0>
80003de4:	02b00713          	li	a4,43
80003de8:	04e109a3          	sb	a4,83(sp)
80003dec:	00094683          	lbu	a3,0(s2)
80003df0:	02a00713          	li	a4,42
80003df4:	08e68063          	beq	a3,a4,80003e74 <_vfiprintf_r+0x168>
80003df8:	47f2                	lw	a5,28(sp)
80003dfa:	844a                	mv	s0,s2
80003dfc:	4681                	li	a3,0
80003dfe:	4625                	li	a2,9
80003e00:	00044703          	lbu	a4,0(s0)
80003e04:	00140593          	addi	a1,s0,1
80003e08:	fd070713          	addi	a4,a4,-48
80003e0c:	0ae67963          	bgeu	a2,a4,80003ebe <_vfiprintf_r+0x1b2>
80003e10:	cab5                	beqz	a3,80003e84 <_vfiprintf_r+0x178>
80003e12:	ce3e                	sw	a5,28(sp)
80003e14:	a885                	j	80003e84 <_vfiprintf_r+0x178>
80003e16:	00002797          	auipc	a5,0x2
80003e1a:	34a78793          	addi	a5,a5,842 # 80006160 <__sf_fake_stdout>
80003e1e:	00f49563          	bne	s1,a5,80003e28 <_vfiprintf_r+0x11c>
80003e22:	0089a483          	lw	s1,8(s3)
80003e26:	b705                	j	80003d46 <_vfiprintf_r+0x3a>
80003e28:	00002797          	auipc	a5,0x2
80003e2c:	2f878793          	addi	a5,a5,760 # 80006120 <__sf_fake_stderr>
80003e30:	f0f49be3          	bne	s1,a5,80003d46 <_vfiprintf_r+0x3a>
80003e34:	00c9a483          	lw	s1,12(s3)
80003e38:	b739                	j	80003d46 <_vfiprintf_r+0x3a>
80003e3a:	85a6                	mv	a1,s1
80003e3c:	854e                	mv	a0,s3
80003e3e:	ebdfd0ef          	jal	ra,80001cfa <__swsetup_r>
80003e42:	d901                	beqz	a0,80003d52 <_vfiprintf_r+0x46>
80003e44:	557d                	li	a0,-1
80003e46:	40fa                	lw	ra,156(sp)
80003e48:	446a                	lw	s0,152(sp)
80003e4a:	44da                	lw	s1,148(sp)
80003e4c:	494a                	lw	s2,144(sp)
80003e4e:	49ba                	lw	s3,140(sp)
80003e50:	4a2a                	lw	s4,136(sp)
80003e52:	4a9a                	lw	s5,132(sp)
80003e54:	4b0a                	lw	s6,128(sp)
80003e56:	5bf6                	lw	s7,124(sp)
80003e58:	5c66                	lw	s8,120(sp)
80003e5a:	5cd6                	lw	s9,116(sp)
80003e5c:	610d                	addi	sp,sp,160
80003e5e:	8082                	ret
80003e60:	0405                	addi	s0,s0,1
80003e62:	bf19                	j	80003d78 <_vfiprintf_r+0x6c>
80003e64:	41550533          	sub	a0,a0,s5
80003e68:	00ac1533          	sll	a0,s8,a0
80003e6c:	8fc9                	or	a5,a5,a0
80003e6e:	c83e                	sw	a5,16(sp)
80003e70:	8922                	mv	s2,s0
80003e72:	b7a9                	j	80003dbc <_vfiprintf_r+0xb0>
80003e74:	4732                	lw	a4,12(sp)
80003e76:	00470693          	addi	a3,a4,4
80003e7a:	4318                	lw	a4,0(a4)
80003e7c:	c636                	sw	a3,12(sp)
80003e7e:	02074963          	bltz	a4,80003eb0 <_vfiprintf_r+0x1a4>
80003e82:	ce3a                	sw	a4,28(sp)
80003e84:	00044703          	lbu	a4,0(s0)
80003e88:	02e00793          	li	a5,46
80003e8c:	04f71f63          	bne	a4,a5,80003eea <_vfiprintf_r+0x1de>
80003e90:	00144703          	lbu	a4,1(s0)
80003e94:	02a00793          	li	a5,42
80003e98:	02f71b63          	bne	a4,a5,80003ece <_vfiprintf_r+0x1c2>
80003e9c:	47b2                	lw	a5,12(sp)
80003e9e:	0409                	addi	s0,s0,2
80003ea0:	00478713          	addi	a4,a5,4
80003ea4:	439c                	lw	a5,0(a5)
80003ea6:	c63a                	sw	a4,12(sp)
80003ea8:	0207c163          	bltz	a5,80003eca <_vfiprintf_r+0x1be>
80003eac:	ca3e                	sw	a5,20(sp)
80003eae:	a835                	j	80003eea <_vfiprintf_r+0x1de>
80003eb0:	40e00733          	neg	a4,a4
80003eb4:	0027e793          	ori	a5,a5,2
80003eb8:	ce3a                	sw	a4,28(sp)
80003eba:	c83e                	sw	a5,16(sp)
80003ebc:	b7e1                	j	80003e84 <_vfiprintf_r+0x178>
80003ebe:	036787b3          	mul	a5,a5,s6
80003ec2:	842e                	mv	s0,a1
80003ec4:	4685                	li	a3,1
80003ec6:	97ba                	add	a5,a5,a4
80003ec8:	bf25                	j	80003e00 <_vfiprintf_r+0xf4>
80003eca:	57fd                	li	a5,-1
80003ecc:	b7c5                	j	80003eac <_vfiprintf_r+0x1a0>
80003ece:	0405                	addi	s0,s0,1
80003ed0:	ca02                	sw	zero,20(sp)
80003ed2:	4681                	li	a3,0
80003ed4:	4781                	li	a5,0
80003ed6:	4625                	li	a2,9
80003ed8:	00044703          	lbu	a4,0(s0)
80003edc:	00140593          	addi	a1,s0,1
80003ee0:	fd070713          	addi	a4,a4,-48
80003ee4:	06e67863          	bgeu	a2,a4,80003f54 <_vfiprintf_r+0x248>
80003ee8:	f2f1                	bnez	a3,80003eac <_vfiprintf_r+0x1a0>
80003eea:	00044583          	lbu	a1,0(s0)
80003eee:	460d                	li	a2,3
80003ef0:	00002517          	auipc	a0,0x2
80003ef4:	3ec50513          	addi	a0,a0,1004 # 800062dc <p05.0+0x14>
80003ef8:	9e6ff0ef          	jal	ra,800030de <memchr>
80003efc:	cd11                	beqz	a0,80003f18 <_vfiprintf_r+0x20c>
80003efe:	00002797          	auipc	a5,0x2
80003f02:	3de78793          	addi	a5,a5,990 # 800062dc <p05.0+0x14>
80003f06:	8d1d                	sub	a0,a0,a5
80003f08:	04000793          	li	a5,64
80003f0c:	00a797b3          	sll	a5,a5,a0
80003f10:	4542                	lw	a0,16(sp)
80003f12:	0405                	addi	s0,s0,1
80003f14:	8d5d                	or	a0,a0,a5
80003f16:	c82a                	sw	a0,16(sp)
80003f18:	00044583          	lbu	a1,0(s0)
80003f1c:	4619                	li	a2,6
80003f1e:	00002517          	auipc	a0,0x2
80003f22:	3c250513          	addi	a0,a0,962 # 800062e0 <p05.0+0x18>
80003f26:	00140913          	addi	s2,s0,1
80003f2a:	02b10423          	sb	a1,40(sp)
80003f2e:	9b0ff0ef          	jal	ra,800030de <memchr>
80003f32:	c12d                	beqz	a0,80003f94 <_vfiprintf_r+0x288>
80003f34:	ffffd797          	auipc	a5,0xffffd
80003f38:	36e78793          	addi	a5,a5,878 # 800012a2 <_printf_float>
80003f3c:	e795                	bnez	a5,80003f68 <_vfiprintf_r+0x25c>
80003f3e:	4742                	lw	a4,16(sp)
80003f40:	47b2                	lw	a5,12(sp)
80003f42:	10077713          	andi	a4,a4,256
80003f46:	cf09                	beqz	a4,80003f60 <_vfiprintf_r+0x254>
80003f48:	0791                	addi	a5,a5,4
80003f4a:	c63e                	sw	a5,12(sp)
80003f4c:	5792                	lw	a5,36(sp)
80003f4e:	97d2                	add	a5,a5,s4
80003f50:	d23e                	sw	a5,36(sp)
80003f52:	b515                	j	80003d76 <_vfiprintf_r+0x6a>
80003f54:	036787b3          	mul	a5,a5,s6
80003f58:	842e                	mv	s0,a1
80003f5a:	4685                	li	a3,1
80003f5c:	97ba                	add	a5,a5,a4
80003f5e:	bfad                	j	80003ed8 <_vfiprintf_r+0x1cc>
80003f60:	079d                	addi	a5,a5,7
80003f62:	9be1                	andi	a5,a5,-8
80003f64:	07a1                	addi	a5,a5,8
80003f66:	b7d5                	j	80003f4a <_vfiprintf_r+0x23e>
80003f68:	0078                	addi	a4,sp,12
80003f6a:	00000697          	auipc	a3,0x0
80003f6e:	d6068693          	addi	a3,a3,-672 # 80003cca <__sfputs_r>
80003f72:	8626                	mv	a2,s1
80003f74:	080c                	addi	a1,sp,16
80003f76:	854e                	mv	a0,s3
80003f78:	b2afd0ef          	jal	ra,800012a2 <_printf_float>
80003f7c:	57fd                	li	a5,-1
80003f7e:	8a2a                	mv	s4,a0
80003f80:	fcf516e3          	bne	a0,a5,80003f4c <_vfiprintf_r+0x240>
80003f84:	00c4d783          	lhu	a5,12(s1)
80003f88:	0407f793          	andi	a5,a5,64
80003f8c:	ea079ce3          	bnez	a5,80003e44 <_vfiprintf_r+0x138>
80003f90:	5512                	lw	a0,36(sp)
80003f92:	bd55                	j	80003e46 <_vfiprintf_r+0x13a>
80003f94:	0078                	addi	a4,sp,12
80003f96:	00000697          	auipc	a3,0x0
80003f9a:	d3468693          	addi	a3,a3,-716 # 80003cca <__sfputs_r>
80003f9e:	8626                	mv	a2,s1
80003fa0:	080c                	addi	a1,sp,16
80003fa2:	854e                	mv	a0,s3
80003fa4:	8dffd0ef          	jal	ra,80001882 <_printf_i>
80003fa8:	bfd1                	j	80003f7c <_vfiprintf_r+0x270>

80003faa <_sbrk_r>:
_sbrk_r():
80003faa:	1141                	addi	sp,sp,-16
80003fac:	c422                	sw	s0,8(sp)
80003fae:	842a                	mv	s0,a0
80003fb0:	852e                	mv	a0,a1
80003fb2:	8601a223          	sw	zero,-1948(gp) # 90000234 <errno>
80003fb6:	c606                	sw	ra,12(sp)
80003fb8:	9ecfc0ef          	jal	ra,800001a4 <_sbrk>
80003fbc:	57fd                	li	a5,-1
80003fbe:	00f51663          	bne	a0,a5,80003fca <_sbrk_r+0x20>
80003fc2:	8641a783          	lw	a5,-1948(gp) # 90000234 <errno>
80003fc6:	c391                	beqz	a5,80003fca <_sbrk_r+0x20>
80003fc8:	c01c                	sw	a5,0(s0)
80003fca:	40b2                	lw	ra,12(sp)
80003fcc:	4422                	lw	s0,8(sp)
80003fce:	0141                	addi	sp,sp,16
80003fd0:	8082                	ret

80003fd2 <__sread>:
__sread():
80003fd2:	1141                	addi	sp,sp,-16
80003fd4:	c422                	sw	s0,8(sp)
80003fd6:	842e                	mv	s0,a1
80003fd8:	00e59583          	lh	a1,14(a1)
80003fdc:	c606                	sw	ra,12(sp)
80003fde:	240d                	jal	80004200 <_read_r>
80003fe0:	00054963          	bltz	a0,80003ff2 <__sread+0x20>
80003fe4:	487c                	lw	a5,84(s0)
80003fe6:	97aa                	add	a5,a5,a0
80003fe8:	c87c                	sw	a5,84(s0)
80003fea:	40b2                	lw	ra,12(sp)
80003fec:	4422                	lw	s0,8(sp)
80003fee:	0141                	addi	sp,sp,16
80003ff0:	8082                	ret
80003ff2:	00c45783          	lhu	a5,12(s0)
80003ff6:	777d                	lui	a4,0xfffff
80003ff8:	177d                	addi	a4,a4,-1
80003ffa:	8ff9                	and	a5,a5,a4
80003ffc:	00f41623          	sh	a5,12(s0)
80004000:	b7ed                	j	80003fea <__sread+0x18>

80004002 <__swrite>:
__swrite():
80004002:	00c5d783          	lhu	a5,12(a1)
80004006:	1101                	addi	sp,sp,-32
80004008:	cc22                	sw	s0,24(sp)
8000400a:	ca26                	sw	s1,20(sp)
8000400c:	c84a                	sw	s2,16(sp)
8000400e:	c64e                	sw	s3,12(sp)
80004010:	ce06                	sw	ra,28(sp)
80004012:	1007f793          	andi	a5,a5,256
80004016:	84aa                	mv	s1,a0
80004018:	842e                	mv	s0,a1
8000401a:	8932                	mv	s2,a2
8000401c:	89b6                	mv	s3,a3
8000401e:	c791                	beqz	a5,8000402a <__swrite+0x28>
80004020:	00e59583          	lh	a1,14(a1)
80004024:	4689                	li	a3,2
80004026:	4601                	li	a2,0
80004028:	22bd                	jal	80004196 <_lseek_r>
8000402a:	00c45783          	lhu	a5,12(s0)
8000402e:	777d                	lui	a4,0xfffff
80004030:	177d                	addi	a4,a4,-1
80004032:	8ff9                	and	a5,a5,a4
80004034:	00e41583          	lh	a1,14(s0)
80004038:	00f41623          	sh	a5,12(s0)
8000403c:	4462                	lw	s0,24(sp)
8000403e:	40f2                	lw	ra,28(sp)
80004040:	86ce                	mv	a3,s3
80004042:	864a                	mv	a2,s2
80004044:	49b2                	lw	s3,12(sp)
80004046:	4942                	lw	s2,16(sp)
80004048:	8526                	mv	a0,s1
8000404a:	44d2                	lw	s1,20(sp)
8000404c:	6105                	addi	sp,sp,32
8000404e:	a83d                	j	8000408c <_write_r>

80004050 <__sseek>:
__sseek():
80004050:	1141                	addi	sp,sp,-16
80004052:	c422                	sw	s0,8(sp)
80004054:	842e                	mv	s0,a1
80004056:	00e59583          	lh	a1,14(a1)
8000405a:	c606                	sw	ra,12(sp)
8000405c:	2a2d                	jal	80004196 <_lseek_r>
8000405e:	57fd                	li	a5,-1
80004060:	00c45703          	lhu	a4,12(s0)
80004064:	00f51b63          	bne	a0,a5,8000407a <__sseek+0x2a>
80004068:	77fd                	lui	a5,0xfffff
8000406a:	17fd                	addi	a5,a5,-1
8000406c:	8ff9                	and	a5,a5,a4
8000406e:	00f41623          	sh	a5,12(s0)
80004072:	40b2                	lw	ra,12(sp)
80004074:	4422                	lw	s0,8(sp)
80004076:	0141                	addi	sp,sp,16
80004078:	8082                	ret
8000407a:	6785                	lui	a5,0x1
8000407c:	8fd9                	or	a5,a5,a4
8000407e:	00f41623          	sh	a5,12(s0)
80004082:	c868                	sw	a0,84(s0)
80004084:	b7fd                	j	80004072 <__sseek+0x22>

80004086 <__sclose>:
__sclose():
80004086:	00e59583          	lh	a1,14(a1)
8000408a:	a0a5                	j	800040f2 <_close_r>

8000408c <_write_r>:
_write_r():
8000408c:	1141                	addi	sp,sp,-16
8000408e:	c422                	sw	s0,8(sp)
80004090:	842a                	mv	s0,a0
80004092:	852e                	mv	a0,a1
80004094:	85b2                	mv	a1,a2
80004096:	8636                	mv	a2,a3
80004098:	8601a223          	sw	zero,-1948(gp) # 90000234 <errno>
8000409c:	c606                	sw	ra,12(sp)
8000409e:	936fc0ef          	jal	ra,800001d4 <_write>
800040a2:	57fd                	li	a5,-1
800040a4:	00f51663          	bne	a0,a5,800040b0 <_write_r+0x24>
800040a8:	8641a783          	lw	a5,-1948(gp) # 90000234 <errno>
800040ac:	c391                	beqz	a5,800040b0 <_write_r+0x24>
800040ae:	c01c                	sw	a5,0(s0)
800040b0:	40b2                	lw	ra,12(sp)
800040b2:	4422                	lw	s0,8(sp)
800040b4:	0141                	addi	sp,sp,16
800040b6:	8082                	ret

800040b8 <__assert_func>:
__assert_func():
800040b8:	1141                	addi	sp,sp,-16
800040ba:	0fffc797          	auipc	a5,0xfffc
800040be:	11e7a783          	lw	a5,286(a5) # 900001d8 <_impure_ptr>
800040c2:	8832                	mv	a6,a2
800040c4:	c606                	sw	ra,12(sp)
800040c6:	88aa                	mv	a7,a0
800040c8:	872e                	mv	a4,a1
800040ca:	47c8                	lw	a0,12(a5)
800040cc:	8636                	mv	a2,a3
800040ce:	00002797          	auipc	a5,0x2
800040d2:	21a78793          	addi	a5,a5,538 # 800062e8 <p05.0+0x20>
800040d6:	00081763          	bnez	a6,800040e4 <__assert_func+0x2c>
800040da:	00002797          	auipc	a5,0x2
800040de:	dda78793          	addi	a5,a5,-550 # 80005eb4 <__clzsi2+0xd6>
800040e2:	883e                	mv	a6,a5
800040e4:	86c6                	mv	a3,a7
800040e6:	00002597          	auipc	a1,0x2
800040ea:	21258593          	addi	a1,a1,530 # 800062f8 <p05.0+0x30>
800040ee:	2035                	jal	8000411a <fiprintf>
800040f0:	2ab1                	jal	8000424c <abort>

800040f2 <_close_r>:
_close_r():
800040f2:	1141                	addi	sp,sp,-16
800040f4:	c422                	sw	s0,8(sp)
800040f6:	842a                	mv	s0,a0
800040f8:	852e                	mv	a0,a1
800040fa:	8601a223          	sw	zero,-1948(gp) # 90000234 <errno>
800040fe:	c606                	sw	ra,12(sp)
80004100:	808fc0ef          	jal	ra,80000108 <_close>
80004104:	57fd                	li	a5,-1
80004106:	00f51663          	bne	a0,a5,80004112 <_close_r+0x20>
8000410a:	8641a783          	lw	a5,-1948(gp) # 90000234 <errno>
8000410e:	c391                	beqz	a5,80004112 <_close_r+0x20>
80004110:	c01c                	sw	a5,0(s0)
80004112:	40b2                	lw	ra,12(sp)
80004114:	4422                	lw	s0,8(sp)
80004116:	0141                	addi	sp,sp,16
80004118:	8082                	ret

8000411a <fiprintf>:
fprintf():
8000411a:	7139                	addi	sp,sp,-64
8000411c:	d432                	sw	a2,40(sp)
8000411e:	d636                	sw	a3,44(sp)
80004120:	862e                	mv	a2,a1
80004122:	1034                	addi	a3,sp,40
80004124:	85aa                	mv	a1,a0
80004126:	0fffc517          	auipc	a0,0xfffc
8000412a:	0b252503          	lw	a0,178(a0) # 900001d8 <_impure_ptr>
8000412e:	ce06                	sw	ra,28(sp)
80004130:	d83a                	sw	a4,48(sp)
80004132:	da3e                	sw	a5,52(sp)
80004134:	dc42                	sw	a6,56(sp)
80004136:	de46                	sw	a7,60(sp)
80004138:	c636                	sw	a3,12(sp)
8000413a:	bd3ff0ef          	jal	ra,80003d0c <_vfiprintf_r>
8000413e:	40f2                	lw	ra,28(sp)
80004140:	6121                	addi	sp,sp,64
80004142:	8082                	ret

80004144 <_fstat_r>:
_fstat_r():
80004144:	1141                	addi	sp,sp,-16
80004146:	c422                	sw	s0,8(sp)
80004148:	842a                	mv	s0,a0
8000414a:	852e                	mv	a0,a1
8000414c:	85b2                	mv	a1,a2
8000414e:	8601a223          	sw	zero,-1948(gp) # 90000234 <errno>
80004152:	c606                	sw	ra,12(sp)
80004154:	fe5fb0ef          	jal	ra,80000138 <_fstat>
80004158:	57fd                	li	a5,-1
8000415a:	00f51663          	bne	a0,a5,80004166 <_fstat_r+0x22>
8000415e:	8641a783          	lw	a5,-1948(gp) # 90000234 <errno>
80004162:	c391                	beqz	a5,80004166 <_fstat_r+0x22>
80004164:	c01c                	sw	a5,0(s0)
80004166:	40b2                	lw	ra,12(sp)
80004168:	4422                	lw	s0,8(sp)
8000416a:	0141                	addi	sp,sp,16
8000416c:	8082                	ret

8000416e <_isatty_r>:
_isatty_r():
8000416e:	1141                	addi	sp,sp,-16
80004170:	c422                	sw	s0,8(sp)
80004172:	842a                	mv	s0,a0
80004174:	852e                	mv	a0,a1
80004176:	8601a223          	sw	zero,-1948(gp) # 90000234 <errno>
8000417a:	c606                	sw	ra,12(sp)
8000417c:	fe5fb0ef          	jal	ra,80000160 <_isatty>
80004180:	57fd                	li	a5,-1
80004182:	00f51663          	bne	a0,a5,8000418e <_isatty_r+0x20>
80004186:	8641a783          	lw	a5,-1948(gp) # 90000234 <errno>
8000418a:	c391                	beqz	a5,8000418e <_isatty_r+0x20>
8000418c:	c01c                	sw	a5,0(s0)
8000418e:	40b2                	lw	ra,12(sp)
80004190:	4422                	lw	s0,8(sp)
80004192:	0141                	addi	sp,sp,16
80004194:	8082                	ret

80004196 <_lseek_r>:
_lseek_r():
80004196:	1141                	addi	sp,sp,-16
80004198:	c422                	sw	s0,8(sp)
8000419a:	842a                	mv	s0,a0
8000419c:	852e                	mv	a0,a1
8000419e:	85b2                	mv	a1,a2
800041a0:	8636                	mv	a2,a3
800041a2:	8601a223          	sw	zero,-1948(gp) # 90000234 <errno>
800041a6:	c606                	sw	ra,12(sp)
800041a8:	fcdfb0ef          	jal	ra,80000174 <_lseek>
800041ac:	57fd                	li	a5,-1
800041ae:	00f51663          	bne	a0,a5,800041ba <_lseek_r+0x24>
800041b2:	8641a783          	lw	a5,-1948(gp) # 90000234 <errno>
800041b6:	c391                	beqz	a5,800041ba <_lseek_r+0x24>
800041b8:	c01c                	sw	a5,0(s0)
800041ba:	40b2                	lw	ra,12(sp)
800041bc:	4422                	lw	s0,8(sp)
800041be:	0141                	addi	sp,sp,16
800041c0:	8082                	ret

800041c2 <__ascii_mbtowc>:
__ascii_mbtowc():
800041c2:	e185                	bnez	a1,800041e2 <__ascii_mbtowc+0x20>
800041c4:	1141                	addi	sp,sp,-16
800041c6:	006c                	addi	a1,sp,12
800041c8:	4501                	li	a0,0
800041ca:	ca11                	beqz	a2,800041de <__ascii_mbtowc+0x1c>
800041cc:	5579                	li	a0,-2
800041ce:	ca81                	beqz	a3,800041de <__ascii_mbtowc+0x1c>
800041d0:	00064783          	lbu	a5,0(a2)
800041d4:	c19c                	sw	a5,0(a1)
800041d6:	00064503          	lbu	a0,0(a2)
800041da:	00a03533          	snez	a0,a0
800041de:	0141                	addi	sp,sp,16
800041e0:	8082                	ret
800041e2:	4501                	li	a0,0
800041e4:	ca19                	beqz	a2,800041fa <__ascii_mbtowc+0x38>
800041e6:	5579                	li	a0,-2
800041e8:	ca89                	beqz	a3,800041fa <__ascii_mbtowc+0x38>
800041ea:	00064783          	lbu	a5,0(a2)
800041ee:	c19c                	sw	a5,0(a1)
800041f0:	00064503          	lbu	a0,0(a2)
800041f4:	00a03533          	snez	a0,a0
800041f8:	8082                	ret
800041fa:	8082                	ret

800041fc <__malloc_lock>:
__malloc_lock():
800041fc:	8082                	ret

800041fe <__malloc_unlock>:
__malloc_unlock():
800041fe:	8082                	ret

80004200 <_read_r>:
_read_r():
80004200:	1141                	addi	sp,sp,-16
80004202:	c422                	sw	s0,8(sp)
80004204:	842a                	mv	s0,a0
80004206:	852e                	mv	a0,a1
80004208:	85b2                	mv	a1,a2
8000420a:	8636                	mv	a2,a3
8000420c:	8601a223          	sw	zero,-1948(gp) # 90000234 <errno>
80004210:	c606                	sw	ra,12(sp)
80004212:	f6bfb0ef          	jal	ra,8000017c <_read>
80004216:	57fd                	li	a5,-1
80004218:	00f51663          	bne	a0,a5,80004224 <_read_r+0x24>
8000421c:	8641a783          	lw	a5,-1948(gp) # 90000234 <errno>
80004220:	c391                	beqz	a5,80004224 <_read_r+0x24>
80004222:	c01c                	sw	a5,0(s0)
80004224:	40b2                	lw	ra,12(sp)
80004226:	4422                	lw	s0,8(sp)
80004228:	0141                	addi	sp,sp,16
8000422a:	8082                	ret

8000422c <__ascii_wctomb>:
__ascii_wctomb():
8000422c:	cd91                	beqz	a1,80004248 <__ascii_wctomb+0x1c>
8000422e:	0ff00793          	li	a5,255
80004232:	00c7f763          	bgeu	a5,a2,80004240 <__ascii_wctomb+0x14>
80004236:	08a00793          	li	a5,138
8000423a:	c11c                	sw	a5,0(a0)
8000423c:	557d                	li	a0,-1
8000423e:	8082                	ret
80004240:	00c58023          	sb	a2,0(a1)
80004244:	4505                	li	a0,1
80004246:	8082                	ret
80004248:	4501                	li	a0,0
8000424a:	8082                	ret

8000424c <abort>:
abort():
8000424c:	1141                	addi	sp,sp,-16
8000424e:	4519                	li	a0,6
80004250:	c606                	sw	ra,12(sp)
80004252:	20ad                	jal	800042bc <raise>
80004254:	4505                	li	a0,1
80004256:	ebffb0ef          	jal	ra,80000114 <_exit>

8000425a <_raise_r>:
_raise_r():
8000425a:	1101                	addi	sp,sp,-32
8000425c:	cc22                	sw	s0,24(sp)
8000425e:	ce06                	sw	ra,28(sp)
80004260:	47fd                	li	a5,31
80004262:	842a                	mv	s0,a0
80004264:	00b7f963          	bgeu	a5,a1,80004276 <_raise_r+0x1c>
80004268:	47d9                	li	a5,22
8000426a:	c11c                	sw	a5,0(a0)
8000426c:	557d                	li	a0,-1
8000426e:	40f2                	lw	ra,28(sp)
80004270:	4462                	lw	s0,24(sp)
80004272:	6105                	addi	sp,sp,32
80004274:	8082                	ret
80004276:	417c                	lw	a5,68(a0)
80004278:	862e                	mv	a2,a1
8000427a:	c791                	beqz	a5,80004286 <_raise_r+0x2c>
8000427c:	00259713          	slli	a4,a1,0x2
80004280:	97ba                	add	a5,a5,a4
80004282:	4398                	lw	a4,0(a5)
80004284:	eb19                	bnez	a4,8000429a <_raise_r+0x40>
80004286:	8522                	mv	a0,s0
80004288:	c632                	sw	a2,12(sp)
8000428a:	20a5                	jal	800042f2 <_getpid_r>
8000428c:	85aa                	mv	a1,a0
8000428e:	8522                	mv	a0,s0
80004290:	4462                	lw	s0,24(sp)
80004292:	4632                	lw	a2,12(sp)
80004294:	40f2                	lw	ra,28(sp)
80004296:	6105                	addi	sp,sp,32
80004298:	a805                	j	800042c8 <_kill_r>
8000429a:	4685                	li	a3,1
8000429c:	4501                	li	a0,0
8000429e:	fcd708e3          	beq	a4,a3,8000426e <_raise_r+0x14>
800042a2:	56fd                	li	a3,-1
800042a4:	00d71663          	bne	a4,a3,800042b0 <_raise_r+0x56>
800042a8:	47d9                	li	a5,22
800042aa:	c01c                	sw	a5,0(s0)
800042ac:	4505                	li	a0,1
800042ae:	b7c1                	j	8000426e <_raise_r+0x14>
800042b0:	852e                	mv	a0,a1
800042b2:	0007a023          	sw	zero,0(a5)
800042b6:	9702                	jalr	a4
800042b8:	4501                	li	a0,0
800042ba:	bf55                	j	8000426e <_raise_r+0x14>

800042bc <raise>:
raise():
800042bc:	85aa                	mv	a1,a0
800042be:	0fffc517          	auipc	a0,0xfffc
800042c2:	f1a52503          	lw	a0,-230(a0) # 900001d8 <_impure_ptr>
800042c6:	bf51                	j	8000425a <_raise_r>

800042c8 <_kill_r>:
_kill_r():
800042c8:	1141                	addi	sp,sp,-16
800042ca:	c422                	sw	s0,8(sp)
800042cc:	842a                	mv	s0,a0
800042ce:	852e                	mv	a0,a1
800042d0:	85b2                	mv	a1,a2
800042d2:	8601a223          	sw	zero,-1948(gp) # 90000234 <errno>
800042d6:	c606                	sw	ra,12(sp)
800042d8:	e91fb0ef          	jal	ra,80000168 <_kill>
800042dc:	57fd                	li	a5,-1
800042de:	00f51663          	bne	a0,a5,800042ea <_kill_r+0x22>
800042e2:	8641a783          	lw	a5,-1948(gp) # 90000234 <errno>
800042e6:	c391                	beqz	a5,800042ea <_kill_r+0x22>
800042e8:	c01c                	sw	a5,0(s0)
800042ea:	40b2                	lw	ra,12(sp)
800042ec:	4422                	lw	s0,8(sp)
800042ee:	0141                	addi	sp,sp,16
800042f0:	8082                	ret

800042f2 <_getpid_r>:
_getpid_r():
800042f2:	e67fb06f          	j	80000158 <_getpid>

800042f6 <__adddf3>:
__adddf3():
/home/xl_ci/toolchain/riscv-gnu-toolchain/riscv-gcc/libgcc/soft-fp/adddf3.c:44
800042f6:	00100837          	lui	a6,0x100
800042fa:	187d                	addi	a6,a6,-1
/home/xl_ci/toolchain/riscv-gnu-toolchain/riscv-gcc/libgcc/soft-fp/adddf3.c:36
800042fc:	1101                	addi	sp,sp,-32
/home/xl_ci/toolchain/riscv-gnu-toolchain/riscv-gcc/libgcc/soft-fp/adddf3.c:44
800042fe:	00b877b3          	and	a5,a6,a1
80004302:	0145d713          	srli	a4,a1,0x14
/home/xl_ci/toolchain/riscv-gnu-toolchain/riscv-gcc/libgcc/soft-fp/adddf3.c:45
80004306:	00d87833          	and	a6,a6,a3
8000430a:	0146d313          	srli	t1,a3,0x14
/home/xl_ci/toolchain/riscv-gnu-toolchain/riscv-gcc/libgcc/soft-fp/adddf3.c:36
8000430e:	cc22                	sw	s0,24(sp)
/home/xl_ci/toolchain/riscv-gnu-toolchain/riscv-gcc/libgcc/soft-fp/adddf3.c:44
80004310:	078e                	slli	a5,a5,0x3
80004312:	7ff77413          	andi	s0,a4,2047
80004316:	01d55713          	srli	a4,a0,0x1d
/home/xl_ci/toolchain/riscv-gnu-toolchain/riscv-gcc/libgcc/soft-fp/adddf3.c:45
8000431a:	080e                	slli	a6,a6,0x3
/home/xl_ci/toolchain/riscv-gnu-toolchain/riscv-gcc/libgcc/soft-fp/adddf3.c:36
8000431c:	ca26                	sw	s1,20(sp)
/home/xl_ci/toolchain/riscv-gnu-toolchain/riscv-gcc/libgcc/soft-fp/adddf3.c:44
8000431e:	8fd9                	or	a5,a5,a4
80004320:	01f5d493          	srli	s1,a1,0x1f
/home/xl_ci/toolchain/riscv-gnu-toolchain/riscv-gcc/libgcc/soft-fp/adddf3.c:45
80004324:	01d65713          	srli	a4,a2,0x1d
80004328:	7ff37313          	andi	t1,t1,2047
/home/xl_ci/toolchain/riscv-gnu-toolchain/riscv-gcc/libgcc/soft-fp/adddf3.c:36
8000432c:	ce06                	sw	ra,28(sp)
8000432e:	c84a                	sw	s2,16(sp)
80004330:	c64e                	sw	s3,12(sp)
/home/xl_ci/toolchain/riscv-gnu-toolchain/riscv-gcc/libgcc/soft-fp/adddf3.c:45
80004332:	82fd                	srli	a3,a3,0x1f
80004334:	01076733          	or	a4,a4,a6
/home/xl_ci/toolchain/riscv-gnu-toolchain/riscv-gcc/libgcc/soft-fp/adddf3.c:44
80004338:	00351593          	slli	a1,a0,0x3
/home/xl_ci/toolchain/riscv-gnu-toolchain/riscv-gcc/libgcc/soft-fp/adddf3.c:45
8000433c:	060e                	slli	a2,a2,0x3
/home/xl_ci/toolchain/riscv-gnu-toolchain/riscv-gcc/libgcc/soft-fp/adddf3.c:46
8000433e:	40640833          	sub	a6,s0,t1
80004342:	22d49863          	bne	s1,a3,80004572 <__adddf3+0x27c>
/home/xl_ci/toolchain/riscv-gnu-toolchain/riscv-gcc/libgcc/soft-fp/adddf3.c:46 (discriminator 7)
80004346:	0f005363          	blez	a6,8000442c <__adddf3+0x136>
/home/xl_ci/toolchain/riscv-gnu-toolchain/riscv-gcc/libgcc/soft-fp/adddf3.c:46 (discriminator 9)
8000434a:	02031863          	bnez	t1,8000437a <__adddf3+0x84>
/home/xl_ci/toolchain/riscv-gnu-toolchain/riscv-gcc/libgcc/soft-fp/adddf3.c:46 (discriminator 11)
8000434e:	00c766b3          	or	a3,a4,a2
80004352:	58068363          	beqz	a3,800048d8 <__adddf3+0x5e2>
/home/xl_ci/toolchain/riscv-gnu-toolchain/riscv-gcc/libgcc/soft-fp/adddf3.c:46 (discriminator 14)
80004356:	fff80513          	addi	a0,a6,-1 # fffff <__stack_size+0xff7ff>
8000435a:	e909                	bnez	a0,8000436c <__adddf3+0x76>
/home/xl_ci/toolchain/riscv-gnu-toolchain/riscv-gcc/libgcc/soft-fp/adddf3.c:46 (discriminator 23)
8000435c:	962e                	add	a2,a2,a1
8000435e:	00b63533          	sltu	a0,a2,a1
80004362:	97ba                	add	a5,a5,a4
80004364:	97aa                	add	a5,a5,a0
80004366:	85b2                	mv	a1,a2
/home/xl_ci/toolchain/riscv-gnu-toolchain/riscv-gcc/libgcc/soft-fp/adddf3.c:45 (discriminator 80)
80004368:	4405                	li	s0,1
/home/xl_ci/toolchain/riscv-gnu-toolchain/riscv-gcc/libgcc/soft-fp/adddf3.c:46 (discriminator 80)
8000436a:	a8b9                	j	800043c8 <__adddf3+0xd2>
/home/xl_ci/toolchain/riscv-gnu-toolchain/riscv-gcc/libgcc/soft-fp/adddf3.c:46 (discriminator 24)
8000436c:	7ff00693          	li	a3,2047
80004370:	00d81d63          	bne	a6,a3,8000438a <__adddf3+0x94>
/home/xl_ci/toolchain/riscv-gnu-toolchain/riscv-gcc/libgcc/soft-fp/adddf3.c:46
80004374:	7ff00413          	li	s0,2047
80004378:	a24d                	j	8000451a <__adddf3+0x224>
/home/xl_ci/toolchain/riscv-gnu-toolchain/riscv-gcc/libgcc/soft-fp/adddf3.c:46 (discriminator 12)
8000437a:	7ff00693          	li	a3,2047
8000437e:	18d40e63          	beq	s0,a3,8000451a <__adddf3+0x224>
/home/xl_ci/toolchain/riscv-gnu-toolchain/riscv-gcc/libgcc/soft-fp/adddf3.c:46 (discriminator 38)
80004382:	008006b7          	lui	a3,0x800
80004386:	8f55                	or	a4,a4,a3
80004388:	8542                	mv	a0,a6
/home/xl_ci/toolchain/riscv-gnu-toolchain/riscv-gcc/libgcc/soft-fp/adddf3.c:46 (discriminator 47)
8000438a:	03800693          	li	a3,56
8000438e:	08a6cb63          	blt	a3,a0,80004424 <__adddf3+0x12e>
/home/xl_ci/toolchain/riscv-gnu-toolchain/riscv-gcc/libgcc/soft-fp/adddf3.c:46 (discriminator 48)
80004392:	46fd                	li	a3,31
80004394:	06a6c263          	blt	a3,a0,800043f8 <__adddf3+0x102>
/home/xl_ci/toolchain/riscv-gnu-toolchain/riscv-gcc/libgcc/soft-fp/adddf3.c:46 (discriminator 50)
80004398:	02000813          	li	a6,32
8000439c:	40a80833          	sub	a6,a6,a0
800043a0:	010716b3          	sll	a3,a4,a6
800043a4:	00a658b3          	srl	a7,a2,a0
800043a8:	01061633          	sll	a2,a2,a6
800043ac:	0116e6b3          	or	a3,a3,a7
800043b0:	00c03633          	snez	a2,a2
800043b4:	8e55                	or	a2,a2,a3
800043b6:	00a75733          	srl	a4,a4,a0
/home/xl_ci/toolchain/riscv-gnu-toolchain/riscv-gcc/libgcc/soft-fp/adddf3.c:46 (discriminator 64)
800043ba:	962e                	add	a2,a2,a1
800043bc:	00b63533          	sltu	a0,a2,a1
800043c0:	973e                	add	a4,a4,a5
800043c2:	00a707b3          	add	a5,a4,a0
800043c6:	85b2                	mv	a1,a2
/home/xl_ci/toolchain/riscv-gnu-toolchain/riscv-gcc/libgcc/soft-fp/adddf3.c:46 (discriminator 122)
800043c8:	00800737          	lui	a4,0x800
800043cc:	8f7d                	and	a4,a4,a5
800043ce:	14070663          	beqz	a4,8000451a <__adddf3+0x224>
/home/xl_ci/toolchain/riscv-gnu-toolchain/riscv-gcc/libgcc/soft-fp/adddf3.c:46 (discriminator 182)
800043d2:	0405                	addi	s0,s0,1
800043d4:	7ff00713          	li	a4,2047
800043d8:	48e40d63          	beq	s0,a4,80004872 <__adddf3+0x57c>
/home/xl_ci/toolchain/riscv-gnu-toolchain/riscv-gcc/libgcc/soft-fp/adddf3.c:46
800043dc:	ff800737          	lui	a4,0xff800
800043e0:	177d                	addi	a4,a4,-1
800043e2:	8ff9                	and	a5,a5,a4
800043e4:	0015f513          	andi	a0,a1,1
800043e8:	0015d713          	srli	a4,a1,0x1
800043ec:	8d59                	or	a0,a0,a4
800043ee:	01f79593          	slli	a1,a5,0x1f
800043f2:	8dc9                	or	a1,a1,a0
800043f4:	8385                	srli	a5,a5,0x1
800043f6:	a215                	j	8000451a <__adddf3+0x224>
/home/xl_ci/toolchain/riscv-gnu-toolchain/riscv-gcc/libgcc/soft-fp/adddf3.c:46 (discriminator 51)
800043f8:	fe050693          	addi	a3,a0,-32
800043fc:	02000893          	li	a7,32
80004400:	00d756b3          	srl	a3,a4,a3
80004404:	4801                	li	a6,0
80004406:	01150863          	beq	a0,a7,80004416 <__adddf3+0x120>
/home/xl_ci/toolchain/riscv-gnu-toolchain/riscv-gcc/libgcc/soft-fp/adddf3.c:46 (discriminator 58)
8000440a:	04000813          	li	a6,64
8000440e:	40a80533          	sub	a0,a6,a0
80004412:	00a71833          	sll	a6,a4,a0
/home/xl_ci/toolchain/riscv-gnu-toolchain/riscv-gcc/libgcc/soft-fp/adddf3.c:46 (discriminator 61)
80004416:	00c86633          	or	a2,a6,a2
8000441a:	00c03633          	snez	a2,a2
8000441e:	8e55                	or	a2,a2,a3
/home/xl_ci/toolchain/riscv-gnu-toolchain/riscv-gcc/libgcc/soft-fp/adddf3.c:46 (discriminator 49)
80004420:	4701                	li	a4,0
80004422:	bf61                	j	800043ba <__adddf3+0xc4>
80004424:	8e59                	or	a2,a2,a4
80004426:	00c03633          	snez	a2,a2
8000442a:	bfdd                	j	80004420 <__adddf3+0x12a>
/home/xl_ci/toolchain/riscv-gnu-toolchain/riscv-gcc/libgcc/soft-fp/adddf3.c:46 (discriminator 10)
8000442c:	0a080b63          	beqz	a6,800044e2 <__adddf3+0x1ec>
/home/xl_ci/toolchain/riscv-gnu-toolchain/riscv-gcc/libgcc/soft-fp/adddf3.c:46 (discriminator 66)
80004430:	40830533          	sub	a0,t1,s0
80004434:	e40d                	bnez	s0,8000445e <__adddf3+0x168>
/home/xl_ci/toolchain/riscv-gnu-toolchain/riscv-gcc/libgcc/soft-fp/adddf3.c:46 (discriminator 68)
80004436:	00b7e6b3          	or	a3,a5,a1
8000443a:	42068363          	beqz	a3,80004860 <__adddf3+0x56a>
/home/xl_ci/toolchain/riscv-gnu-toolchain/riscv-gcc/libgcc/soft-fp/adddf3.c:46 (discriminator 71)
8000443e:	fff50693          	addi	a3,a0,-1
80004442:	e699                	bnez	a3,80004450 <__adddf3+0x15a>
/home/xl_ci/toolchain/riscv-gnu-toolchain/riscv-gcc/libgcc/soft-fp/adddf3.c:46 (discriminator 80)
80004444:	95b2                	add	a1,a1,a2
80004446:	97ba                	add	a5,a5,a4
80004448:	00c5b633          	sltu	a2,a1,a2
8000444c:	97b2                	add	a5,a5,a2
8000444e:	bf29                	j	80004368 <__adddf3+0x72>
/home/xl_ci/toolchain/riscv-gnu-toolchain/riscv-gcc/libgcc/soft-fp/adddf3.c:46 (discriminator 81)
80004450:	7ff00813          	li	a6,2047
80004454:	01051d63          	bne	a0,a6,8000446e <__adddf3+0x178>
/home/xl_ci/toolchain/riscv-gnu-toolchain/riscv-gcc/libgcc/soft-fp/adddf3.c:45
80004458:	87ba                	mv	a5,a4
8000445a:	85b2                	mv	a1,a2
8000445c:	bf21                	j	80004374 <__adddf3+0x7e>
/home/xl_ci/toolchain/riscv-gnu-toolchain/riscv-gcc/libgcc/soft-fp/adddf3.c:46 (discriminator 69)
8000445e:	7ff00693          	li	a3,2047
80004462:	fed30be3          	beq	t1,a3,80004458 <__adddf3+0x162>
/home/xl_ci/toolchain/riscv-gnu-toolchain/riscv-gcc/libgcc/soft-fp/adddf3.c:46 (discriminator 95)
80004466:	008006b7          	lui	a3,0x800
8000446a:	8fd5                	or	a5,a5,a3
8000446c:	86aa                	mv	a3,a0
/home/xl_ci/toolchain/riscv-gnu-toolchain/riscv-gcc/libgcc/soft-fp/adddf3.c:46 (discriminator 104)
8000446e:	03800513          	li	a0,56
80004472:	06d54363          	blt	a0,a3,800044d8 <__adddf3+0x1e2>
/home/xl_ci/toolchain/riscv-gnu-toolchain/riscv-gcc/libgcc/soft-fp/adddf3.c:46 (discriminator 105)
80004476:	457d                	li	a0,31
80004478:	02d54b63          	blt	a0,a3,800044ae <__adddf3+0x1b8>
/home/xl_ci/toolchain/riscv-gnu-toolchain/riscv-gcc/libgcc/soft-fp/adddf3.c:46 (discriminator 107)
8000447c:	02000813          	li	a6,32
80004480:	40d80833          	sub	a6,a6,a3
80004484:	01079533          	sll	a0,a5,a6
80004488:	00d5d8b3          	srl	a7,a1,a3
8000448c:	010595b3          	sll	a1,a1,a6
80004490:	01156533          	or	a0,a0,a7
80004494:	00b035b3          	snez	a1,a1
80004498:	8d4d                	or	a0,a0,a1
8000449a:	00d7d7b3          	srl	a5,a5,a3
/home/xl_ci/toolchain/riscv-gnu-toolchain/riscv-gcc/libgcc/soft-fp/adddf3.c:46 (discriminator 121)
8000449e:	00c505b3          	add	a1,a0,a2
800044a2:	97ba                	add	a5,a5,a4
800044a4:	00c5b633          	sltu	a2,a1,a2
800044a8:	97b2                	add	a5,a5,a2
/home/xl_ci/toolchain/riscv-gnu-toolchain/riscv-gcc/libgcc/soft-fp/adddf3.c:45 (discriminator 121)
800044aa:	841a                	mv	s0,t1
800044ac:	bf31                	j	800043c8 <__adddf3+0xd2>
/home/xl_ci/toolchain/riscv-gnu-toolchain/riscv-gcc/libgcc/soft-fp/adddf3.c:46 (discriminator 108)
800044ae:	fe068513          	addi	a0,a3,-32 # 7fffe0 <__stack_size+0x7ff7e0>
800044b2:	02000893          	li	a7,32
800044b6:	00a7d833          	srl	a6,a5,a0
800044ba:	4501                	li	a0,0
800044bc:	01168763          	beq	a3,a7,800044ca <__adddf3+0x1d4>
/home/xl_ci/toolchain/riscv-gnu-toolchain/riscv-gcc/libgcc/soft-fp/adddf3.c:46 (discriminator 115)
800044c0:	04000513          	li	a0,64
800044c4:	8d15                	sub	a0,a0,a3
800044c6:	00a79533          	sll	a0,a5,a0
/home/xl_ci/toolchain/riscv-gnu-toolchain/riscv-gcc/libgcc/soft-fp/adddf3.c:46 (discriminator 118)
800044ca:	8d4d                	or	a0,a0,a1
800044cc:	00a03533          	snez	a0,a0
800044d0:	00a86533          	or	a0,a6,a0
/home/xl_ci/toolchain/riscv-gnu-toolchain/riscv-gcc/libgcc/soft-fp/adddf3.c:46 (discriminator 106)
800044d4:	4781                	li	a5,0
800044d6:	b7e1                	j	8000449e <__adddf3+0x1a8>
800044d8:	00b7e533          	or	a0,a5,a1
800044dc:	00a03533          	snez	a0,a0
800044e0:	bfd5                	j	800044d4 <__adddf3+0x1de>
/home/xl_ci/toolchain/riscv-gnu-toolchain/riscv-gcc/libgcc/soft-fp/adddf3.c:46 (discriminator 67)
800044e2:	00140693          	addi	a3,s0,1
800044e6:	7fe6f513          	andi	a0,a3,2046
800044ea:	e13d                	bnez	a0,80004550 <__adddf3+0x25a>
/home/xl_ci/toolchain/riscv-gnu-toolchain/riscv-gcc/libgcc/soft-fp/adddf3.c:46 (discriminator 123)
800044ec:	00b7e6b3          	or	a3,a5,a1
800044f0:	e429                	bnez	s0,8000453a <__adddf3+0x244>
/home/xl_ci/toolchain/riscv-gnu-toolchain/riscv-gcc/libgcc/soft-fp/adddf3.c:46 (discriminator 125)
800044f2:	36068b63          	beqz	a3,80004868 <__adddf3+0x572>
/home/xl_ci/toolchain/riscv-gnu-toolchain/riscv-gcc/libgcc/soft-fp/adddf3.c:46 (discriminator 128)
800044f6:	00c766b3          	or	a3,a4,a2
800044fa:	c285                	beqz	a3,8000451a <__adddf3+0x224>
/home/xl_ci/toolchain/riscv-gnu-toolchain/riscv-gcc/libgcc/soft-fp/adddf3.c:46 (discriminator 134)
800044fc:	962e                	add	a2,a2,a1
800044fe:	97ba                	add	a5,a5,a4
80004500:	00b63533          	sltu	a0,a2,a1
80004504:	97aa                	add	a5,a5,a0
80004506:	00800737          	lui	a4,0x800
8000450a:	8f7d                	and	a4,a4,a5
8000450c:	85b2                	mv	a1,a2
8000450e:	c711                	beqz	a4,8000451a <__adddf3+0x224>
/home/xl_ci/toolchain/riscv-gnu-toolchain/riscv-gcc/libgcc/soft-fp/adddf3.c:46 (discriminator 136)
80004510:	ff800737          	lui	a4,0xff800
80004514:	177d                	addi	a4,a4,-1
80004516:	8ff9                	and	a5,a5,a4
80004518:	4405                	li	s0,1
/home/xl_ci/toolchain/riscv-gnu-toolchain/riscv-gcc/libgcc/soft-fp/adddf3.c:47 (discriminator 421)
8000451a:	0075f713          	andi	a4,a1,7
8000451e:	34070c63          	beqz	a4,80004876 <__adddf3+0x580>
/home/xl_ci/toolchain/riscv-gnu-toolchain/riscv-gcc/libgcc/soft-fp/adddf3.c:47 (discriminator 37)
80004522:	00f5f713          	andi	a4,a1,15
80004526:	4691                	li	a3,4
80004528:	34d70763          	beq	a4,a3,80004876 <__adddf3+0x580>
/home/xl_ci/toolchain/riscv-gnu-toolchain/riscv-gcc/libgcc/soft-fp/adddf3.c:47 (discriminator 44)
8000452c:	00458713          	addi	a4,a1,4
80004530:	00b73533          	sltu	a0,a4,a1
80004534:	97aa                	add	a5,a5,a0
80004536:	85ba                	mv	a1,a4
80004538:	ae3d                	j	80004876 <__adddf3+0x580>
/home/xl_ci/toolchain/riscv-gnu-toolchain/riscv-gcc/libgcc/soft-fp/adddf3.c:46 (discriminator 153)
8000453a:	de99                	beqz	a3,80004458 <__adddf3+0x162>
/home/xl_ci/toolchain/riscv-gnu-toolchain/riscv-gcc/libgcc/soft-fp/adddf3.c:46 (discriminator 155)
8000453c:	8e59                	or	a2,a2,a4
8000453e:	e2060be3          	beqz	a2,80004374 <__adddf3+0x7e>
/home/xl_ci/toolchain/riscv-gnu-toolchain/riscv-gcc/libgcc/soft-fp/adddf3.c:46
80004542:	4481                	li	s1,0
80004544:	004007b7          	lui	a5,0x400
80004548:	4581                	li	a1,0
8000454a:	7ff00413          	li	s0,2047
8000454e:	a625                	j	80004876 <__adddf3+0x580>
/home/xl_ci/toolchain/riscv-gnu-toolchain/riscv-gcc/libgcc/soft-fp/adddf3.c:46 (discriminator 124)
80004550:	7ff00513          	li	a0,2047
80004554:	30a68d63          	beq	a3,a0,8000486e <__adddf3+0x578>
/home/xl_ci/toolchain/riscv-gnu-toolchain/riscv-gcc/libgcc/soft-fp/adddf3.c:46
80004558:	962e                	add	a2,a2,a1
8000455a:	00b63533          	sltu	a0,a2,a1
8000455e:	97ba                	add	a5,a5,a4
80004560:	97aa                	add	a5,a5,a0
80004562:	01f79513          	slli	a0,a5,0x1f
80004566:	8205                	srli	a2,a2,0x1
80004568:	00c565b3          	or	a1,a0,a2
8000456c:	8385                	srli	a5,a5,0x1
8000456e:	8436                	mv	s0,a3
80004570:	b76d                	j	8000451a <__adddf3+0x224>
/home/xl_ci/toolchain/riscv-gnu-toolchain/riscv-gcc/libgcc/soft-fp/adddf3.c:46 (discriminator 8)
80004572:	0d005663          	blez	a6,8000463e <__adddf3+0x348>
/home/xl_ci/toolchain/riscv-gnu-toolchain/riscv-gcc/libgcc/soft-fp/adddf3.c:46 (discriminator 200)
80004576:	08031163          	bnez	t1,800045f8 <__adddf3+0x302>
/home/xl_ci/toolchain/riscv-gnu-toolchain/riscv-gcc/libgcc/soft-fp/adddf3.c:46 (discriminator 202)
8000457a:	00c766b3          	or	a3,a4,a2
8000457e:	34068d63          	beqz	a3,800048d8 <__adddf3+0x5e2>
/home/xl_ci/toolchain/riscv-gnu-toolchain/riscv-gcc/libgcc/soft-fp/adddf3.c:46 (discriminator 205)
80004582:	fff80513          	addi	a0,a6,-1
80004586:	e911                	bnez	a0,8000459a <__adddf3+0x2a4>
/home/xl_ci/toolchain/riscv-gnu-toolchain/riscv-gcc/libgcc/soft-fp/adddf3.c:46 (discriminator 214)
80004588:	40c58633          	sub	a2,a1,a2
8000458c:	00c5b533          	sltu	a0,a1,a2
80004590:	8f99                	sub	a5,a5,a4
80004592:	8f89                	sub	a5,a5,a0
80004594:	85b2                	mv	a1,a2
/home/xl_ci/toolchain/riscv-gnu-toolchain/riscv-gcc/libgcc/soft-fp/adddf3.c:45 (discriminator 271)
80004596:	4405                	li	s0,1
/home/xl_ci/toolchain/riscv-gnu-toolchain/riscv-gcc/libgcc/soft-fp/adddf3.c:46 (discriminator 271)
80004598:	a0b1                	j	800045e4 <__adddf3+0x2ee>
/home/xl_ci/toolchain/riscv-gnu-toolchain/riscv-gcc/libgcc/soft-fp/adddf3.c:46 (discriminator 215)
8000459a:	7ff00693          	li	a3,2047
8000459e:	dcd80be3          	beq	a6,a3,80004374 <__adddf3+0x7e>
/home/xl_ci/toolchain/riscv-gnu-toolchain/riscv-gcc/libgcc/soft-fp/adddf3.c:46 (discriminator 238)
800045a2:	03800693          	li	a3,56
800045a6:	08a6c863          	blt	a3,a0,80004636 <__adddf3+0x340>
/home/xl_ci/toolchain/riscv-gnu-toolchain/riscv-gcc/libgcc/soft-fp/adddf3.c:46 (discriminator 239)
800045aa:	46fd                	li	a3,31
800045ac:	04a6cf63          	blt	a3,a0,8000460a <__adddf3+0x314>
/home/xl_ci/toolchain/riscv-gnu-toolchain/riscv-gcc/libgcc/soft-fp/adddf3.c:46 (discriminator 241)
800045b0:	02000813          	li	a6,32
800045b4:	40a80833          	sub	a6,a6,a0
800045b8:	010716b3          	sll	a3,a4,a6
800045bc:	00a658b3          	srl	a7,a2,a0
800045c0:	01061633          	sll	a2,a2,a6
800045c4:	0116e6b3          	or	a3,a3,a7
800045c8:	00c03633          	snez	a2,a2
800045cc:	8e55                	or	a2,a2,a3
800045ce:	00a75733          	srl	a4,a4,a0
/home/xl_ci/toolchain/riscv-gnu-toolchain/riscv-gcc/libgcc/soft-fp/adddf3.c:46 (discriminator 255)
800045d2:	40c58633          	sub	a2,a1,a2
800045d6:	00c5b533          	sltu	a0,a1,a2
800045da:	40e78733          	sub	a4,a5,a4
800045de:	40a707b3          	sub	a5,a4,a0
800045e2:	85b2                	mv	a1,a2
/home/xl_ci/toolchain/riscv-gnu-toolchain/riscv-gcc/libgcc/soft-fp/adddf3.c:46 (discriminator 313)
800045e4:	00800937          	lui	s2,0x800
800045e8:	0127f733          	and	a4,a5,s2
800045ec:	d71d                	beqz	a4,8000451a <__adddf3+0x224>
/home/xl_ci/toolchain/riscv-gnu-toolchain/riscv-gcc/libgcc/soft-fp/adddf3.c:46 (discriminator 373)
800045ee:	197d                	addi	s2,s2,-1
800045f0:	0127f933          	and	s2,a5,s2
800045f4:	89ae                	mv	s3,a1
800045f6:	aa5d                	j	800047ac <__adddf3+0x4b6>
/home/xl_ci/toolchain/riscv-gnu-toolchain/riscv-gcc/libgcc/soft-fp/adddf3.c:46 (discriminator 203)
800045f8:	7ff00693          	li	a3,2047
800045fc:	f0d40fe3          	beq	s0,a3,8000451a <__adddf3+0x224>
/home/xl_ci/toolchain/riscv-gnu-toolchain/riscv-gcc/libgcc/soft-fp/adddf3.c:46 (discriminator 229)
80004600:	008006b7          	lui	a3,0x800
80004604:	8f55                	or	a4,a4,a3
80004606:	8542                	mv	a0,a6
80004608:	bf69                	j	800045a2 <__adddf3+0x2ac>
/home/xl_ci/toolchain/riscv-gnu-toolchain/riscv-gcc/libgcc/soft-fp/adddf3.c:46 (discriminator 242)
8000460a:	fe050693          	addi	a3,a0,-32
8000460e:	02000893          	li	a7,32
80004612:	00d756b3          	srl	a3,a4,a3
80004616:	4801                	li	a6,0
80004618:	01150863          	beq	a0,a7,80004628 <__adddf3+0x332>
/home/xl_ci/toolchain/riscv-gnu-toolchain/riscv-gcc/libgcc/soft-fp/adddf3.c:46 (discriminator 249)
8000461c:	04000813          	li	a6,64
80004620:	40a80533          	sub	a0,a6,a0
80004624:	00a71833          	sll	a6,a4,a0
/home/xl_ci/toolchain/riscv-gnu-toolchain/riscv-gcc/libgcc/soft-fp/adddf3.c:46 (discriminator 252)
80004628:	00c86633          	or	a2,a6,a2
8000462c:	00c03633          	snez	a2,a2
80004630:	8e55                	or	a2,a2,a3
/home/xl_ci/toolchain/riscv-gnu-toolchain/riscv-gcc/libgcc/soft-fp/adddf3.c:46 (discriminator 240)
80004632:	4701                	li	a4,0
80004634:	bf79                	j	800045d2 <__adddf3+0x2dc>
80004636:	8e59                	or	a2,a2,a4
80004638:	00c03633          	snez	a2,a2
8000463c:	bfdd                	j	80004632 <__adddf3+0x33c>
/home/xl_ci/toolchain/riscv-gnu-toolchain/riscv-gcc/libgcc/soft-fp/adddf3.c:46 (discriminator 201)
8000463e:	0c080563          	beqz	a6,80004708 <__adddf3+0x412>
/home/xl_ci/toolchain/riscv-gnu-toolchain/riscv-gcc/libgcc/soft-fp/adddf3.c:46 (discriminator 257)
80004642:	40830533          	sub	a0,t1,s0
80004646:	e81d                	bnez	s0,8000467c <__adddf3+0x386>
/home/xl_ci/toolchain/riscv-gnu-toolchain/riscv-gcc/libgcc/soft-fp/adddf3.c:46 (discriminator 259)
80004648:	00b7e833          	or	a6,a5,a1
8000464c:	28080863          	beqz	a6,800048dc <__adddf3+0x5e6>
/home/xl_ci/toolchain/riscv-gnu-toolchain/riscv-gcc/libgcc/soft-fp/adddf3.c:46 (discriminator 262)
80004650:	fff50813          	addi	a6,a0,-1
80004654:	00081b63          	bnez	a6,8000466a <__adddf3+0x374>
/home/xl_ci/toolchain/riscv-gnu-toolchain/riscv-gcc/libgcc/soft-fp/adddf3.c:46 (discriminator 271)
80004658:	40b605b3          	sub	a1,a2,a1
8000465c:	40f707b3          	sub	a5,a4,a5
80004660:	00b63633          	sltu	a2,a2,a1
80004664:	8f91                	sub	a5,a5,a2
80004666:	84b6                	mv	s1,a3
80004668:	b73d                	j	80004596 <__adddf3+0x2a0>
/home/xl_ci/toolchain/riscv-gnu-toolchain/riscv-gcc/libgcc/soft-fp/adddf3.c:46 (discriminator 272)
8000466a:	7ff00893          	li	a7,2047
8000466e:	03151063          	bne	a0,a7,8000468e <__adddf3+0x398>
/home/xl_ci/toolchain/riscv-gnu-toolchain/riscv-gcc/libgcc/soft-fp/adddf3.c:45
80004672:	87ba                	mv	a5,a4
80004674:	85b2                	mv	a1,a2
/home/xl_ci/toolchain/riscv-gnu-toolchain/riscv-gcc/libgcc/soft-fp/adddf3.c:46
80004676:	7ff00413          	li	s0,2047
8000467a:	a07d                	j	80004728 <__adddf3+0x432>
/home/xl_ci/toolchain/riscv-gnu-toolchain/riscv-gcc/libgcc/soft-fp/adddf3.c:46 (discriminator 260)
8000467c:	7ff00813          	li	a6,2047
80004680:	ff0309e3          	beq	t1,a6,80004672 <__adddf3+0x37c>
/home/xl_ci/toolchain/riscv-gnu-toolchain/riscv-gcc/libgcc/soft-fp/adddf3.c:46 (discriminator 286)
80004684:	00800837          	lui	a6,0x800
80004688:	0107e7b3          	or	a5,a5,a6
8000468c:	882a                	mv	a6,a0
/home/xl_ci/toolchain/riscv-gnu-toolchain/riscv-gcc/libgcc/soft-fp/adddf3.c:46 (discriminator 295)
8000468e:	03800513          	li	a0,56
80004692:	07054663          	blt	a0,a6,800046fe <__adddf3+0x408>
/home/xl_ci/toolchain/riscv-gnu-toolchain/riscv-gcc/libgcc/soft-fp/adddf3.c:46 (discriminator 296)
80004696:	457d                	li	a0,31
80004698:	03054d63          	blt	a0,a6,800046d2 <__adddf3+0x3dc>
/home/xl_ci/toolchain/riscv-gnu-toolchain/riscv-gcc/libgcc/soft-fp/adddf3.c:46 (discriminator 298)
8000469c:	02000893          	li	a7,32
800046a0:	410888b3          	sub	a7,a7,a6
800046a4:	01179533          	sll	a0,a5,a7
800046a8:	0105de33          	srl	t3,a1,a6
800046ac:	011595b3          	sll	a1,a1,a7
800046b0:	01c56533          	or	a0,a0,t3
800046b4:	00b035b3          	snez	a1,a1
800046b8:	8d4d                	or	a0,a0,a1
800046ba:	0107d7b3          	srl	a5,a5,a6
/home/xl_ci/toolchain/riscv-gnu-toolchain/riscv-gcc/libgcc/soft-fp/adddf3.c:46 (discriminator 312)
800046be:	40a605b3          	sub	a1,a2,a0
800046c2:	40f707b3          	sub	a5,a4,a5
800046c6:	00b63633          	sltu	a2,a2,a1
800046ca:	8f91                	sub	a5,a5,a2
/home/xl_ci/toolchain/riscv-gnu-toolchain/riscv-gcc/libgcc/soft-fp/adddf3.c:45 (discriminator 312)
800046cc:	841a                	mv	s0,t1
800046ce:	84b6                	mv	s1,a3
800046d0:	bf11                	j	800045e4 <__adddf3+0x2ee>
/home/xl_ci/toolchain/riscv-gnu-toolchain/riscv-gcc/libgcc/soft-fp/adddf3.c:46 (discriminator 299)
800046d2:	fe080513          	addi	a0,a6,-32 # 7fffe0 <__stack_size+0x7ff7e0>
800046d6:	02000e13          	li	t3,32
800046da:	00a7d8b3          	srl	a7,a5,a0
800046de:	4501                	li	a0,0
800046e0:	01c80863          	beq	a6,t3,800046f0 <__adddf3+0x3fa>
/home/xl_ci/toolchain/riscv-gnu-toolchain/riscv-gcc/libgcc/soft-fp/adddf3.c:46 (discriminator 306)
800046e4:	04000513          	li	a0,64
800046e8:	41050533          	sub	a0,a0,a6
800046ec:	00a79533          	sll	a0,a5,a0
/home/xl_ci/toolchain/riscv-gnu-toolchain/riscv-gcc/libgcc/soft-fp/adddf3.c:46 (discriminator 309)
800046f0:	8d4d                	or	a0,a0,a1
800046f2:	00a03533          	snez	a0,a0
800046f6:	00a8e533          	or	a0,a7,a0
/home/xl_ci/toolchain/riscv-gnu-toolchain/riscv-gcc/libgcc/soft-fp/adddf3.c:46 (discriminator 297)
800046fa:	4781                	li	a5,0
800046fc:	b7c9                	j	800046be <__adddf3+0x3c8>
800046fe:	00b7e533          	or	a0,a5,a1
80004702:	00a03533          	snez	a0,a0
80004706:	bfd5                	j	800046fa <__adddf3+0x404>
/home/xl_ci/toolchain/riscv-gnu-toolchain/riscv-gcc/libgcc/soft-fp/adddf3.c:46 (discriminator 258)
80004708:	00140513          	addi	a0,s0,1
8000470c:	7fe57513          	andi	a0,a0,2046
80004710:	e925                	bnez	a0,80004780 <__adddf3+0x48a>
/home/xl_ci/toolchain/riscv-gnu-toolchain/riscv-gcc/libgcc/soft-fp/adddf3.c:46 (discriminator 314)
80004712:	00b7e833          	or	a6,a5,a1
80004716:	00c76533          	or	a0,a4,a2
8000471a:	e821                	bnez	s0,8000476a <__adddf3+0x474>
/home/xl_ci/toolchain/riscv-gnu-toolchain/riscv-gcc/libgcc/soft-fp/adddf3.c:46 (discriminator 316)
8000471c:	00081863          	bnez	a6,8000472c <__adddf3+0x436>
/home/xl_ci/toolchain/riscv-gnu-toolchain/riscv-gcc/libgcc/soft-fp/adddf3.c:46 (discriminator 318)
80004720:	1c050263          	beqz	a0,800048e4 <__adddf3+0x5ee>
/home/xl_ci/toolchain/riscv-gnu-toolchain/riscv-gcc/libgcc/soft-fp/adddf3.c:45
80004724:	87ba                	mv	a5,a4
80004726:	85b2                	mv	a1,a2
80004728:	84b6                	mv	s1,a3
8000472a:	bbc5                	j	8000451a <__adddf3+0x224>
/home/xl_ci/toolchain/riscv-gnu-toolchain/riscv-gcc/libgcc/soft-fp/adddf3.c:46 (discriminator 319)
8000472c:	de0507e3          	beqz	a0,8000451a <__adddf3+0x224>
/home/xl_ci/toolchain/riscv-gnu-toolchain/riscv-gcc/libgcc/soft-fp/adddf3.c:46 (discriminator 326)
80004730:	40c58833          	sub	a6,a1,a2
80004734:	0105b8b3          	sltu	a7,a1,a6
80004738:	40e78533          	sub	a0,a5,a4
8000473c:	41150533          	sub	a0,a0,a7
80004740:	008008b7          	lui	a7,0x800
80004744:	011578b3          	and	a7,a0,a7
80004748:	00088a63          	beqz	a7,8000475c <__adddf3+0x466>
/home/xl_ci/toolchain/riscv-gnu-toolchain/riscv-gcc/libgcc/soft-fp/adddf3.c:46 (discriminator 328)
8000474c:	40b605b3          	sub	a1,a2,a1
80004750:	40f707b3          	sub	a5,a4,a5
80004754:	00b63633          	sltu	a2,a2,a1
80004758:	8f91                	sub	a5,a5,a2
8000475a:	b7f9                	j	80004728 <__adddf3+0x432>
/home/xl_ci/toolchain/riscv-gnu-toolchain/riscv-gcc/libgcc/soft-fp/adddf3.c:46 (discriminator 329)
8000475c:	00a865b3          	or	a1,a6,a0
80004760:	18058663          	beqz	a1,800048ec <__adddf3+0x5f6>
/home/xl_ci/toolchain/riscv-gnu-toolchain/riscv-gcc/libgcc/soft-fp/adddf3.c:46
80004764:	87aa                	mv	a5,a0
80004766:	85c2                	mv	a1,a6
80004768:	bb4d                	j	8000451a <__adddf3+0x224>
/home/xl_ci/toolchain/riscv-gnu-toolchain/riscv-gcc/libgcc/soft-fp/adddf3.c:46 (discriminator 348)
8000476a:	00081863          	bnez	a6,8000477a <__adddf3+0x484>
/home/xl_ci/toolchain/riscv-gnu-toolchain/riscv-gcc/libgcc/soft-fp/adddf3.c:46 (discriminator 349)
8000476e:	18050163          	beqz	a0,800048f0 <__adddf3+0x5fa>
/home/xl_ci/toolchain/riscv-gnu-toolchain/riscv-gcc/libgcc/soft-fp/adddf3.c:45
80004772:	87ba                	mv	a5,a4
80004774:	85b2                	mv	a1,a2
/home/xl_ci/toolchain/riscv-gnu-toolchain/riscv-gcc/libgcc/soft-fp/adddf3.c:46
80004776:	84b6                	mv	s1,a3
80004778:	bef5                	j	80004374 <__adddf3+0x7e>
/home/xl_ci/toolchain/riscv-gnu-toolchain/riscv-gcc/libgcc/soft-fp/adddf3.c:46 (discriminator 350)
8000477a:	be050de3          	beqz	a0,80004374 <__adddf3+0x7e>
8000477e:	b3d1                	j	80004542 <__adddf3+0x24c>
/home/xl_ci/toolchain/riscv-gnu-toolchain/riscv-gcc/libgcc/soft-fp/adddf3.c:46 (discriminator 315)
80004780:	40c589b3          	sub	s3,a1,a2
80004784:	0135b533          	sltu	a0,a1,s3
80004788:	40e78933          	sub	s2,a5,a4
8000478c:	40a90933          	sub	s2,s2,a0
80004790:	00800537          	lui	a0,0x800
80004794:	00a97533          	and	a0,s2,a0
80004798:	c925                	beqz	a0,80004808 <__adddf3+0x512>
/home/xl_ci/toolchain/riscv-gnu-toolchain/riscv-gcc/libgcc/soft-fp/adddf3.c:46 (discriminator 366)
8000479a:	40b609b3          	sub	s3,a2,a1
8000479e:	40f707b3          	sub	a5,a4,a5
800047a2:	01363633          	sltu	a2,a2,s3
800047a6:	40c78933          	sub	s2,a5,a2
800047aa:	84b6                	mv	s1,a3
/home/xl_ci/toolchain/riscv-gnu-toolchain/riscv-gcc/libgcc/soft-fp/adddf3.c:46 (discriminator 375)
800047ac:	06090463          	beqz	s2,80004814 <__adddf3+0x51e>
/home/xl_ci/toolchain/riscv-gnu-toolchain/riscv-gcc/libgcc/soft-fp/adddf3.c:46 (discriminator 378)
800047b0:	854a                	mv	a0,s2
800047b2:	62c010ef          	jal	ra,80005dde <__clzsi2>
/home/xl_ci/toolchain/riscv-gnu-toolchain/riscv-gcc/libgcc/soft-fp/adddf3.c:46 (discriminator 392)
800047b6:	ff850713          	addi	a4,a0,-8 # 7ffff8 <__stack_size+0x7ff7f8>
800047ba:	47fd                	li	a5,31
800047bc:	06e7c263          	blt	a5,a4,80004820 <__adddf3+0x52a>
/home/xl_ci/toolchain/riscv-gnu-toolchain/riscv-gcc/libgcc/soft-fp/adddf3.c:46 (discriminator 398)
800047c0:	02000793          	li	a5,32
800047c4:	8f99                	sub	a5,a5,a4
800047c6:	00e91933          	sll	s2,s2,a4
800047ca:	00f9d7b3          	srl	a5,s3,a5
800047ce:	0127e7b3          	or	a5,a5,s2
800047d2:	00e995b3          	sll	a1,s3,a4
/home/xl_ci/toolchain/riscv-gnu-toolchain/riscv-gcc/libgcc/soft-fp/adddf3.c:46 (discriminator 402)
800047d6:	06874f63          	blt	a4,s0,80004854 <__adddf3+0x55e>
/home/xl_ci/toolchain/riscv-gnu-toolchain/riscv-gcc/libgcc/soft-fp/adddf3.c:46 (discriminator 403)
800047da:	8f01                	sub	a4,a4,s0
800047dc:	00170693          	addi	a3,a4,1 # ff800001 <_sp+0x6f7f0001>
800047e0:	467d                	li	a2,31
800047e2:	04d64563          	blt	a2,a3,8000482c <__adddf3+0x536>
/home/xl_ci/toolchain/riscv-gnu-toolchain/riscv-gcc/libgcc/soft-fp/adddf3.c:46 (discriminator 405)
800047e6:	02000713          	li	a4,32
800047ea:	8f15                	sub	a4,a4,a3
800047ec:	00e79633          	sll	a2,a5,a4
800047f0:	00d5d533          	srl	a0,a1,a3
800047f4:	00e595b3          	sll	a1,a1,a4
800047f8:	8e49                	or	a2,a2,a0
800047fa:	00b035b3          	snez	a1,a1
800047fe:	8dd1                	or	a1,a1,a2
80004800:	00d7d7b3          	srl	a5,a5,a3
/home/xl_ci/toolchain/riscv-gnu-toolchain/riscv-gcc/libgcc/soft-fp/adddf3.c:46 (discriminator 417)
80004804:	4401                	li	s0,0
80004806:	bb11                	j	8000451a <__adddf3+0x224>
/home/xl_ci/toolchain/riscv-gnu-toolchain/riscv-gcc/libgcc/soft-fp/adddf3.c:46 (discriminator 367)
80004808:	0129e5b3          	or	a1,s3,s2
8000480c:	f1c5                	bnez	a1,800047ac <__adddf3+0x4b6>
8000480e:	4781                	li	a5,0
/home/xl_ci/toolchain/riscv-gnu-toolchain/riscv-gcc/libgcc/soft-fp/adddf3.c:46
80004810:	4401                	li	s0,0
80004812:	a8d9                	j	800048e8 <__adddf3+0x5f2>
/home/xl_ci/toolchain/riscv-gnu-toolchain/riscv-gcc/libgcc/soft-fp/adddf3.c:46 (discriminator 385)
80004814:	854e                	mv	a0,s3
80004816:	5c8010ef          	jal	ra,80005dde <__clzsi2>
8000481a:	02050513          	addi	a0,a0,32
8000481e:	bf61                	j	800047b6 <__adddf3+0x4c0>
/home/xl_ci/toolchain/riscv-gnu-toolchain/riscv-gcc/libgcc/soft-fp/adddf3.c:46 (discriminator 394)
80004820:	fd850793          	addi	a5,a0,-40
80004824:	00f997b3          	sll	a5,s3,a5
80004828:	4581                	li	a1,0
8000482a:	b775                	j	800047d6 <__adddf3+0x4e0>
/home/xl_ci/toolchain/riscv-gnu-toolchain/riscv-gcc/libgcc/soft-fp/adddf3.c:46 (discriminator 406)
8000482c:	1705                	addi	a4,a4,-31
8000482e:	02000613          	li	a2,32
80004832:	00e7d733          	srl	a4,a5,a4
80004836:	4501                	li	a0,0
80004838:	00c68763          	beq	a3,a2,80004846 <__adddf3+0x550>
/home/xl_ci/toolchain/riscv-gnu-toolchain/riscv-gcc/libgcc/soft-fp/adddf3.c:46 (discriminator 414)
8000483c:	04000513          	li	a0,64
80004840:	8d15                	sub	a0,a0,a3
80004842:	00a79533          	sll	a0,a5,a0
/home/xl_ci/toolchain/riscv-gnu-toolchain/riscv-gcc/libgcc/soft-fp/adddf3.c:46 (discriminator 417)
80004846:	8d4d                	or	a0,a0,a1
80004848:	00a03533          	snez	a0,a0
8000484c:	00a765b3          	or	a1,a4,a0
80004850:	4781                	li	a5,0
80004852:	bf4d                	j	80004804 <__adddf3+0x50e>
/home/xl_ci/toolchain/riscv-gnu-toolchain/riscv-gcc/libgcc/soft-fp/adddf3.c:46 (discriminator 404)
80004854:	8c19                	sub	s0,s0,a4
80004856:	ff800737          	lui	a4,0xff800
8000485a:	177d                	addi	a4,a4,-1
8000485c:	8ff9                	and	a5,a5,a4
8000485e:	b975                	j	8000451a <__adddf3+0x224>
/home/xl_ci/toolchain/riscv-gnu-toolchain/riscv-gcc/libgcc/soft-fp/adddf3.c:45
80004860:	87ba                	mv	a5,a4
80004862:	85b2                	mv	a1,a2
/home/xl_ci/toolchain/riscv-gnu-toolchain/riscv-gcc/libgcc/soft-fp/adddf3.c:46
80004864:	842a                	mv	s0,a0
80004866:	b955                	j	8000451a <__adddf3+0x224>
/home/xl_ci/toolchain/riscv-gnu-toolchain/riscv-gcc/libgcc/soft-fp/adddf3.c:45
80004868:	87ba                	mv	a5,a4
8000486a:	85b2                	mv	a1,a2
8000486c:	b17d                	j	8000451a <__adddf3+0x224>
8000486e:	7ff00413          	li	s0,2047
80004872:	4781                	li	a5,0
80004874:	4581                	li	a1,0
/home/xl_ci/toolchain/riscv-gnu-toolchain/riscv-gcc/libgcc/soft-fp/adddf3.c:47 (discriminator 47)
80004876:	00800737          	lui	a4,0x800
8000487a:	8f7d                	and	a4,a4,a5
8000487c:	cb11                	beqz	a4,80004890 <__adddf3+0x59a>
/home/xl_ci/toolchain/riscv-gnu-toolchain/riscv-gcc/libgcc/soft-fp/adddf3.c:47 (discriminator 63)
8000487e:	0405                	addi	s0,s0,1
80004880:	7ff00713          	li	a4,2047
80004884:	06e40b63          	beq	s0,a4,800048fa <__adddf3+0x604>
/home/xl_ci/toolchain/riscv-gnu-toolchain/riscv-gcc/libgcc/soft-fp/adddf3.c:47
80004888:	ff800737          	lui	a4,0xff800
8000488c:	177d                	addi	a4,a4,-1
8000488e:	8ff9                	and	a5,a5,a4
/home/xl_ci/toolchain/riscv-gnu-toolchain/riscv-gcc/libgcc/soft-fp/adddf3.c:47 (discriminator 79)
80004890:	01d79713          	slli	a4,a5,0x1d
80004894:	0035d513          	srli	a0,a1,0x3
80004898:	8d59                	or	a0,a0,a4
8000489a:	7ff00713          	li	a4,2047
8000489e:	838d                	srli	a5,a5,0x3
800048a0:	00e41963          	bne	s0,a4,800048b2 <__adddf3+0x5bc>
/home/xl_ci/toolchain/riscv-gnu-toolchain/riscv-gcc/libgcc/soft-fp/adddf3.c:47 (discriminator 80)
800048a4:	8d5d                	or	a0,a0,a5
800048a6:	4781                	li	a5,0
800048a8:	c509                	beqz	a0,800048b2 <__adddf3+0x5bc>
/home/xl_ci/toolchain/riscv-gnu-toolchain/riscv-gcc/libgcc/soft-fp/adddf3.c:47
800048aa:	000807b7          	lui	a5,0x80
800048ae:	4501                	li	a0,0
800048b0:	4481                	li	s1,0
/home/xl_ci/toolchain/riscv-gnu-toolchain/riscv-gcc/libgcc/soft-fp/adddf3.c:47 (discriminator 90)
800048b2:	01441713          	slli	a4,s0,0x14
800048b6:	7ff006b7          	lui	a3,0x7ff00
800048ba:	07b2                	slli	a5,a5,0xc
/home/xl_ci/toolchain/riscv-gnu-toolchain/riscv-gcc/libgcc/soft-fp/adddf3.c:51 (discriminator 90)
800048bc:	40f2                	lw	ra,28(sp)
800048be:	4462                	lw	s0,24(sp)
/home/xl_ci/toolchain/riscv-gnu-toolchain/riscv-gcc/libgcc/soft-fp/adddf3.c:47 (discriminator 90)
800048c0:	8f75                	and	a4,a4,a3
800048c2:	83b1                	srli	a5,a5,0xc
800048c4:	04fe                	slli	s1,s1,0x1f
800048c6:	8fd9                	or	a5,a5,a4
800048c8:	0097e733          	or	a4,a5,s1
/home/xl_ci/toolchain/riscv-gnu-toolchain/riscv-gcc/libgcc/soft-fp/adddf3.c:51 (discriminator 90)
800048cc:	4942                	lw	s2,16(sp)
800048ce:	44d2                	lw	s1,20(sp)
800048d0:	49b2                	lw	s3,12(sp)
800048d2:	85ba                	mv	a1,a4
800048d4:	6105                	addi	sp,sp,32
800048d6:	8082                	ret
800048d8:	8442                	mv	s0,a6
800048da:	b181                	j	8000451a <__adddf3+0x224>
/home/xl_ci/toolchain/riscv-gnu-toolchain/riscv-gcc/libgcc/soft-fp/adddf3.c:45
800048dc:	87ba                	mv	a5,a4
800048de:	85b2                	mv	a1,a2
/home/xl_ci/toolchain/riscv-gnu-toolchain/riscv-gcc/libgcc/soft-fp/adddf3.c:46
800048e0:	842a                	mv	s0,a0
800048e2:	b599                	j	80004728 <__adddf3+0x432>
800048e4:	4781                	li	a5,0
800048e6:	4581                	li	a1,0
800048e8:	4481                	li	s1,0
800048ea:	b771                	j	80004876 <__adddf3+0x580>
800048ec:	4781                	li	a5,0
800048ee:	bfed                	j	800048e8 <__adddf3+0x5f2>
800048f0:	4581                	li	a1,0
800048f2:	4481                	li	s1,0
800048f4:	004007b7          	lui	a5,0x400
800048f8:	b989                	j	8000454a <__adddf3+0x254>
800048fa:	4781                	li	a5,0
800048fc:	4581                	li	a1,0
800048fe:	bf49                	j	80004890 <__adddf3+0x59a>

80004900 <__divdf3>:
__divdf3():
/home/xl_ci/toolchain/riscv-gnu-toolchain/riscv-gcc/libgcc/soft-fp/divdf3.c:36
80004900:	7179                	addi	sp,sp,-48
80004902:	d04a                	sw	s2,32(sp)
/home/xl_ci/toolchain/riscv-gnu-toolchain/riscv-gcc/libgcc/soft-fp/divdf3.c:44
80004904:	0145d913          	srli	s2,a1,0x14
/home/xl_ci/toolchain/riscv-gnu-toolchain/riscv-gcc/libgcc/soft-fp/divdf3.c:36
80004908:	d226                	sw	s1,36(sp)
8000490a:	ce4e                	sw	s3,28(sp)
8000490c:	cc52                	sw	s4,24(sp)
8000490e:	c85a                	sw	s6,16(sp)
80004910:	c462                	sw	s8,8(sp)
/home/xl_ci/toolchain/riscv-gnu-toolchain/riscv-gcc/libgcc/soft-fp/divdf3.c:44
80004912:	00c59493          	slli	s1,a1,0xc
/home/xl_ci/toolchain/riscv-gnu-toolchain/riscv-gcc/libgcc/soft-fp/divdf3.c:36
80004916:	d606                	sw	ra,44(sp)
80004918:	d422                	sw	s0,40(sp)
8000491a:	ca56                	sw	s5,20(sp)
8000491c:	c65e                	sw	s7,12(sp)
/home/xl_ci/toolchain/riscv-gnu-toolchain/riscv-gcc/libgcc/soft-fp/divdf3.c:44
8000491e:	7ff97913          	andi	s2,s2,2047
/home/xl_ci/toolchain/riscv-gnu-toolchain/riscv-gcc/libgcc/soft-fp/divdf3.c:36
80004922:	8a2a                	mv	s4,a0
80004924:	8b32                	mv	s6,a2
80004926:	8c36                	mv	s8,a3
/home/xl_ci/toolchain/riscv-gnu-toolchain/riscv-gcc/libgcc/soft-fp/divdf3.c:44
80004928:	80b1                	srli	s1,s1,0xc
8000492a:	01f5d993          	srli	s3,a1,0x1f
8000492e:	08090463          	beqz	s2,800049b6 <__divdf3+0xb6>
80004932:	7ff00793          	li	a5,2047
80004936:	0cf90a63          	beq	s2,a5,80004a0a <__divdf3+0x10a>
/home/xl_ci/toolchain/riscv-gnu-toolchain/riscv-gcc/libgcc/soft-fp/divdf3.c:44 (discriminator 1)
8000493a:	01d55a93          	srli	s5,a0,0x1d
8000493e:	048e                	slli	s1,s1,0x3
80004940:	009ae4b3          	or	s1,s5,s1
80004944:	00800ab7          	lui	s5,0x800
80004948:	0154eab3          	or	s5,s1,s5
8000494c:	00351413          	slli	s0,a0,0x3
80004950:	c0190913          	addi	s2,s2,-1023 # 7ffc01 <__stack_size+0x7ff401>
/home/xl_ci/toolchain/riscv-gnu-toolchain/riscv-gcc/libgcc/soft-fp/divdf3.c:44 (discriminator 41)
80004954:	4b81                	li	s7,0
/home/xl_ci/toolchain/riscv-gnu-toolchain/riscv-gcc/libgcc/soft-fp/divdf3.c:45 (discriminator 8)
80004956:	00cc1513          	slli	a0,s8,0xc
8000495a:	00c55493          	srli	s1,a0,0xc
8000495e:	014c5513          	srli	a0,s8,0x14
80004962:	7ff57593          	andi	a1,a0,2047
80004966:	01fc5c13          	srli	s8,s8,0x1f
8000496a:	c1f9                	beqz	a1,80004a30 <__divdf3+0x130>
/home/xl_ci/toolchain/riscv-gnu-toolchain/riscv-gcc/libgcc/soft-fp/divdf3.c:45
8000496c:	7ff00793          	li	a5,2047
80004970:	10f58b63          	beq	a1,a5,80004a86 <__divdf3+0x186>
/home/xl_ci/toolchain/riscv-gnu-toolchain/riscv-gcc/libgcc/soft-fp/divdf3.c:45 (discriminator 1)
80004974:	00349513          	slli	a0,s1,0x3
80004978:	01db5793          	srli	a5,s6,0x1d
8000497c:	8d5d                	or	a0,a0,a5
8000497e:	008004b7          	lui	s1,0x800
80004982:	8cc9                	or	s1,s1,a0
80004984:	003b1f93          	slli	t6,s6,0x3
80004988:	c0158513          	addi	a0,a1,-1023
/home/xl_ci/toolchain/riscv-gnu-toolchain/riscv-gcc/libgcc/soft-fp/divdf3.c:45 (discriminator 41)
8000498c:	4781                	li	a5,0
/home/xl_ci/toolchain/riscv-gnu-toolchain/riscv-gcc/libgcc/soft-fp/divdf3.c:46 (discriminator 8)
8000498e:	002b9713          	slli	a4,s7,0x2
80004992:	8f5d                	or	a4,a4,a5
80004994:	177d                	addi	a4,a4,-1
80004996:	4639                	li	a2,14
80004998:	0189c6b3          	xor	a3,s3,s8
8000499c:	40a905b3          	sub	a1,s2,a0
800049a0:	10e66563          	bltu	a2,a4,80004aaa <__divdf3+0x1aa>
800049a4:	00002617          	auipc	a2,0x2
800049a8:	a9860613          	addi	a2,a2,-1384 # 8000643c <_ctype_+0x104>
800049ac:	070a                	slli	a4,a4,0x2
800049ae:	9732                	add	a4,a4,a2
800049b0:	4318                	lw	a4,0(a4)
800049b2:	9732                	add	a4,a4,a2
800049b4:	8702                	jr	a4
/home/xl_ci/toolchain/riscv-gnu-toolchain/riscv-gcc/libgcc/soft-fp/divdf3.c:44 (discriminator 2)
800049b6:	00a4eab3          	or	s5,s1,a0
800049ba:	060a8263          	beqz	s5,80004a1e <__divdf3+0x11e>
/home/xl_ci/toolchain/riscv-gnu-toolchain/riscv-gcc/libgcc/soft-fp/divdf3.c:44 (discriminator 13)
800049be:	c89d                	beqz	s1,800049f4 <__divdf3+0xf4>
/home/xl_ci/toolchain/riscv-gnu-toolchain/riscv-gcc/libgcc/soft-fp/divdf3.c:44 (discriminator 17)
800049c0:	8526                	mv	a0,s1
800049c2:	41c010ef          	jal	ra,80005dde <__clzsi2>
/home/xl_ci/toolchain/riscv-gnu-toolchain/riscv-gcc/libgcc/soft-fp/divdf3.c:44 (discriminator 31)
800049c6:	ff550793          	addi	a5,a0,-11
800049ca:	4771                	li	a4,28
800049cc:	02f74963          	blt	a4,a5,800049fe <__divdf3+0xfe>
/home/xl_ci/toolchain/riscv-gnu-toolchain/riscv-gcc/libgcc/soft-fp/divdf3.c:44 (discriminator 32)
800049d0:	4af5                	li	s5,29
800049d2:	ff850413          	addi	s0,a0,-8
800049d6:	40fa8ab3          	sub	s5,s5,a5
800049da:	008494b3          	sll	s1,s1,s0
800049de:	015a5ab3          	srl	s5,s4,s5
800049e2:	009aeab3          	or	s5,s5,s1
800049e6:	008a1433          	sll	s0,s4,s0
/home/xl_ci/toolchain/riscv-gnu-toolchain/riscv-gcc/libgcc/soft-fp/divdf3.c:44 (discriminator 41)
800049ea:	c0d00593          	li	a1,-1011
800049ee:	40a58933          	sub	s2,a1,a0
800049f2:	b78d                	j	80004954 <__divdf3+0x54>
/home/xl_ci/toolchain/riscv-gnu-toolchain/riscv-gcc/libgcc/soft-fp/divdf3.c:44 (discriminator 24)
800049f4:	3ea010ef          	jal	ra,80005dde <__clzsi2>
800049f8:	02050513          	addi	a0,a0,32
800049fc:	b7e9                	j	800049c6 <__divdf3+0xc6>
/home/xl_ci/toolchain/riscv-gnu-toolchain/riscv-gcc/libgcc/soft-fp/divdf3.c:44 (discriminator 33)
800049fe:	fd850493          	addi	s1,a0,-40
80004a02:	009a1ab3          	sll	s5,s4,s1
80004a06:	4401                	li	s0,0
80004a08:	b7cd                	j	800049ea <__divdf3+0xea>
/home/xl_ci/toolchain/riscv-gnu-toolchain/riscv-gcc/libgcc/soft-fp/divdf3.c:44 (discriminator 3)
80004a0a:	00a4eab3          	or	s5,s1,a0
80004a0e:	000a8c63          	beqz	s5,80004a26 <__divdf3+0x126>
80004a12:	842a                	mv	s0,a0
/home/xl_ci/toolchain/riscv-gnu-toolchain/riscv-gcc/libgcc/soft-fp/divdf3.c:44
80004a14:	8aa6                	mv	s5,s1
80004a16:	7ff00913          	li	s2,2047
80004a1a:	4b8d                	li	s7,3
80004a1c:	bf2d                	j	80004956 <__divdf3+0x56>
80004a1e:	4401                	li	s0,0
80004a20:	4901                	li	s2,0
80004a22:	4b85                	li	s7,1
80004a24:	bf0d                	j	80004956 <__divdf3+0x56>
80004a26:	4401                	li	s0,0
80004a28:	7ff00913          	li	s2,2047
80004a2c:	4b89                	li	s7,2
80004a2e:	b725                	j	80004956 <__divdf3+0x56>
/home/xl_ci/toolchain/riscv-gnu-toolchain/riscv-gcc/libgcc/soft-fp/divdf3.c:45 (discriminator 2)
80004a30:	0164efb3          	or	t6,s1,s6
80004a34:	060f8263          	beqz	t6,80004a98 <__divdf3+0x198>
/home/xl_ci/toolchain/riscv-gnu-toolchain/riscv-gcc/libgcc/soft-fp/divdf3.c:45 (discriminator 13)
80004a38:	c89d                	beqz	s1,80004a6e <__divdf3+0x16e>
/home/xl_ci/toolchain/riscv-gnu-toolchain/riscv-gcc/libgcc/soft-fp/divdf3.c:45 (discriminator 17)
80004a3a:	8526                	mv	a0,s1
80004a3c:	3a2010ef          	jal	ra,80005dde <__clzsi2>
80004a40:	85aa                	mv	a1,a0
/home/xl_ci/toolchain/riscv-gnu-toolchain/riscv-gcc/libgcc/soft-fp/divdf3.c:45 (discriminator 31)
80004a42:	ff558793          	addi	a5,a1,-11
80004a46:	4771                	li	a4,28
80004a48:	02f74963          	blt	a4,a5,80004a7a <__divdf3+0x17a>
/home/xl_ci/toolchain/riscv-gnu-toolchain/riscv-gcc/libgcc/soft-fp/divdf3.c:45 (discriminator 32)
80004a4c:	46f5                	li	a3,29
80004a4e:	ff858f93          	addi	t6,a1,-8
80004a52:	8e9d                	sub	a3,a3,a5
80004a54:	01f49533          	sll	a0,s1,t6
80004a58:	00db56b3          	srl	a3,s6,a3
80004a5c:	00a6e4b3          	or	s1,a3,a0
80004a60:	01fb1fb3          	sll	t6,s6,t6
/home/xl_ci/toolchain/riscv-gnu-toolchain/riscv-gcc/libgcc/soft-fp/divdf3.c:45 (discriminator 41)
80004a64:	c0d00693          	li	a3,-1011
80004a68:	40b68533          	sub	a0,a3,a1
80004a6c:	b705                	j	8000498c <__divdf3+0x8c>
/home/xl_ci/toolchain/riscv-gnu-toolchain/riscv-gcc/libgcc/soft-fp/divdf3.c:45 (discriminator 24)
80004a6e:	855a                	mv	a0,s6
80004a70:	36e010ef          	jal	ra,80005dde <__clzsi2>
80004a74:	02050593          	addi	a1,a0,32
80004a78:	b7e9                	j	80004a42 <__divdf3+0x142>
/home/xl_ci/toolchain/riscv-gnu-toolchain/riscv-gcc/libgcc/soft-fp/divdf3.c:45 (discriminator 33)
80004a7a:	fd858513          	addi	a0,a1,-40
80004a7e:	00ab14b3          	sll	s1,s6,a0
80004a82:	4f81                	li	t6,0
80004a84:	b7c5                	j	80004a64 <__divdf3+0x164>
/home/xl_ci/toolchain/riscv-gnu-toolchain/riscv-gcc/libgcc/soft-fp/divdf3.c:45 (discriminator 3)
80004a86:	0164efb3          	or	t6,s1,s6
80004a8a:	000f8b63          	beqz	t6,80004aa0 <__divdf3+0x1a0>
/home/xl_ci/toolchain/riscv-gnu-toolchain/riscv-gcc/libgcc/soft-fp/divdf3.c:45
80004a8e:	8fda                	mv	t6,s6
80004a90:	7ff00513          	li	a0,2047
80004a94:	478d                	li	a5,3
80004a96:	bde5                	j	8000498e <__divdf3+0x8e>
80004a98:	4481                	li	s1,0
80004a9a:	4501                	li	a0,0
80004a9c:	4785                	li	a5,1
80004a9e:	bdc5                	j	8000498e <__divdf3+0x8e>
80004aa0:	4481                	li	s1,0
80004aa2:	7ff00513          	li	a0,2047
80004aa6:	4789                	li	a5,2
80004aa8:	b5dd                	j	8000498e <__divdf3+0x8e>
/home/xl_ci/toolchain/riscv-gnu-toolchain/riscv-gcc/libgcc/soft-fp/divdf3.c:46 (discriminator 2)
80004aaa:	0154e663          	bltu	s1,s5,80004ab6 <__divdf3+0x1b6>
/home/xl_ci/toolchain/riscv-gnu-toolchain/riscv-gcc/libgcc/soft-fp/divdf3.c:46 (discriminator 11)
80004aae:	2a9a9663          	bne	s5,s1,80004d5a <__divdf3+0x45a>
/home/xl_ci/toolchain/riscv-gnu-toolchain/riscv-gcc/libgcc/soft-fp/divdf3.c:46 (discriminator 12)
80004ab2:	2bf46463          	bltu	s0,t6,80004d5a <__divdf3+0x45a>
/home/xl_ci/toolchain/riscv-gnu-toolchain/riscv-gcc/libgcc/soft-fp/divdf3.c:46 (discriminator 14)
80004ab6:	01fa9613          	slli	a2,s5,0x1f
80004aba:	00145713          	srli	a4,s0,0x1
80004abe:	01f41793          	slli	a5,s0,0x1f
80004ac2:	001ada93          	srli	s5,s5,0x1
80004ac6:	00e66433          	or	s0,a2,a4
/home/xl_ci/toolchain/riscv-gnu-toolchain/riscv-gcc/libgcc/soft-fp/divdf3.c:46 (discriminator 19)
80004aca:	00849513          	slli	a0,s1,0x8
80004ace:	018fd893          	srli	a7,t6,0x18
80004ad2:	00a8e8b3          	or	a7,a7,a0
80004ad6:	8141                	srli	a0,a0,0x10
80004ad8:	02aade33          	divu	t3,s5,a0
80004adc:	01089e93          	slli	t4,a7,0x10
80004ae0:	010ede93          	srli	t4,t4,0x10
80004ae4:	01045713          	srli	a4,s0,0x10
80004ae8:	008f9313          	slli	t1,t6,0x8
80004aec:	02aafab3          	remu	s5,s5,a0
80004af0:	8672                	mv	a2,t3
80004af2:	03ce8833          	mul	a6,t4,t3
80004af6:	0ac2                	slli	s5,s5,0x10
80004af8:	01576733          	or	a4,a4,s5
80004afc:	01077c63          	bgeu	a4,a6,80004b14 <__divdf3+0x214>
/home/xl_ci/toolchain/riscv-gnu-toolchain/riscv-gcc/libgcc/soft-fp/divdf3.c:46 (discriminator 22)
80004b00:	9746                	add	a4,a4,a7
80004b02:	fffe0613          	addi	a2,t3,-1 # ffff <__stack_size+0xf7ff>
80004b06:	01176763          	bltu	a4,a7,80004b14 <__divdf3+0x214>
/home/xl_ci/toolchain/riscv-gnu-toolchain/riscv-gcc/libgcc/soft-fp/divdf3.c:46 (discriminator 24)
80004b0a:	01077563          	bgeu	a4,a6,80004b14 <__divdf3+0x214>
/home/xl_ci/toolchain/riscv-gnu-toolchain/riscv-gcc/libgcc/soft-fp/divdf3.c:46 (discriminator 26)
80004b0e:	ffee0613          	addi	a2,t3,-2
80004b12:	9746                	add	a4,a4,a7
/home/xl_ci/toolchain/riscv-gnu-toolchain/riscv-gcc/libgcc/soft-fp/divdf3.c:46 (discriminator 28)
80004b14:	41070733          	sub	a4,a4,a6
80004b18:	02a75e33          	divu	t3,a4,a0
80004b1c:	0442                	slli	s0,s0,0x10
80004b1e:	8041                	srli	s0,s0,0x10
80004b20:	02a77733          	remu	a4,a4,a0
80004b24:	82f2                	mv	t0,t3
80004b26:	03ce8833          	mul	a6,t4,t3
80004b2a:	0742                	slli	a4,a4,0x10
80004b2c:	8f41                	or	a4,a4,s0
80004b2e:	01077c63          	bgeu	a4,a6,80004b46 <__divdf3+0x246>
/home/xl_ci/toolchain/riscv-gnu-toolchain/riscv-gcc/libgcc/soft-fp/divdf3.c:46 (discriminator 29)
80004b32:	9746                	add	a4,a4,a7
80004b34:	fffe0293          	addi	t0,t3,-1
80004b38:	01176763          	bltu	a4,a7,80004b46 <__divdf3+0x246>
/home/xl_ci/toolchain/riscv-gnu-toolchain/riscv-gcc/libgcc/soft-fp/divdf3.c:46 (discriminator 31)
80004b3c:	01077563          	bgeu	a4,a6,80004b46 <__divdf3+0x246>
/home/xl_ci/toolchain/riscv-gnu-toolchain/riscv-gcc/libgcc/soft-fp/divdf3.c:46 (discriminator 33)
80004b40:	ffee0293          	addi	t0,t3,-2
80004b44:	9746                	add	a4,a4,a7
/home/xl_ci/toolchain/riscv-gnu-toolchain/riscv-gcc/libgcc/soft-fp/divdf3.c:46 (discriminator 35)
80004b46:	41070433          	sub	s0,a4,a6
80004b4a:	0642                	slli	a2,a2,0x10
80004b4c:	6841                	lui	a6,0x10
80004b4e:	005662b3          	or	t0,a2,t0
80004b52:	fff80e13          	addi	t3,a6,-1 # ffff <__stack_size+0xf7ff>
80004b56:	0102d613          	srli	a2,t0,0x10
80004b5a:	01c2f733          	and	a4,t0,t3
80004b5e:	01035f13          	srli	t5,t1,0x10
80004b62:	01c37e33          	and	t3,t1,t3
80004b66:	02ee03b3          	mul	t2,t3,a4
80004b6a:	03c604b3          	mul	s1,a2,t3
80004b6e:	02ef0733          	mul	a4,t5,a4
80004b72:	03e60fb3          	mul	t6,a2,t5
80004b76:	00970633          	add	a2,a4,s1
80004b7a:	0103d713          	srli	a4,t2,0x10
80004b7e:	9732                	add	a4,a4,a2
80004b80:	00977363          	bgeu	a4,s1,80004b86 <__divdf3+0x286>
/home/xl_ci/toolchain/riscv-gnu-toolchain/riscv-gcc/libgcc/soft-fp/divdf3.c:46 (discriminator 36)
80004b84:	9fc2                	add	t6,t6,a6
/home/xl_ci/toolchain/riscv-gnu-toolchain/riscv-gcc/libgcc/soft-fp/divdf3.c:46 (discriminator 38)
80004b86:	01075613          	srli	a2,a4,0x10
80004b8a:	967e                	add	a2,a2,t6
80004b8c:	6fc1                	lui	t6,0x10
80004b8e:	1ffd                	addi	t6,t6,-1
80004b90:	01f77833          	and	a6,a4,t6
80004b94:	0842                	slli	a6,a6,0x10
80004b96:	01f3f3b3          	and	t2,t2,t6
80004b9a:	981e                	add	a6,a6,t2
80004b9c:	00c46763          	bltu	s0,a2,80004baa <__divdf3+0x2aa>
/home/xl_ci/toolchain/riscv-gnu-toolchain/riscv-gcc/libgcc/soft-fp/divdf3.c:46 (discriminator 40)
80004ba0:	8496                	mv	s1,t0
80004ba2:	02c41e63          	bne	s0,a2,80004bde <__divdf3+0x2de>
/home/xl_ci/toolchain/riscv-gnu-toolchain/riscv-gcc/libgcc/soft-fp/divdf3.c:46 (discriminator 41)
80004ba6:	0307fc63          	bgeu	a5,a6,80004bde <__divdf3+0x2de>
/home/xl_ci/toolchain/riscv-gnu-toolchain/riscv-gcc/libgcc/soft-fp/divdf3.c:46 (discriminator 43)
80004baa:	979a                	add	a5,a5,t1
80004bac:	0067b733          	sltu	a4,a5,t1
80004bb0:	9746                	add	a4,a4,a7
80004bb2:	943a                	add	s0,s0,a4
80004bb4:	fff28493          	addi	s1,t0,-1
80004bb8:	0088e663          	bltu	a7,s0,80004bc4 <__divdf3+0x2c4>
/home/xl_ci/toolchain/riscv-gnu-toolchain/riscv-gcc/libgcc/soft-fp/divdf3.c:46 (discriminator 46)
80004bbc:	02889163          	bne	a7,s0,80004bde <__divdf3+0x2de>
/home/xl_ci/toolchain/riscv-gnu-toolchain/riscv-gcc/libgcc/soft-fp/divdf3.c:46 (discriminator 47)
80004bc0:	0067ef63          	bltu	a5,t1,80004bde <__divdf3+0x2de>
/home/xl_ci/toolchain/riscv-gnu-toolchain/riscv-gcc/libgcc/soft-fp/divdf3.c:46 (discriminator 49)
80004bc4:	00c46663          	bltu	s0,a2,80004bd0 <__divdf3+0x2d0>
/home/xl_ci/toolchain/riscv-gnu-toolchain/riscv-gcc/libgcc/soft-fp/divdf3.c:46 (discriminator 52)
80004bc8:	00861b63          	bne	a2,s0,80004bde <__divdf3+0x2de>
/home/xl_ci/toolchain/riscv-gnu-toolchain/riscv-gcc/libgcc/soft-fp/divdf3.c:46 (discriminator 53)
80004bcc:	0107f963          	bgeu	a5,a6,80004bde <__divdf3+0x2de>
/home/xl_ci/toolchain/riscv-gnu-toolchain/riscv-gcc/libgcc/soft-fp/divdf3.c:46 (discriminator 55)
80004bd0:	979a                	add	a5,a5,t1
80004bd2:	0067b733          	sltu	a4,a5,t1
80004bd6:	9746                	add	a4,a4,a7
80004bd8:	ffe28493          	addi	s1,t0,-2
80004bdc:	943a                	add	s0,s0,a4
/home/xl_ci/toolchain/riscv-gnu-toolchain/riscv-gcc/libgcc/soft-fp/divdf3.c:46 (discriminator 57)
80004bde:	41078833          	sub	a6,a5,a6
80004be2:	8c11                	sub	s0,s0,a2
80004be4:	0107b7b3          	sltu	a5,a5,a6
80004be8:	8c1d                	sub	s0,s0,a5
80004bea:	5ffd                	li	t6,-1
80004bec:	0e888763          	beq	a7,s0,80004cda <__divdf3+0x3da>
/home/xl_ci/toolchain/riscv-gnu-toolchain/riscv-gcc/libgcc/soft-fp/divdf3.c:46 (discriminator 59)
80004bf0:	02a45fb3          	divu	t6,s0,a0
80004bf4:	01085713          	srli	a4,a6,0x10
80004bf8:	02a47433          	remu	s0,s0,a0
80004bfc:	867e                	mv	a2,t6
80004bfe:	03fe87b3          	mul	a5,t4,t6
80004c02:	0442                	slli	s0,s0,0x10
80004c04:	8c59                	or	s0,s0,a4
80004c06:	00f47c63          	bgeu	s0,a5,80004c1e <__divdf3+0x31e>
/home/xl_ci/toolchain/riscv-gnu-toolchain/riscv-gcc/libgcc/soft-fp/divdf3.c:46 (discriminator 61)
80004c0a:	9446                	add	s0,s0,a7
80004c0c:	ffff8613          	addi	a2,t6,-1 # ffff <__stack_size+0xf7ff>
80004c10:	01146763          	bltu	s0,a7,80004c1e <__divdf3+0x31e>
/home/xl_ci/toolchain/riscv-gnu-toolchain/riscv-gcc/libgcc/soft-fp/divdf3.c:46 (discriminator 63)
80004c14:	00f47563          	bgeu	s0,a5,80004c1e <__divdf3+0x31e>
/home/xl_ci/toolchain/riscv-gnu-toolchain/riscv-gcc/libgcc/soft-fp/divdf3.c:46 (discriminator 65)
80004c18:	ffef8613          	addi	a2,t6,-2
80004c1c:	9446                	add	s0,s0,a7
/home/xl_ci/toolchain/riscv-gnu-toolchain/riscv-gcc/libgcc/soft-fp/divdf3.c:46 (discriminator 67)
80004c1e:	8c1d                	sub	s0,s0,a5
80004c20:	02a45733          	divu	a4,s0,a0
80004c24:	0842                	slli	a6,a6,0x10
80004c26:	01085813          	srli	a6,a6,0x10
80004c2a:	02a47433          	remu	s0,s0,a0
80004c2e:	87ba                	mv	a5,a4
80004c30:	02ee8eb3          	mul	t4,t4,a4
80004c34:	0442                	slli	s0,s0,0x10
80004c36:	00886433          	or	s0,a6,s0
80004c3a:	01d47c63          	bgeu	s0,t4,80004c52 <__divdf3+0x352>
/home/xl_ci/toolchain/riscv-gnu-toolchain/riscv-gcc/libgcc/soft-fp/divdf3.c:46 (discriminator 68)
80004c3e:	9446                	add	s0,s0,a7
80004c40:	fff70793          	addi	a5,a4,-1 # ff7fffff <_sp+0x6f7effff>
80004c44:	01146763          	bltu	s0,a7,80004c52 <__divdf3+0x352>
/home/xl_ci/toolchain/riscv-gnu-toolchain/riscv-gcc/libgcc/soft-fp/divdf3.c:46 (discriminator 70)
80004c48:	01d47563          	bgeu	s0,t4,80004c52 <__divdf3+0x352>
/home/xl_ci/toolchain/riscv-gnu-toolchain/riscv-gcc/libgcc/soft-fp/divdf3.c:46 (discriminator 72)
80004c4c:	ffe70793          	addi	a5,a4,-2
80004c50:	9446                	add	s0,s0,a7
/home/xl_ci/toolchain/riscv-gnu-toolchain/riscv-gcc/libgcc/soft-fp/divdf3.c:46 (discriminator 74)
80004c52:	0642                	slli	a2,a2,0x10
80004c54:	8e5d                	or	a2,a2,a5
80004c56:	01061793          	slli	a5,a2,0x10
80004c5a:	83c1                	srli	a5,a5,0x10
80004c5c:	01065713          	srli	a4,a2,0x10
80004c60:	02ef0833          	mul	a6,t5,a4
80004c64:	41d40433          	sub	s0,s0,t4
80004c68:	02ff0f33          	mul	t5,t5,a5
80004c6c:	03c78eb3          	mul	t4,a5,t3
80004c70:	03c70e33          	mul	t3,a4,t3
80004c74:	010ed793          	srli	a5,t4,0x10
80004c78:	9f72                	add	t5,t5,t3
80004c7a:	97fa                	add	a5,a5,t5
80004c7c:	01c7f463          	bgeu	a5,t3,80004c84 <__divdf3+0x384>
/home/xl_ci/toolchain/riscv-gnu-toolchain/riscv-gcc/libgcc/soft-fp/divdf3.c:46 (discriminator 75)
80004c80:	6741                	lui	a4,0x10
80004c82:	983a                	add	a6,a6,a4
/home/xl_ci/toolchain/riscv-gnu-toolchain/riscv-gcc/libgcc/soft-fp/divdf3.c:46 (discriminator 77)
80004c84:	0107d713          	srli	a4,a5,0x10
80004c88:	9742                	add	a4,a4,a6
80004c8a:	6841                	lui	a6,0x10
80004c8c:	187d                	addi	a6,a6,-1
80004c8e:	0107f533          	and	a0,a5,a6
80004c92:	0542                	slli	a0,a0,0x10
80004c94:	010efeb3          	and	t4,t4,a6
80004c98:	9576                	add	a0,a0,t4
80004c9a:	00e46663          	bltu	s0,a4,80004ca6 <__divdf3+0x3a6>
/home/xl_ci/toolchain/riscv-gnu-toolchain/riscv-gcc/libgcc/soft-fp/divdf3.c:46 (discriminator 79)
80004c9e:	18e41f63          	bne	s0,a4,80004e3c <__divdf3+0x53c>
/home/xl_ci/toolchain/riscv-gnu-toolchain/riscv-gcc/libgcc/soft-fp/divdf3.c:46 (discriminator 80)
80004ca2:	8fb2                	mv	t6,a2
80004ca4:	c91d                	beqz	a0,80004cda <__divdf3+0x3da>
/home/xl_ci/toolchain/riscv-gnu-toolchain/riscv-gcc/libgcc/soft-fp/divdf3.c:46 (discriminator 82)
80004ca6:	9446                	add	s0,s0,a7
80004ca8:	fff60f93          	addi	t6,a2,-1
80004cac:	03146163          	bltu	s0,a7,80004cce <__divdf3+0x3ce>
/home/xl_ci/toolchain/riscv-gnu-toolchain/riscv-gcc/libgcc/soft-fp/divdf3.c:46 (discriminator 88)
80004cb0:	00e46663          	bltu	s0,a4,80004cbc <__divdf3+0x3bc>
/home/xl_ci/toolchain/riscv-gnu-toolchain/riscv-gcc/libgcc/soft-fp/divdf3.c:46 (discriminator 91)
80004cb4:	18e41363          	bne	s0,a4,80004e3a <__divdf3+0x53a>
/home/xl_ci/toolchain/riscv-gnu-toolchain/riscv-gcc/libgcc/soft-fp/divdf3.c:46 (discriminator 92)
80004cb8:	00a37d63          	bgeu	t1,a0,80004cd2 <__divdf3+0x3d2>
/home/xl_ci/toolchain/riscv-gnu-toolchain/riscv-gcc/libgcc/soft-fp/divdf3.c:46 (discriminator 94)
80004cbc:	00131793          	slli	a5,t1,0x1
80004cc0:	0067b333          	sltu	t1,a5,t1
80004cc4:	989a                	add	a7,a7,t1
80004cc6:	ffe60f93          	addi	t6,a2,-2
80004cca:	9446                	add	s0,s0,a7
80004ccc:	833e                	mv	t1,a5
/home/xl_ci/toolchain/riscv-gnu-toolchain/riscv-gcc/libgcc/soft-fp/divdf3.c:46 (discriminator 96)
80004cce:	00e41463          	bne	s0,a4,80004cd6 <__divdf3+0x3d6>
/home/xl_ci/toolchain/riscv-gnu-toolchain/riscv-gcc/libgcc/soft-fp/divdf3.c:46 (discriminator 98)
80004cd2:	00650463          	beq	a0,t1,80004cda <__divdf3+0x3da>
/home/xl_ci/toolchain/riscv-gnu-toolchain/riscv-gcc/libgcc/soft-fp/divdf3.c:46 (discriminator 99)
80004cd6:	001fef93          	ori	t6,t6,1
/home/xl_ci/toolchain/riscv-gnu-toolchain/riscv-gcc/libgcc/soft-fp/divdf3.c:47 (discriminator 2)
80004cda:	3ff58793          	addi	a5,a1,1023
80004cde:	0af05b63          	blez	a5,80004d94 <__divdf3+0x494>
/home/xl_ci/toolchain/riscv-gnu-toolchain/riscv-gcc/libgcc/soft-fp/divdf3.c:47 (discriminator 6)
80004ce2:	007ff713          	andi	a4,t6,7
80004ce6:	cf01                	beqz	a4,80004cfe <__divdf3+0x3fe>
/home/xl_ci/toolchain/riscv-gnu-toolchain/riscv-gcc/libgcc/soft-fp/divdf3.c:47 (discriminator 8)
80004ce8:	00fff713          	andi	a4,t6,15
80004cec:	4611                	li	a2,4
80004cee:	00c70863          	beq	a4,a2,80004cfe <__divdf3+0x3fe>
/home/xl_ci/toolchain/riscv-gnu-toolchain/riscv-gcc/libgcc/soft-fp/divdf3.c:47 (discriminator 10)
80004cf2:	004f8613          	addi	a2,t6,4
80004cf6:	01f63fb3          	sltu	t6,a2,t6
80004cfa:	94fe                	add	s1,s1,t6
80004cfc:	8fb2                	mv	t6,a2
/home/xl_ci/toolchain/riscv-gnu-toolchain/riscv-gcc/libgcc/soft-fp/divdf3.c:47 (discriminator 9)
80004cfe:	01000737          	lui	a4,0x1000
80004d02:	8f65                	and	a4,a4,s1
80004d04:	c719                	beqz	a4,80004d12 <__divdf3+0x412>
/home/xl_ci/toolchain/riscv-gnu-toolchain/riscv-gcc/libgcc/soft-fp/divdf3.c:47 (discriminator 24)
80004d06:	ff0007b7          	lui	a5,0xff000
80004d0a:	17fd                	addi	a5,a5,-1
80004d0c:	8cfd                	and	s1,s1,a5
80004d0e:	40058793          	addi	a5,a1,1024
/home/xl_ci/toolchain/riscv-gnu-toolchain/riscv-gcc/libgcc/soft-fp/divdf3.c:47 (discriminator 26)
80004d12:	7fe00713          	li	a4,2046
80004d16:	06f74263          	blt	a4,a5,80004d7a <__divdf3+0x47a>
/home/xl_ci/toolchain/riscv-gnu-toolchain/riscv-gcc/libgcc/soft-fp/divdf3.c:47
80004d1a:	003fdf93          	srli	t6,t6,0x3
80004d1e:	01d49713          	slli	a4,s1,0x1d
80004d22:	01f76733          	or	a4,a4,t6
80004d26:	0034d513          	srli	a0,s1,0x3
/home/xl_ci/toolchain/riscv-gnu-toolchain/riscv-gcc/libgcc/soft-fp/divdf3.c:47 (discriminator 119)
80004d2a:	07d2                	slli	a5,a5,0x14
80004d2c:	7ff00637          	lui	a2,0x7ff00
80004d30:	0532                	slli	a0,a0,0xc
/home/xl_ci/toolchain/riscv-gnu-toolchain/riscv-gcc/libgcc/soft-fp/divdf3.c:51 (discriminator 119)
80004d32:	50b2                	lw	ra,44(sp)
80004d34:	5422                	lw	s0,40(sp)
/home/xl_ci/toolchain/riscv-gnu-toolchain/riscv-gcc/libgcc/soft-fp/divdf3.c:47 (discriminator 119)
80004d36:	8ff1                	and	a5,a5,a2
80004d38:	8131                	srli	a0,a0,0xc
80004d3a:	8d5d                	or	a0,a0,a5
80004d3c:	06fe                	slli	a3,a3,0x1f
80004d3e:	00d567b3          	or	a5,a0,a3
/home/xl_ci/toolchain/riscv-gnu-toolchain/riscv-gcc/libgcc/soft-fp/divdf3.c:51 (discriminator 119)
80004d42:	5492                	lw	s1,36(sp)
80004d44:	5902                	lw	s2,32(sp)
80004d46:	49f2                	lw	s3,28(sp)
80004d48:	4a62                	lw	s4,24(sp)
80004d4a:	4ad2                	lw	s5,20(sp)
80004d4c:	4b42                	lw	s6,16(sp)
80004d4e:	4bb2                	lw	s7,12(sp)
80004d50:	4c22                	lw	s8,8(sp)
80004d52:	853a                	mv	a0,a4
80004d54:	85be                	mv	a1,a5
80004d56:	6145                	addi	sp,sp,48
80004d58:	8082                	ret
/home/xl_ci/toolchain/riscv-gnu-toolchain/riscv-gcc/libgcc/soft-fp/divdf3.c:46 (discriminator 15)
80004d5a:	15fd                	addi	a1,a1,-1
80004d5c:	4781                	li	a5,0
80004d5e:	b3b5                	j	80004aca <__divdf3+0x1ca>
/home/xl_ci/toolchain/riscv-gnu-toolchain/riscv-gcc/libgcc/soft-fp/divdf3.c:44 (discriminator 8)
80004d60:	86ce                	mv	a3,s3
/home/xl_ci/toolchain/riscv-gnu-toolchain/riscv-gcc/libgcc/soft-fp/divdf3.c:46 (discriminator 8)
80004d62:	84d6                	mv	s1,s5
80004d64:	8fa2                	mv	t6,s0
80004d66:	87de                	mv	a5,s7
/home/xl_ci/toolchain/riscv-gnu-toolchain/riscv-gcc/libgcc/soft-fp/divdf3.c:47 (discriminator 108)
80004d68:	470d                	li	a4,3
80004d6a:	0ae78a63          	beq	a5,a4,80004e1e <__divdf3+0x51e>
/home/xl_ci/toolchain/riscv-gnu-toolchain/riscv-gcc/libgcc/soft-fp/divdf3.c:47
80004d6e:	4705                	li	a4,1
80004d70:	0ae78e63          	beq	a5,a4,80004e2c <__divdf3+0x52c>
80004d74:	4709                	li	a4,2
80004d76:	f6e792e3          	bne	a5,a4,80004cda <__divdf3+0x3da>
80004d7a:	4501                	li	a0,0
80004d7c:	4701                	li	a4,0
80004d7e:	7ff00793          	li	a5,2047
80004d82:	b765                	j	80004d2a <__divdf3+0x42a>
/home/xl_ci/toolchain/riscv-gnu-toolchain/riscv-gcc/libgcc/soft-fp/divdf3.c:45 (discriminator 5)
80004d84:	86e2                	mv	a3,s8
/home/xl_ci/toolchain/riscv-gnu-toolchain/riscv-gcc/libgcc/soft-fp/divdf3.c:46 (discriminator 5)
80004d86:	b7cd                	j	80004d68 <__divdf3+0x468>
/home/xl_ci/toolchain/riscv-gnu-toolchain/riscv-gcc/libgcc/soft-fp/divdf3.c:46
80004d88:	000804b7          	lui	s1,0x80
80004d8c:	4f81                	li	t6,0
80004d8e:	4681                	li	a3,0
80004d90:	478d                	li	a5,3
80004d92:	bfd9                	j	80004d68 <__divdf3+0x468>
/home/xl_ci/toolchain/riscv-gnu-toolchain/riscv-gcc/libgcc/soft-fp/divdf3.c:47 (discriminator 59)
80004d94:	4505                	li	a0,1
80004d96:	8d1d                	sub	a0,a0,a5
80004d98:	03800713          	li	a4,56
80004d9c:	08a74863          	blt	a4,a0,80004e2c <__divdf3+0x52c>
/home/xl_ci/toolchain/riscv-gnu-toolchain/riscv-gcc/libgcc/soft-fp/divdf3.c:47 (discriminator 60)
80004da0:	477d                	li	a4,31
80004da2:	04a74963          	blt	a4,a0,80004df4 <__divdf3+0x4f4>
/home/xl_ci/toolchain/riscv-gnu-toolchain/riscv-gcc/libgcc/soft-fp/divdf3.c:47 (discriminator 62)
80004da6:	41e58593          	addi	a1,a1,1054
80004daa:	00b497b3          	sll	a5,s1,a1
80004dae:	00afd733          	srl	a4,t6,a0
80004db2:	00bf95b3          	sll	a1,t6,a1
80004db6:	8fd9                	or	a5,a5,a4
80004db8:	00b035b3          	snez	a1,a1
80004dbc:	8fcd                	or	a5,a5,a1
80004dbe:	00a4d533          	srl	a0,s1,a0
/home/xl_ci/toolchain/riscv-gnu-toolchain/riscv-gcc/libgcc/soft-fp/divdf3.c:47 (discriminator 75)
80004dc2:	0077f713          	andi	a4,a5,7
80004dc6:	cf01                	beqz	a4,80004dde <__divdf3+0x4de>
/home/xl_ci/toolchain/riscv-gnu-toolchain/riscv-gcc/libgcc/soft-fp/divdf3.c:47 (discriminator 76)
80004dc8:	00f7f713          	andi	a4,a5,15
80004dcc:	4611                	li	a2,4
80004dce:	00c70863          	beq	a4,a2,80004dde <__divdf3+0x4de>
/home/xl_ci/toolchain/riscv-gnu-toolchain/riscv-gcc/libgcc/soft-fp/divdf3.c:47 (discriminator 78)
80004dd2:	00478713          	addi	a4,a5,4 # ff000004 <_sp+0x6eff0004>
80004dd6:	00f737b3          	sltu	a5,a4,a5
80004dda:	953e                	add	a0,a0,a5
80004ddc:	87ba                	mv	a5,a4
/home/xl_ci/toolchain/riscv-gnu-toolchain/riscv-gcc/libgcc/soft-fp/divdf3.c:47 (discriminator 77)
80004dde:	00800737          	lui	a4,0x800
80004de2:	8f69                	and	a4,a4,a0
80004de4:	e739                	bnez	a4,80004e32 <__divdf3+0x532>
/home/xl_ci/toolchain/riscv-gnu-toolchain/riscv-gcc/libgcc/soft-fp/divdf3.c:47 (discriminator 93)
80004de6:	01d51713          	slli	a4,a0,0x1d
80004dea:	838d                	srli	a5,a5,0x3
80004dec:	8f5d                	or	a4,a4,a5
80004dee:	810d                	srli	a0,a0,0x3
/home/xl_ci/toolchain/riscv-gnu-toolchain/riscv-gcc/libgcc/soft-fp/divdf3.c:47
80004df0:	4781                	li	a5,0
80004df2:	bf25                	j	80004d2a <__divdf3+0x42a>
/home/xl_ci/toolchain/riscv-gnu-toolchain/riscv-gcc/libgcc/soft-fp/divdf3.c:47 (discriminator 63)
80004df4:	5705                	li	a4,-31
80004df6:	40f707b3          	sub	a5,a4,a5
80004dfa:	02000613          	li	a2,32
80004dfe:	00f4d7b3          	srl	a5,s1,a5
80004e02:	4701                	li	a4,0
80004e04:	00c50663          	beq	a0,a2,80004e10 <__divdf3+0x510>
/home/xl_ci/toolchain/riscv-gnu-toolchain/riscv-gcc/libgcc/soft-fp/divdf3.c:47 (discriminator 71)
80004e08:	43e58713          	addi	a4,a1,1086
80004e0c:	00e49733          	sll	a4,s1,a4
/home/xl_ci/toolchain/riscv-gnu-toolchain/riscv-gcc/libgcc/soft-fp/divdf3.c:47 (discriminator 74)
80004e10:	01f76733          	or	a4,a4,t6
80004e14:	00e03733          	snez	a4,a4
80004e18:	8fd9                	or	a5,a5,a4
80004e1a:	4501                	li	a0,0
80004e1c:	b75d                	j	80004dc2 <__divdf3+0x4c2>
/home/xl_ci/toolchain/riscv-gnu-toolchain/riscv-gcc/libgcc/soft-fp/divdf3.c:47
80004e1e:	00080537          	lui	a0,0x80
80004e22:	4701                	li	a4,0
80004e24:	7ff00793          	li	a5,2047
80004e28:	4681                	li	a3,0
80004e2a:	b701                	j	80004d2a <__divdf3+0x42a>
80004e2c:	4501                	li	a0,0
80004e2e:	4701                	li	a4,0
80004e30:	b7c1                	j	80004df0 <__divdf3+0x4f0>
80004e32:	4501                	li	a0,0
80004e34:	4701                	li	a4,0
80004e36:	4785                	li	a5,1
80004e38:	bdcd                	j	80004d2a <__divdf3+0x42a>
/home/xl_ci/toolchain/riscv-gnu-toolchain/riscv-gcc/libgcc/soft-fp/divdf3.c:46
80004e3a:	867e                	mv	a2,t6
80004e3c:	8fb2                	mv	t6,a2
80004e3e:	bd61                	j	80004cd6 <__divdf3+0x3d6>

80004e40 <__eqdf2>:
__eqdf2():
/home/xl_ci/toolchain/riscv-gnu-toolchain/riscv-gcc/libgcc/soft-fp/eqdf2.c:43
80004e40:	0145d713          	srli	a4,a1,0x14
80004e44:	001007b7          	lui	a5,0x100
80004e48:	17fd                	addi	a5,a5,-1
/home/xl_ci/toolchain/riscv-gnu-toolchain/riscv-gcc/libgcc/soft-fp/eqdf2.c:44
80004e4a:	0146d813          	srli	a6,a3,0x14
/home/xl_ci/toolchain/riscv-gnu-toolchain/riscv-gcc/libgcc/soft-fp/eqdf2.c:36
80004e4e:	832a                	mv	t1,a0
80004e50:	8eaa                	mv	t4,a0
/home/xl_ci/toolchain/riscv-gnu-toolchain/riscv-gcc/libgcc/soft-fp/eqdf2.c:43
80004e52:	7ff77713          	andi	a4,a4,2047
/home/xl_ci/toolchain/riscv-gnu-toolchain/riscv-gcc/libgcc/soft-fp/eqdf2.c:45
80004e56:	7ff00513          	li	a0,2047
/home/xl_ci/toolchain/riscv-gnu-toolchain/riscv-gcc/libgcc/soft-fp/eqdf2.c:43
80004e5a:	00b7f8b3          	and	a7,a5,a1
80004e5e:	8f32                	mv	t5,a2
/home/xl_ci/toolchain/riscv-gnu-toolchain/riscv-gcc/libgcc/soft-fp/eqdf2.c:44
80004e60:	8ff5                	and	a5,a5,a3
/home/xl_ci/toolchain/riscv-gnu-toolchain/riscv-gcc/libgcc/soft-fp/eqdf2.c:43
80004e62:	81fd                	srli	a1,a1,0x1f
/home/xl_ci/toolchain/riscv-gnu-toolchain/riscv-gcc/libgcc/soft-fp/eqdf2.c:44
80004e64:	7ff87813          	andi	a6,a6,2047
80004e68:	82fd                	srli	a3,a3,0x1f
/home/xl_ci/toolchain/riscv-gnu-toolchain/riscv-gcc/libgcc/soft-fp/eqdf2.c:45
80004e6a:	00a71a63          	bne	a4,a0,80004e7e <__eqdf2+0x3e>
/home/xl_ci/toolchain/riscv-gnu-toolchain/riscv-gcc/libgcc/soft-fp/eqdf2.c:45 (discriminator 20)
80004e6e:	0068ee33          	or	t3,a7,t1
80004e72:	4505                	li	a0,1
80004e74:	000e1463          	bnez	t3,80004e7c <__eqdf2+0x3c>
/home/xl_ci/toolchain/riscv-gnu-toolchain/riscv-gcc/libgcc/soft-fp/eqdf2.c:45
80004e78:	00e80563          	beq	a6,a4,80004e82 <__eqdf2+0x42>
/home/xl_ci/toolchain/riscv-gnu-toolchain/riscv-gcc/libgcc/soft-fp/eqdf2.c:49
80004e7c:	8082                	ret
/home/xl_ci/toolchain/riscv-gnu-toolchain/riscv-gcc/libgcc/soft-fp/eqdf2.c:45 (discriminator 23)
80004e7e:	00a81563          	bne	a6,a0,80004e88 <__eqdf2+0x48>
/home/xl_ci/toolchain/riscv-gnu-toolchain/riscv-gcc/libgcc/soft-fp/eqdf2.c:45 (discriminator 24)
80004e82:	8e5d                	or	a2,a2,a5
80004e84:	4505                	li	a0,1
80004e86:	fa7d                	bnez	a2,80004e7c <__eqdf2+0x3c>
/home/xl_ci/toolchain/riscv-gnu-toolchain/riscv-gcc/libgcc/soft-fp/eqdf2.c:45 (discriminator 78)
80004e88:	4505                	li	a0,1
80004e8a:	ff0719e3          	bne	a4,a6,80004e7c <__eqdf2+0x3c>
/home/xl_ci/toolchain/riscv-gnu-toolchain/riscv-gcc/libgcc/soft-fp/eqdf2.c:45 (discriminator 80)
80004e8e:	fef897e3          	bne	a7,a5,80004e7c <__eqdf2+0x3c>
/home/xl_ci/toolchain/riscv-gnu-toolchain/riscv-gcc/libgcc/soft-fp/eqdf2.c:45 (discriminator 82)
80004e92:	ffee95e3          	bne	t4,t5,80004e7c <__eqdf2+0x3c>
/home/xl_ci/toolchain/riscv-gnu-toolchain/riscv-gcc/libgcc/soft-fp/eqdf2.c:45 (discriminator 84)
80004e96:	00d58863          	beq	a1,a3,80004ea6 <__eqdf2+0x66>
/home/xl_ci/toolchain/riscv-gnu-toolchain/riscv-gcc/libgcc/soft-fp/eqdf2.c:45 (discriminator 85)
80004e9a:	f36d                	bnez	a4,80004e7c <__eqdf2+0x3c>
/home/xl_ci/toolchain/riscv-gnu-toolchain/riscv-gcc/libgcc/soft-fp/eqdf2.c:45 (discriminator 88)
80004e9c:	0068e533          	or	a0,a7,t1
80004ea0:	00a03533          	snez	a0,a0
80004ea4:	8082                	ret
/home/xl_ci/toolchain/riscv-gnu-toolchain/riscv-gcc/libgcc/soft-fp/eqdf2.c:45
80004ea6:	4501                	li	a0,0
80004ea8:	8082                	ret

80004eaa <__gedf2>:
__gedf2():
/home/xl_ci/toolchain/riscv-gnu-toolchain/riscv-gcc/libgcc/soft-fp/gedf2.c:43
80004eaa:	00100737          	lui	a4,0x100
80004eae:	177d                	addi	a4,a4,-1
80004eb0:	0145d813          	srli	a6,a1,0x14
80004eb4:	00b778b3          	and	a7,a4,a1
/home/xl_ci/toolchain/riscv-gnu-toolchain/riscv-gcc/libgcc/soft-fp/gedf2.c:36
80004eb8:	87aa                	mv	a5,a0
80004eba:	832a                	mv	t1,a0
/home/xl_ci/toolchain/riscv-gnu-toolchain/riscv-gcc/libgcc/soft-fp/gedf2.c:43
80004ebc:	7ff87813          	andi	a6,a6,2047
80004ec0:	01f5d513          	srli	a0,a1,0x1f
/home/xl_ci/toolchain/riscv-gnu-toolchain/riscv-gcc/libgcc/soft-fp/gedf2.c:45
80004ec4:	7ff00e93          	li	t4,2047
/home/xl_ci/toolchain/riscv-gnu-toolchain/riscv-gcc/libgcc/soft-fp/gedf2.c:44
80004ec8:	0146d593          	srli	a1,a3,0x14
80004ecc:	8f75                	and	a4,a4,a3
80004ece:	8e32                	mv	t3,a2
80004ed0:	7ff5f593          	andi	a1,a1,2047
80004ed4:	82fd                	srli	a3,a3,0x1f
/home/xl_ci/toolchain/riscv-gnu-toolchain/riscv-gcc/libgcc/soft-fp/gedf2.c:45
80004ed6:	01d81863          	bne	a6,t4,80004ee6 <__gedf2+0x3c>
/home/xl_ci/toolchain/riscv-gnu-toolchain/riscv-gcc/libgcc/soft-fp/gedf2.c:45 (discriminator 20)
80004eda:	00f8eeb3          	or	t4,a7,a5
80004ede:	060e8463          	beqz	t4,80004f46 <__gedf2+0x9c>
/home/xl_ci/toolchain/riscv-gnu-toolchain/riscv-gcc/libgcc/soft-fp/gedf2.c:45
80004ee2:	5579                	li	a0,-2
80004ee4:	8082                	ret
/home/xl_ci/toolchain/riscv-gnu-toolchain/riscv-gcc/libgcc/soft-fp/gedf2.c:45 (discriminator 23)
80004ee6:	01d59663          	bne	a1,t4,80004ef2 <__gedf2+0x48>
/home/xl_ci/toolchain/riscv-gnu-toolchain/riscv-gcc/libgcc/soft-fp/gedf2.c:45 (discriminator 24)
80004eea:	00c76eb3          	or	t4,a4,a2
80004eee:	fe0e9ae3          	bnez	t4,80004ee2 <__gedf2+0x38>
/home/xl_ci/toolchain/riscv-gnu-toolchain/riscv-gcc/libgcc/soft-fp/gedf2.c:45 (discriminator 62)
80004ef2:	04081c63          	bnez	a6,80004f4a <__gedf2+0xa0>
/home/xl_ci/toolchain/riscv-gnu-toolchain/riscv-gcc/libgcc/soft-fp/gedf2.c:45 (discriminator 63)
80004ef6:	00f8e7b3          	or	a5,a7,a5
80004efa:	0017b793          	seqz	a5,a5
80004efe:	e199                	bnez	a1,80004f04 <__gedf2+0x5a>
/home/xl_ci/toolchain/riscv-gnu-toolchain/riscv-gcc/libgcc/soft-fp/gedf2.c:45 (discriminator 69)
80004f00:	8e59                	or	a2,a2,a4
80004f02:	ce0d                	beqz	a2,80004f3c <__gedf2+0x92>
/home/xl_ci/toolchain/riscv-gnu-toolchain/riscv-gcc/libgcc/soft-fp/gedf2.c:45
80004f04:	eb81                	bnez	a5,80004f14 <__gedf2+0x6a>
80004f06:	00d51463          	bne	a0,a3,80004f0e <__gedf2+0x64>
/home/xl_ci/toolchain/riscv-gnu-toolchain/riscv-gcc/libgcc/soft-fp/gedf2.c:45 (discriminator 95)
80004f0a:	0105d963          	bge	a1,a6,80004f1c <__gedf2+0x72>
/home/xl_ci/toolchain/riscv-gnu-toolchain/riscv-gcc/libgcc/soft-fp/gedf2.c:45 (discriminator 119)
80004f0e:	c50d                	beqz	a0,80004f38 <__gedf2+0x8e>
/home/xl_ci/toolchain/riscv-gnu-toolchain/riscv-gcc/libgcc/soft-fp/gedf2.c:45
80004f10:	557d                	li	a0,-1
80004f12:	8082                	ret
/home/xl_ci/toolchain/riscv-gnu-toolchain/riscv-gcc/libgcc/soft-fp/gedf2.c:45 (discriminator 80)
80004f14:	557d                	li	a0,-1
80004f16:	c691                	beqz	a3,80004f22 <__gedf2+0x78>
/home/xl_ci/toolchain/riscv-gnu-toolchain/riscv-gcc/libgcc/soft-fp/gedf2.c:45
80004f18:	8536                	mv	a0,a3
80004f1a:	8082                	ret
/home/xl_ci/toolchain/riscv-gnu-toolchain/riscv-gcc/libgcc/soft-fp/gedf2.c:45 (discriminator 102)
80004f1c:	00b85463          	bge	a6,a1,80004f24 <__gedf2+0x7a>
/home/xl_ci/toolchain/riscv-gnu-toolchain/riscv-gcc/libgcc/soft-fp/gedf2.c:45 (discriminator 130)
80004f20:	d965                	beqz	a0,80004f10 <__gedf2+0x66>
/home/xl_ci/toolchain/riscv-gnu-toolchain/riscv-gcc/libgcc/soft-fp/gedf2.c:49
80004f22:	8082                	ret
/home/xl_ci/toolchain/riscv-gnu-toolchain/riscv-gcc/libgcc/soft-fp/gedf2.c:45 (discriminator 109)
80004f24:	ff1765e3          	bltu	a4,a7,80004f0e <__gedf2+0x64>
/home/xl_ci/toolchain/riscv-gnu-toolchain/riscv-gcc/libgcc/soft-fp/gedf2.c:45 (discriminator 116)
80004f28:	00e89c63          	bne	a7,a4,80004f40 <__gedf2+0x96>
/home/xl_ci/toolchain/riscv-gnu-toolchain/riscv-gcc/libgcc/soft-fp/gedf2.c:45 (discriminator 117)
80004f2c:	fe6e61e3          	bltu	t3,t1,80004f0e <__gedf2+0x64>
/home/xl_ci/toolchain/riscv-gnu-toolchain/riscv-gcc/libgcc/soft-fp/gedf2.c:45 (discriminator 128)
80004f30:	ffc368e3          	bltu	t1,t3,80004f20 <__gedf2+0x76>
/home/xl_ci/toolchain/riscv-gnu-toolchain/riscv-gcc/libgcc/soft-fp/gedf2.c:45
80004f34:	4501                	li	a0,0
80004f36:	8082                	ret
80004f38:	4505                	li	a0,1
80004f3a:	8082                	ret
80004f3c:	ffe5                	bnez	a5,80004f34 <__gedf2+0x8a>
80004f3e:	bfc1                	j	80004f0e <__gedf2+0x64>
80004f40:	fee8e0e3          	bltu	a7,a4,80004f20 <__gedf2+0x76>
80004f44:	bfc5                	j	80004f34 <__gedf2+0x8a>
80004f46:	fb0582e3          	beq	a1,a6,80004eea <__gedf2+0x40>
80004f4a:	fdd5                	bnez	a1,80004f06 <__gedf2+0x5c>
80004f4c:	4781                	li	a5,0
80004f4e:	bf4d                	j	80004f00 <__gedf2+0x56>

80004f50 <__ledf2>:
__ledf2():
/home/xl_ci/toolchain/riscv-gnu-toolchain/riscv-gcc/libgcc/soft-fp/ledf2.c:43
80004f50:	00100737          	lui	a4,0x100
80004f54:	177d                	addi	a4,a4,-1
80004f56:	0145d813          	srli	a6,a1,0x14
80004f5a:	00b778b3          	and	a7,a4,a1
/home/xl_ci/toolchain/riscv-gnu-toolchain/riscv-gcc/libgcc/soft-fp/ledf2.c:36
80004f5e:	87aa                	mv	a5,a0
80004f60:	832a                	mv	t1,a0
/home/xl_ci/toolchain/riscv-gnu-toolchain/riscv-gcc/libgcc/soft-fp/ledf2.c:43
80004f62:	7ff87813          	andi	a6,a6,2047
80004f66:	01f5d513          	srli	a0,a1,0x1f
/home/xl_ci/toolchain/riscv-gnu-toolchain/riscv-gcc/libgcc/soft-fp/ledf2.c:45
80004f6a:	7ff00e93          	li	t4,2047
/home/xl_ci/toolchain/riscv-gnu-toolchain/riscv-gcc/libgcc/soft-fp/ledf2.c:44
80004f6e:	0146d593          	srli	a1,a3,0x14
80004f72:	8f75                	and	a4,a4,a3
80004f74:	8e32                	mv	t3,a2
80004f76:	7ff5f593          	andi	a1,a1,2047
80004f7a:	82fd                	srli	a3,a3,0x1f
/home/xl_ci/toolchain/riscv-gnu-toolchain/riscv-gcc/libgcc/soft-fp/ledf2.c:45
80004f7c:	01d81863          	bne	a6,t4,80004f8c <__ledf2+0x3c>
/home/xl_ci/toolchain/riscv-gnu-toolchain/riscv-gcc/libgcc/soft-fp/ledf2.c:45 (discriminator 20)
80004f80:	00f8eeb3          	or	t4,a7,a5
80004f84:	060e8463          	beqz	t4,80004fec <__ledf2+0x9c>
/home/xl_ci/toolchain/riscv-gnu-toolchain/riscv-gcc/libgcc/soft-fp/ledf2.c:45
80004f88:	4509                	li	a0,2
80004f8a:	8082                	ret
/home/xl_ci/toolchain/riscv-gnu-toolchain/riscv-gcc/libgcc/soft-fp/ledf2.c:45 (discriminator 23)
80004f8c:	01d59663          	bne	a1,t4,80004f98 <__ledf2+0x48>
/home/xl_ci/toolchain/riscv-gnu-toolchain/riscv-gcc/libgcc/soft-fp/ledf2.c:45 (discriminator 24)
80004f90:	00c76eb3          	or	t4,a4,a2
80004f94:	fe0e9ae3          	bnez	t4,80004f88 <__ledf2+0x38>
/home/xl_ci/toolchain/riscv-gnu-toolchain/riscv-gcc/libgcc/soft-fp/ledf2.c:45 (discriminator 62)
80004f98:	04081c63          	bnez	a6,80004ff0 <__ledf2+0xa0>
/home/xl_ci/toolchain/riscv-gnu-toolchain/riscv-gcc/libgcc/soft-fp/ledf2.c:45 (discriminator 63)
80004f9c:	00f8e7b3          	or	a5,a7,a5
80004fa0:	0017b793          	seqz	a5,a5
80004fa4:	e199                	bnez	a1,80004faa <__ledf2+0x5a>
/home/xl_ci/toolchain/riscv-gnu-toolchain/riscv-gcc/libgcc/soft-fp/ledf2.c:45 (discriminator 69)
80004fa6:	8e59                	or	a2,a2,a4
80004fa8:	ce0d                	beqz	a2,80004fe2 <__ledf2+0x92>
/home/xl_ci/toolchain/riscv-gnu-toolchain/riscv-gcc/libgcc/soft-fp/ledf2.c:45
80004faa:	eb81                	bnez	a5,80004fba <__ledf2+0x6a>
80004fac:	00d51463          	bne	a0,a3,80004fb4 <__ledf2+0x64>
/home/xl_ci/toolchain/riscv-gnu-toolchain/riscv-gcc/libgcc/soft-fp/ledf2.c:45 (discriminator 95)
80004fb0:	0105d963          	bge	a1,a6,80004fc2 <__ledf2+0x72>
/home/xl_ci/toolchain/riscv-gnu-toolchain/riscv-gcc/libgcc/soft-fp/ledf2.c:45 (discriminator 119)
80004fb4:	c50d                	beqz	a0,80004fde <__ledf2+0x8e>
/home/xl_ci/toolchain/riscv-gnu-toolchain/riscv-gcc/libgcc/soft-fp/ledf2.c:45
80004fb6:	557d                	li	a0,-1
80004fb8:	8082                	ret
/home/xl_ci/toolchain/riscv-gnu-toolchain/riscv-gcc/libgcc/soft-fp/ledf2.c:45 (discriminator 80)
80004fba:	557d                	li	a0,-1
80004fbc:	c691                	beqz	a3,80004fc8 <__ledf2+0x78>
/home/xl_ci/toolchain/riscv-gnu-toolchain/riscv-gcc/libgcc/soft-fp/ledf2.c:45
80004fbe:	8536                	mv	a0,a3
80004fc0:	8082                	ret
/home/xl_ci/toolchain/riscv-gnu-toolchain/riscv-gcc/libgcc/soft-fp/ledf2.c:45 (discriminator 102)
80004fc2:	00b85463          	bge	a6,a1,80004fca <__ledf2+0x7a>
/home/xl_ci/toolchain/riscv-gnu-toolchain/riscv-gcc/libgcc/soft-fp/ledf2.c:45 (discriminator 130)
80004fc6:	d965                	beqz	a0,80004fb6 <__ledf2+0x66>
/home/xl_ci/toolchain/riscv-gnu-toolchain/riscv-gcc/libgcc/soft-fp/ledf2.c:49
80004fc8:	8082                	ret
/home/xl_ci/toolchain/riscv-gnu-toolchain/riscv-gcc/libgcc/soft-fp/ledf2.c:45 (discriminator 109)
80004fca:	ff1765e3          	bltu	a4,a7,80004fb4 <__ledf2+0x64>
/home/xl_ci/toolchain/riscv-gnu-toolchain/riscv-gcc/libgcc/soft-fp/ledf2.c:45 (discriminator 116)
80004fce:	00e89c63          	bne	a7,a4,80004fe6 <__ledf2+0x96>
/home/xl_ci/toolchain/riscv-gnu-toolchain/riscv-gcc/libgcc/soft-fp/ledf2.c:45 (discriminator 117)
80004fd2:	fe6e61e3          	bltu	t3,t1,80004fb4 <__ledf2+0x64>
/home/xl_ci/toolchain/riscv-gnu-toolchain/riscv-gcc/libgcc/soft-fp/ledf2.c:45 (discriminator 128)
80004fd6:	ffc368e3          	bltu	t1,t3,80004fc6 <__ledf2+0x76>
/home/xl_ci/toolchain/riscv-gnu-toolchain/riscv-gcc/libgcc/soft-fp/ledf2.c:45
80004fda:	4501                	li	a0,0
80004fdc:	8082                	ret
80004fde:	4505                	li	a0,1
80004fe0:	8082                	ret
80004fe2:	ffe5                	bnez	a5,80004fda <__ledf2+0x8a>
80004fe4:	bfc1                	j	80004fb4 <__ledf2+0x64>
80004fe6:	fee8e0e3          	bltu	a7,a4,80004fc6 <__ledf2+0x76>
80004fea:	bfc5                	j	80004fda <__ledf2+0x8a>
80004fec:	fb0582e3          	beq	a1,a6,80004f90 <__ledf2+0x40>
80004ff0:	fdd5                	bnez	a1,80004fac <__ledf2+0x5c>
80004ff2:	4781                	li	a5,0
80004ff4:	bf4d                	j	80004fa6 <__ledf2+0x56>

80004ff6 <__muldf3>:
__muldf3():
/home/xl_ci/toolchain/riscv-gnu-toolchain/riscv-gcc/libgcc/soft-fp/muldf3.c:36
80004ff6:	7179                	addi	sp,sp,-48
80004ff8:	ce4e                	sw	s3,28(sp)
/home/xl_ci/toolchain/riscv-gnu-toolchain/riscv-gcc/libgcc/soft-fp/muldf3.c:44
80004ffa:	0145d993          	srli	s3,a1,0x14
/home/xl_ci/toolchain/riscv-gnu-toolchain/riscv-gcc/libgcc/soft-fp/muldf3.c:36
80004ffe:	d422                	sw	s0,40(sp)
80005000:	d226                	sw	s1,36(sp)
80005002:	cc52                	sw	s4,24(sp)
80005004:	ca56                	sw	s5,20(sp)
80005006:	c65e                	sw	s7,12(sp)
/home/xl_ci/toolchain/riscv-gnu-toolchain/riscv-gcc/libgcc/soft-fp/muldf3.c:44
80005008:	00c59493          	slli	s1,a1,0xc
/home/xl_ci/toolchain/riscv-gnu-toolchain/riscv-gcc/libgcc/soft-fp/muldf3.c:36
8000500c:	d606                	sw	ra,44(sp)
8000500e:	d04a                	sw	s2,32(sp)
80005010:	c85a                	sw	s6,16(sp)
/home/xl_ci/toolchain/riscv-gnu-toolchain/riscv-gcc/libgcc/soft-fp/muldf3.c:44
80005012:	7ff9f993          	andi	s3,s3,2047
/home/xl_ci/toolchain/riscv-gnu-toolchain/riscv-gcc/libgcc/soft-fp/muldf3.c:36
80005016:	842a                	mv	s0,a0
80005018:	8bb2                	mv	s7,a2
8000501a:	8ab6                	mv	s5,a3
/home/xl_ci/toolchain/riscv-gnu-toolchain/riscv-gcc/libgcc/soft-fp/muldf3.c:44
8000501c:	80b1                	srli	s1,s1,0xc
8000501e:	01f5da13          	srli	s4,a1,0x1f
80005022:	08098163          	beqz	s3,800050a4 <__muldf3+0xae>
80005026:	7ff00793          	li	a5,2047
8000502a:	0cf98563          	beq	s3,a5,800050f4 <__muldf3+0xfe>
/home/xl_ci/toolchain/riscv-gnu-toolchain/riscv-gcc/libgcc/soft-fp/muldf3.c:44 (discriminator 1)
8000502e:	01d55793          	srli	a5,a0,0x1d
80005032:	048e                	slli	s1,s1,0x3
80005034:	8cdd                	or	s1,s1,a5
80005036:	008007b7          	lui	a5,0x800
8000503a:	8cdd                	or	s1,s1,a5
8000503c:	00351913          	slli	s2,a0,0x3
80005040:	c0198993          	addi	s3,s3,-1023
/home/xl_ci/toolchain/riscv-gnu-toolchain/riscv-gcc/libgcc/soft-fp/muldf3.c:44 (discriminator 41)
80005044:	4b01                	li	s6,0
/home/xl_ci/toolchain/riscv-gnu-toolchain/riscv-gcc/libgcc/soft-fp/muldf3.c:45 (discriminator 8)
80005046:	014ad513          	srli	a0,s5,0x14
8000504a:	00ca9413          	slli	s0,s5,0xc
8000504e:	7ff57513          	andi	a0,a0,2047
80005052:	8031                	srli	s0,s0,0xc
80005054:	01fada93          	srli	s5,s5,0x1f
80005058:	c161                	beqz	a0,80005118 <__muldf3+0x122>
/home/xl_ci/toolchain/riscv-gnu-toolchain/riscv-gcc/libgcc/soft-fp/muldf3.c:45
8000505a:	7ff00793          	li	a5,2047
8000505e:	10f50563          	beq	a0,a5,80005168 <__muldf3+0x172>
/home/xl_ci/toolchain/riscv-gnu-toolchain/riscv-gcc/libgcc/soft-fp/muldf3.c:45 (discriminator 1)
80005062:	01dbd793          	srli	a5,s7,0x1d
80005066:	040e                	slli	s0,s0,0x3
80005068:	8c5d                	or	s0,s0,a5
8000506a:	008007b7          	lui	a5,0x800
8000506e:	8c5d                	or	s0,s0,a5
80005070:	c0150513          	addi	a0,a0,-1023 # 7fc01 <__stack_size+0x7f401>
80005074:	003b9793          	slli	a5,s7,0x3
/home/xl_ci/toolchain/riscv-gnu-toolchain/riscv-gcc/libgcc/soft-fp/muldf3.c:45 (discriminator 41)
80005078:	4701                	li	a4,0
/home/xl_ci/toolchain/riscv-gnu-toolchain/riscv-gcc/libgcc/soft-fp/muldf3.c:46 (discriminator 8)
8000507a:	002b1693          	slli	a3,s6,0x2
8000507e:	8ed9                	or	a3,a3,a4
80005080:	954e                	add	a0,a0,s3
80005082:	16fd                	addi	a3,a3,-1
80005084:	4839                	li	a6,14
80005086:	015a4633          	xor	a2,s4,s5
8000508a:	00150593          	addi	a1,a0,1
8000508e:	0ed86e63          	bltu	a6,a3,8000518a <__muldf3+0x194>
80005092:	00001517          	auipc	a0,0x1
80005096:	3e650513          	addi	a0,a0,998 # 80006478 <_ctype_+0x140>
8000509a:	068a                	slli	a3,a3,0x2
8000509c:	96aa                	add	a3,a3,a0
8000509e:	4294                	lw	a3,0(a3)
800050a0:	96aa                	add	a3,a3,a0
800050a2:	8682                	jr	a3
/home/xl_ci/toolchain/riscv-gnu-toolchain/riscv-gcc/libgcc/soft-fp/muldf3.c:44 (discriminator 2)
800050a4:	00a4e933          	or	s2,s1,a0
800050a8:	04090f63          	beqz	s2,80005106 <__muldf3+0x110>
/home/xl_ci/toolchain/riscv-gnu-toolchain/riscv-gcc/libgcc/soft-fp/muldf3.c:44 (discriminator 13)
800050ac:	c88d                	beqz	s1,800050de <__muldf3+0xe8>
/home/xl_ci/toolchain/riscv-gnu-toolchain/riscv-gcc/libgcc/soft-fp/muldf3.c:44 (discriminator 17)
800050ae:	8526                	mv	a0,s1
800050b0:	52f000ef          	jal	ra,80005dde <__clzsi2>
/home/xl_ci/toolchain/riscv-gnu-toolchain/riscv-gcc/libgcc/soft-fp/muldf3.c:44 (discriminator 31)
800050b4:	ff550713          	addi	a4,a0,-11
800050b8:	47f1                	li	a5,28
800050ba:	02e7c763          	blt	a5,a4,800050e8 <__muldf3+0xf2>
/home/xl_ci/toolchain/riscv-gnu-toolchain/riscv-gcc/libgcc/soft-fp/muldf3.c:44 (discriminator 32)
800050be:	47f5                	li	a5,29
800050c0:	ff850913          	addi	s2,a0,-8
800050c4:	8f99                	sub	a5,a5,a4
800050c6:	012494b3          	sll	s1,s1,s2
800050ca:	00f457b3          	srl	a5,s0,a5
800050ce:	8cdd                	or	s1,s1,a5
800050d0:	01241933          	sll	s2,s0,s2
/home/xl_ci/toolchain/riscv-gnu-toolchain/riscv-gcc/libgcc/soft-fp/muldf3.c:44 (discriminator 41)
800050d4:	c0d00993          	li	s3,-1011
800050d8:	40a989b3          	sub	s3,s3,a0
800050dc:	b7a5                	j	80005044 <__muldf3+0x4e>
/home/xl_ci/toolchain/riscv-gnu-toolchain/riscv-gcc/libgcc/soft-fp/muldf3.c:44 (discriminator 24)
800050de:	501000ef          	jal	ra,80005dde <__clzsi2>
800050e2:	02050513          	addi	a0,a0,32
800050e6:	b7f9                	j	800050b4 <__muldf3+0xbe>
/home/xl_ci/toolchain/riscv-gnu-toolchain/riscv-gcc/libgcc/soft-fp/muldf3.c:44 (discriminator 33)
800050e8:	fd850493          	addi	s1,a0,-40
800050ec:	009414b3          	sll	s1,s0,s1
800050f0:	4901                	li	s2,0
800050f2:	b7cd                	j	800050d4 <__muldf3+0xde>
/home/xl_ci/toolchain/riscv-gnu-toolchain/riscv-gcc/libgcc/soft-fp/muldf3.c:44 (discriminator 3)
800050f4:	00a4e933          	or	s2,s1,a0
800050f8:	00090b63          	beqz	s2,8000510e <__muldf3+0x118>
/home/xl_ci/toolchain/riscv-gnu-toolchain/riscv-gcc/libgcc/soft-fp/muldf3.c:44
800050fc:	892a                	mv	s2,a0
800050fe:	7ff00993          	li	s3,2047
80005102:	4b0d                	li	s6,3
80005104:	b789                	j	80005046 <__muldf3+0x50>
80005106:	4481                	li	s1,0
80005108:	4981                	li	s3,0
8000510a:	4b05                	li	s6,1
8000510c:	bf2d                	j	80005046 <__muldf3+0x50>
8000510e:	4481                	li	s1,0
80005110:	7ff00993          	li	s3,2047
80005114:	4b09                	li	s6,2
80005116:	bf05                	j	80005046 <__muldf3+0x50>
/home/xl_ci/toolchain/riscv-gnu-toolchain/riscv-gcc/libgcc/soft-fp/muldf3.c:45 (discriminator 2)
80005118:	017467b3          	or	a5,s0,s7
8000511c:	cfb1                	beqz	a5,80005178 <__muldf3+0x182>
/home/xl_ci/toolchain/riscv-gnu-toolchain/riscv-gcc/libgcc/soft-fp/muldf3.c:45 (discriminator 13)
8000511e:	c80d                	beqz	s0,80005150 <__muldf3+0x15a>
/home/xl_ci/toolchain/riscv-gnu-toolchain/riscv-gcc/libgcc/soft-fp/muldf3.c:45 (discriminator 17)
80005120:	8522                	mv	a0,s0
80005122:	4bd000ef          	jal	ra,80005dde <__clzsi2>
/home/xl_ci/toolchain/riscv-gnu-toolchain/riscv-gcc/libgcc/soft-fp/muldf3.c:45 (discriminator 31)
80005126:	ff550693          	addi	a3,a0,-11
8000512a:	47f1                	li	a5,28
8000512c:	02d7c863          	blt	a5,a3,8000515c <__muldf3+0x166>
/home/xl_ci/toolchain/riscv-gnu-toolchain/riscv-gcc/libgcc/soft-fp/muldf3.c:45 (discriminator 32)
80005130:	4775                	li	a4,29
80005132:	ff850793          	addi	a5,a0,-8
80005136:	8f15                	sub	a4,a4,a3
80005138:	00f41433          	sll	s0,s0,a5
8000513c:	00ebd733          	srl	a4,s7,a4
80005140:	8c59                	or	s0,s0,a4
80005142:	00fb97b3          	sll	a5,s7,a5
/home/xl_ci/toolchain/riscv-gnu-toolchain/riscv-gcc/libgcc/soft-fp/muldf3.c:45 (discriminator 41)
80005146:	c0d00713          	li	a4,-1011
8000514a:	40a70533          	sub	a0,a4,a0
8000514e:	b72d                	j	80005078 <__muldf3+0x82>
/home/xl_ci/toolchain/riscv-gnu-toolchain/riscv-gcc/libgcc/soft-fp/muldf3.c:45 (discriminator 24)
80005150:	855e                	mv	a0,s7
80005152:	48d000ef          	jal	ra,80005dde <__clzsi2>
80005156:	02050513          	addi	a0,a0,32
8000515a:	b7f1                	j	80005126 <__muldf3+0x130>
/home/xl_ci/toolchain/riscv-gnu-toolchain/riscv-gcc/libgcc/soft-fp/muldf3.c:45 (discriminator 33)
8000515c:	fd850413          	addi	s0,a0,-40
80005160:	008b9433          	sll	s0,s7,s0
80005164:	4781                	li	a5,0
80005166:	b7c5                	j	80005146 <__muldf3+0x150>
/home/xl_ci/toolchain/riscv-gnu-toolchain/riscv-gcc/libgcc/soft-fp/muldf3.c:45 (discriminator 3)
80005168:	017467b3          	or	a5,s0,s7
8000516c:	cb91                	beqz	a5,80005180 <__muldf3+0x18a>
/home/xl_ci/toolchain/riscv-gnu-toolchain/riscv-gcc/libgcc/soft-fp/muldf3.c:45
8000516e:	87de                	mv	a5,s7
80005170:	7ff00513          	li	a0,2047
80005174:	470d                	li	a4,3
80005176:	b711                	j	8000507a <__muldf3+0x84>
80005178:	4401                	li	s0,0
8000517a:	4501                	li	a0,0
8000517c:	4705                	li	a4,1
8000517e:	bdf5                	j	8000507a <__muldf3+0x84>
80005180:	4401                	li	s0,0
80005182:	7ff00513          	li	a0,2047
80005186:	4709                	li	a4,2
80005188:	bdcd                	j	8000507a <__muldf3+0x84>
/home/xl_ci/toolchain/riscv-gnu-toolchain/riscv-gcc/libgcc/soft-fp/muldf3.c:46 (discriminator 2)
8000518a:	6f41                	lui	t5,0x10
8000518c:	ffff0e93          	addi	t4,t5,-1 # ffff <__stack_size+0xf7ff>
80005190:	01095713          	srli	a4,s2,0x10
80005194:	0107d893          	srli	a7,a5,0x10
80005198:	01d97933          	and	s2,s2,t4
8000519c:	01d7f7b3          	and	a5,a5,t4
800051a0:	03288833          	mul	a6,a7,s2
800051a4:	02f906b3          	mul	a3,s2,a5
800051a8:	02f70fb3          	mul	t6,a4,a5
800051ac:	01f80333          	add	t1,a6,t6
800051b0:	0106d813          	srli	a6,a3,0x10
800051b4:	981a                	add	a6,a6,t1
800051b6:	03170e33          	mul	t3,a4,a7
800051ba:	01f87363          	bgeu	a6,t6,800051c0 <__muldf3+0x1ca>
/home/xl_ci/toolchain/riscv-gnu-toolchain/riscv-gcc/libgcc/soft-fp/muldf3.c:46 (discriminator 9)
800051be:	9e7a                	add	t3,t3,t5
/home/xl_ci/toolchain/riscv-gnu-toolchain/riscv-gcc/libgcc/soft-fp/muldf3.c:46 (discriminator 11)
800051c0:	01085393          	srli	t2,a6,0x10
800051c4:	01d87833          	and	a6,a6,t4
800051c8:	01d6f6b3          	and	a3,a3,t4
800051cc:	01045f13          	srli	t5,s0,0x10
800051d0:	01d472b3          	and	t0,s0,t4
800051d4:	0842                	slli	a6,a6,0x10
800051d6:	9836                	add	a6,a6,a3
800051d8:	02570eb3          	mul	t4,a4,t0
800051dc:	025906b3          	mul	a3,s2,t0
800051e0:	032f0933          	mul	s2,t5,s2
800051e4:	01d90333          	add	t1,s2,t4
800051e8:	0106d913          	srli	s2,a3,0x10
800051ec:	991a                	add	s2,s2,t1
800051ee:	03e70733          	mul	a4,a4,t5
800051f2:	01d97463          	bgeu	s2,t4,800051fa <__muldf3+0x204>
/home/xl_ci/toolchain/riscv-gnu-toolchain/riscv-gcc/libgcc/soft-fp/muldf3.c:46 (discriminator 12)
800051f6:	6341                	lui	t1,0x10
800051f8:	971a                	add	a4,a4,t1
/home/xl_ci/toolchain/riscv-gnu-toolchain/riscv-gcc/libgcc/soft-fp/muldf3.c:46 (discriminator 14)
800051fa:	01095e93          	srli	t4,s2,0x10
800051fe:	69c1                	lui	s3,0x10
80005200:	9eba                	add	t4,t4,a4
80005202:	fff98713          	addi	a4,s3,-1 # ffff <__stack_size+0xf7ff>
80005206:	00e97933          	and	s2,s2,a4
8000520a:	8ef9                	and	a3,a3,a4
8000520c:	0104d413          	srli	s0,s1,0x10
80005210:	0942                	slli	s2,s2,0x10
80005212:	8cf9                	and	s1,s1,a4
80005214:	02978733          	mul	a4,a5,s1
80005218:	9936                	add	s2,s2,a3
8000521a:	93ca                	add	t2,t2,s2
8000521c:	02f40333          	mul	t1,s0,a5
80005220:	029886b3          	mul	a3,a7,s1
80005224:	028887b3          	mul	a5,a7,s0
80005228:	006688b3          	add	a7,a3,t1
8000522c:	01075693          	srli	a3,a4,0x10
80005230:	96c6                	add	a3,a3,a7
80005232:	0066f363          	bgeu	a3,t1,80005238 <__muldf3+0x242>
/home/xl_ci/toolchain/riscv-gnu-toolchain/riscv-gcc/libgcc/soft-fp/muldf3.c:46 (discriminator 15)
80005236:	97ce                	add	a5,a5,s3
/home/xl_ci/toolchain/riscv-gnu-toolchain/riscv-gcc/libgcc/soft-fp/muldf3.c:46 (discriminator 17)
80005238:	0106d893          	srli	a7,a3,0x10
8000523c:	69c1                	lui	s3,0x10
8000523e:	00f88fb3          	add	t6,a7,a5
80005242:	fff98793          	addi	a5,s3,-1 # ffff <__stack_size+0xf7ff>
80005246:	029288b3          	mul	a7,t0,s1
8000524a:	8efd                	and	a3,a3,a5
8000524c:	8f7d                	and	a4,a4,a5
8000524e:	06c2                	slli	a3,a3,0x10
80005250:	96ba                	add	a3,a3,a4
80005252:	025407b3          	mul	a5,s0,t0
80005256:	029f04b3          	mul	s1,t5,s1
8000525a:	028f0333          	mul	t1,t5,s0
8000525e:	94be                	add	s1,s1,a5
80005260:	0108d413          	srli	s0,a7,0x10
80005264:	94a2                	add	s1,s1,s0
80005266:	00f4f363          	bgeu	s1,a5,8000526c <__muldf3+0x276>
/home/xl_ci/toolchain/riscv-gnu-toolchain/riscv-gcc/libgcc/soft-fp/muldf3.c:46 (discriminator 18)
8000526a:	934e                	add	t1,t1,s3
/home/xl_ci/toolchain/riscv-gnu-toolchain/riscv-gcc/libgcc/soft-fp/muldf3.c:46 (discriminator 20)
8000526c:	67c1                	lui	a5,0x10
8000526e:	17fd                	addi	a5,a5,-1
80005270:	00f4f733          	and	a4,s1,a5
80005274:	00f8f8b3          	and	a7,a7,a5
80005278:	0742                	slli	a4,a4,0x10
8000527a:	9e1e                	add	t3,t3,t2
8000527c:	9746                	add	a4,a4,a7
8000527e:	012e3933          	sltu	s2,t3,s2
80005282:	9776                	add	a4,a4,t4
80005284:	01270433          	add	s0,a4,s2
80005288:	9e36                	add	t3,t3,a3
8000528a:	00de36b3          	sltu	a3,t3,a3
8000528e:	01f408b3          	add	a7,s0,t6
80005292:	00d88f33          	add	t5,a7,a3
80005296:	01d73733          	sltu	a4,a4,t4
8000529a:	01243433          	sltu	s0,s0,s2
8000529e:	8c59                	or	s0,s0,a4
800052a0:	80c1                	srli	s1,s1,0x10
800052a2:	01f8b8b3          	sltu	a7,a7,t6
800052a6:	00df36b3          	sltu	a3,t5,a3
800052aa:	9426                	add	s0,s0,s1
800052ac:	00d8e6b3          	or	a3,a7,a3
800052b0:	9436                	add	s0,s0,a3
800052b2:	941a                	add	s0,s0,t1
800052b4:	017f5793          	srli	a5,t5,0x17
800052b8:	0426                	slli	s0,s0,0x9
800052ba:	8c5d                	or	s0,s0,a5
800052bc:	009e1793          	slli	a5,t3,0x9
800052c0:	0107e7b3          	or	a5,a5,a6
800052c4:	00f037b3          	snez	a5,a5
800052c8:	017e5e13          	srli	t3,t3,0x17
800052cc:	009f1713          	slli	a4,t5,0x9
800052d0:	01c7e7b3          	or	a5,a5,t3
800052d4:	8fd9                	or	a5,a5,a4
800052d6:	01000737          	lui	a4,0x1000
800052da:	8f61                	and	a4,a4,s0
800052dc:	cb4d                	beqz	a4,8000538e <__muldf3+0x398>
/home/xl_ci/toolchain/riscv-gnu-toolchain/riscv-gcc/libgcc/soft-fp/muldf3.c:46 (discriminator 38)
800052de:	0017d713          	srli	a4,a5,0x1
800052e2:	8b85                	andi	a5,a5,1
800052e4:	8fd9                	or	a5,a5,a4
800052e6:	01f41713          	slli	a4,s0,0x1f
800052ea:	8fd9                	or	a5,a5,a4
800052ec:	8005                	srli	s0,s0,0x1
/home/xl_ci/toolchain/riscv-gnu-toolchain/riscv-gcc/libgcc/soft-fp/muldf3.c:47 (discriminator 2)
800052ee:	3ff58693          	addi	a3,a1,1023
800052f2:	0ad05063          	blez	a3,80005392 <__muldf3+0x39c>
/home/xl_ci/toolchain/riscv-gnu-toolchain/riscv-gcc/libgcc/soft-fp/muldf3.c:47 (discriminator 6)
800052f6:	0077f713          	andi	a4,a5,7
800052fa:	cf01                	beqz	a4,80005312 <__muldf3+0x31c>
/home/xl_ci/toolchain/riscv-gnu-toolchain/riscv-gcc/libgcc/soft-fp/muldf3.c:47 (discriminator 8)
800052fc:	00f7f713          	andi	a4,a5,15
80005300:	4511                	li	a0,4
80005302:	00a70863          	beq	a4,a0,80005312 <__muldf3+0x31c>
/home/xl_ci/toolchain/riscv-gnu-toolchain/riscv-gcc/libgcc/soft-fp/muldf3.c:47 (discriminator 10)
80005306:	00478713          	addi	a4,a5,4 # 10004 <__stack_size+0xf804>
8000530a:	00f737b3          	sltu	a5,a4,a5
8000530e:	943e                	add	s0,s0,a5
80005310:	87ba                	mv	a5,a4
/home/xl_ci/toolchain/riscv-gnu-toolchain/riscv-gcc/libgcc/soft-fp/muldf3.c:47 (discriminator 9)
80005312:	01000737          	lui	a4,0x1000
80005316:	8f61                	and	a4,a4,s0
80005318:	c719                	beqz	a4,80005326 <__muldf3+0x330>
/home/xl_ci/toolchain/riscv-gnu-toolchain/riscv-gcc/libgcc/soft-fp/muldf3.c:47 (discriminator 24)
8000531a:	ff000737          	lui	a4,0xff000
8000531e:	177d                	addi	a4,a4,-1
80005320:	8c79                	and	s0,s0,a4
80005322:	40058693          	addi	a3,a1,1024
/home/xl_ci/toolchain/riscv-gnu-toolchain/riscv-gcc/libgcc/soft-fp/muldf3.c:47 (discriminator 26)
80005326:	7fe00713          	li	a4,2046
8000532a:	0ed74e63          	blt	a4,a3,80005426 <__muldf3+0x430>
/home/xl_ci/toolchain/riscv-gnu-toolchain/riscv-gcc/libgcc/soft-fp/muldf3.c:47
8000532e:	0037d713          	srli	a4,a5,0x3
80005332:	01d41793          	slli	a5,s0,0x1d
80005336:	8fd9                	or	a5,a5,a4
80005338:	800d                	srli	s0,s0,0x3
/home/xl_ci/toolchain/riscv-gnu-toolchain/riscv-gcc/libgcc/soft-fp/muldf3.c:47 (discriminator 119)
8000533a:	01469713          	slli	a4,a3,0x14
8000533e:	0432                	slli	s0,s0,0xc
80005340:	7ff006b7          	lui	a3,0x7ff00
80005344:	8f75                	and	a4,a4,a3
80005346:	8031                	srli	s0,s0,0xc
80005348:	8c59                	or	s0,s0,a4
8000534a:	067e                	slli	a2,a2,0x1f
/home/xl_ci/toolchain/riscv-gnu-toolchain/riscv-gcc/libgcc/soft-fp/muldf3.c:51 (discriminator 119)
8000534c:	50b2                	lw	ra,44(sp)
/home/xl_ci/toolchain/riscv-gnu-toolchain/riscv-gcc/libgcc/soft-fp/muldf3.c:47 (discriminator 119)
8000534e:	00c46733          	or	a4,s0,a2
/home/xl_ci/toolchain/riscv-gnu-toolchain/riscv-gcc/libgcc/soft-fp/muldf3.c:51 (discriminator 119)
80005352:	5422                	lw	s0,40(sp)
80005354:	5492                	lw	s1,36(sp)
80005356:	5902                	lw	s2,32(sp)
80005358:	49f2                	lw	s3,28(sp)
8000535a:	4a62                	lw	s4,24(sp)
8000535c:	4ad2                	lw	s5,20(sp)
8000535e:	4b42                	lw	s6,16(sp)
80005360:	4bb2                	lw	s7,12(sp)
80005362:	853e                	mv	a0,a5
80005364:	85ba                	mv	a1,a4
80005366:	6145                	addi	sp,sp,48
80005368:	8082                	ret
/home/xl_ci/toolchain/riscv-gnu-toolchain/riscv-gcc/libgcc/soft-fp/muldf3.c:44 (discriminator 7)
8000536a:	8652                	mv	a2,s4
/home/xl_ci/toolchain/riscv-gnu-toolchain/riscv-gcc/libgcc/soft-fp/muldf3.c:46 (discriminator 7)
8000536c:	8426                	mv	s0,s1
8000536e:	87ca                	mv	a5,s2
80005370:	875a                	mv	a4,s6
/home/xl_ci/toolchain/riscv-gnu-toolchain/riscv-gcc/libgcc/soft-fp/muldf3.c:47 (discriminator 47)
80005372:	4689                	li	a3,2
80005374:	0ad70963          	beq	a4,a3,80005426 <__muldf3+0x430>
/home/xl_ci/toolchain/riscv-gnu-toolchain/riscv-gcc/libgcc/soft-fp/muldf3.c:47
80005378:	468d                	li	a3,3
8000537a:	08d70f63          	beq	a4,a3,80005418 <__muldf3+0x422>
8000537e:	4685                	li	a3,1
80005380:	f6d717e3          	bne	a4,a3,800052ee <__muldf3+0x2f8>
80005384:	4401                	li	s0,0
80005386:	4781                	li	a5,0
80005388:	a09d                	j	800053ee <__muldf3+0x3f8>
/home/xl_ci/toolchain/riscv-gnu-toolchain/riscv-gcc/libgcc/soft-fp/muldf3.c:45 (discriminator 4)
8000538a:	8656                	mv	a2,s5
/home/xl_ci/toolchain/riscv-gnu-toolchain/riscv-gcc/libgcc/soft-fp/muldf3.c:46 (discriminator 4)
8000538c:	b7dd                	j	80005372 <__muldf3+0x37c>
/home/xl_ci/toolchain/riscv-gnu-toolchain/riscv-gcc/libgcc/soft-fp/muldf3.c:46
8000538e:	85aa                	mv	a1,a0
80005390:	bfb9                	j	800052ee <__muldf3+0x2f8>
/home/xl_ci/toolchain/riscv-gnu-toolchain/riscv-gcc/libgcc/soft-fp/muldf3.c:47 (discriminator 59)
80005392:	4505                	li	a0,1
80005394:	8d15                	sub	a0,a0,a3
80005396:	03800713          	li	a4,56
8000539a:	fea745e3          	blt	a4,a0,80005384 <__muldf3+0x38e>
/home/xl_ci/toolchain/riscv-gnu-toolchain/riscv-gcc/libgcc/soft-fp/muldf3.c:47 (discriminator 60)
8000539e:	477d                	li	a4,31
800053a0:	04a74963          	blt	a4,a0,800053f2 <__muldf3+0x3fc>
/home/xl_ci/toolchain/riscv-gnu-toolchain/riscv-gcc/libgcc/soft-fp/muldf3.c:47 (discriminator 62)
800053a4:	41e58593          	addi	a1,a1,1054
800053a8:	00b41733          	sll	a4,s0,a1
800053ac:	00a7d6b3          	srl	a3,a5,a0
800053b0:	00b797b3          	sll	a5,a5,a1
800053b4:	8f55                	or	a4,a4,a3
800053b6:	00f037b3          	snez	a5,a5
800053ba:	8fd9                	or	a5,a5,a4
800053bc:	00a45433          	srl	s0,s0,a0
/home/xl_ci/toolchain/riscv-gnu-toolchain/riscv-gcc/libgcc/soft-fp/muldf3.c:47 (discriminator 75)
800053c0:	0077f713          	andi	a4,a5,7
800053c4:	cf01                	beqz	a4,800053dc <__muldf3+0x3e6>
/home/xl_ci/toolchain/riscv-gnu-toolchain/riscv-gcc/libgcc/soft-fp/muldf3.c:47 (discriminator 76)
800053c6:	00f7f713          	andi	a4,a5,15
800053ca:	4691                	li	a3,4
800053cc:	00d70863          	beq	a4,a3,800053dc <__muldf3+0x3e6>
/home/xl_ci/toolchain/riscv-gnu-toolchain/riscv-gcc/libgcc/soft-fp/muldf3.c:47 (discriminator 78)
800053d0:	00478713          	addi	a4,a5,4
800053d4:	00f737b3          	sltu	a5,a4,a5
800053d8:	943e                	add	s0,s0,a5
800053da:	87ba                	mv	a5,a4
/home/xl_ci/toolchain/riscv-gnu-toolchain/riscv-gcc/libgcc/soft-fp/muldf3.c:47 (discriminator 77)
800053dc:	00800737          	lui	a4,0x800
800053e0:	8f61                	and	a4,a4,s0
800053e2:	e739                	bnez	a4,80005430 <__muldf3+0x43a>
/home/xl_ci/toolchain/riscv-gnu-toolchain/riscv-gcc/libgcc/soft-fp/muldf3.c:47 (discriminator 93)
800053e4:	01d41713          	slli	a4,s0,0x1d
800053e8:	838d                	srli	a5,a5,0x3
800053ea:	8fd9                	or	a5,a5,a4
800053ec:	800d                	srli	s0,s0,0x3
/home/xl_ci/toolchain/riscv-gnu-toolchain/riscv-gcc/libgcc/soft-fp/muldf3.c:47
800053ee:	4681                	li	a3,0
800053f0:	b7a9                	j	8000533a <__muldf3+0x344>
/home/xl_ci/toolchain/riscv-gnu-toolchain/riscv-gcc/libgcc/soft-fp/muldf3.c:47 (discriminator 63)
800053f2:	5705                	li	a4,-31
800053f4:	8f15                	sub	a4,a4,a3
800053f6:	02000813          	li	a6,32
800053fa:	00e45733          	srl	a4,s0,a4
800053fe:	4681                	li	a3,0
80005400:	01050663          	beq	a0,a6,8000540c <__muldf3+0x416>
/home/xl_ci/toolchain/riscv-gnu-toolchain/riscv-gcc/libgcc/soft-fp/muldf3.c:47 (discriminator 71)
80005404:	43e58593          	addi	a1,a1,1086
80005408:	00b416b3          	sll	a3,s0,a1
/home/xl_ci/toolchain/riscv-gnu-toolchain/riscv-gcc/libgcc/soft-fp/muldf3.c:47 (discriminator 74)
8000540c:	8fd5                	or	a5,a5,a3
8000540e:	00f037b3          	snez	a5,a5
80005412:	8fd9                	or	a5,a5,a4
80005414:	4401                	li	s0,0
80005416:	b76d                	j	800053c0 <__muldf3+0x3ca>
/home/xl_ci/toolchain/riscv-gnu-toolchain/riscv-gcc/libgcc/soft-fp/muldf3.c:47
80005418:	00080437          	lui	s0,0x80
8000541c:	4781                	li	a5,0
8000541e:	7ff00693          	li	a3,2047
80005422:	4601                	li	a2,0
80005424:	bf19                	j	8000533a <__muldf3+0x344>
80005426:	4401                	li	s0,0
80005428:	4781                	li	a5,0
8000542a:	7ff00693          	li	a3,2047
8000542e:	b731                	j	8000533a <__muldf3+0x344>
80005430:	4401                	li	s0,0
80005432:	4781                	li	a5,0
80005434:	4685                	li	a3,1
80005436:	b711                	j	8000533a <__muldf3+0x344>

80005438 <__subdf3>:
__subdf3():
/home/xl_ci/toolchain/riscv-gnu-toolchain/riscv-gcc/libgcc/soft-fp/subdf3.c:44
80005438:	00100837          	lui	a6,0x100
8000543c:	187d                	addi	a6,a6,-1
/home/xl_ci/toolchain/riscv-gnu-toolchain/riscv-gcc/libgcc/soft-fp/subdf3.c:36
8000543e:	1101                	addi	sp,sp,-32
/home/xl_ci/toolchain/riscv-gnu-toolchain/riscv-gcc/libgcc/soft-fp/subdf3.c:44
80005440:	00b877b3          	and	a5,a6,a1
80005444:	0145d713          	srli	a4,a1,0x14
/home/xl_ci/toolchain/riscv-gnu-toolchain/riscv-gcc/libgcc/soft-fp/subdf3.c:45
80005448:	00d87833          	and	a6,a6,a3
8000544c:	0146d313          	srli	t1,a3,0x14
/home/xl_ci/toolchain/riscv-gnu-toolchain/riscv-gcc/libgcc/soft-fp/subdf3.c:36
80005450:	cc22                	sw	s0,24(sp)
/home/xl_ci/toolchain/riscv-gnu-toolchain/riscv-gcc/libgcc/soft-fp/subdf3.c:44
80005452:	078e                	slli	a5,a5,0x3
80005454:	7ff77413          	andi	s0,a4,2047
80005458:	01d55713          	srli	a4,a0,0x1d
/home/xl_ci/toolchain/riscv-gnu-toolchain/riscv-gcc/libgcc/soft-fp/subdf3.c:36
8000545c:	ca26                	sw	s1,20(sp)
/home/xl_ci/toolchain/riscv-gnu-toolchain/riscv-gcc/libgcc/soft-fp/subdf3.c:44
8000545e:	8fd9                	or	a5,a5,a4
80005460:	01f5d493          	srli	s1,a1,0x1f
/home/xl_ci/toolchain/riscv-gnu-toolchain/riscv-gcc/libgcc/soft-fp/subdf3.c:45
80005464:	01d65713          	srli	a4,a2,0x1d
/home/xl_ci/toolchain/riscv-gnu-toolchain/riscv-gcc/libgcc/soft-fp/subdf3.c:44
80005468:	00351593          	slli	a1,a0,0x3
/home/xl_ci/toolchain/riscv-gnu-toolchain/riscv-gcc/libgcc/soft-fp/subdf3.c:45
8000546c:	080e                	slli	a6,a6,0x3
/home/xl_ci/toolchain/riscv-gnu-toolchain/riscv-gcc/libgcc/soft-fp/subdf3.c:36
8000546e:	ce06                	sw	ra,28(sp)
80005470:	c84a                	sw	s2,16(sp)
80005472:	c64e                	sw	s3,12(sp)
/home/xl_ci/toolchain/riscv-gnu-toolchain/riscv-gcc/libgcc/soft-fp/subdf3.c:45
80005474:	7ff37313          	andi	t1,t1,2047
/home/xl_ci/toolchain/riscv-gnu-toolchain/riscv-gcc/libgcc/soft-fp/subdf3.c:46
80005478:	7ff00513          	li	a0,2047
/home/xl_ci/toolchain/riscv-gnu-toolchain/riscv-gcc/libgcc/soft-fp/subdf3.c:45
8000547c:	82fd                	srli	a3,a3,0x1f
8000547e:	01076733          	or	a4,a4,a6
80005482:	060e                	slli	a2,a2,0x3
/home/xl_ci/toolchain/riscv-gnu-toolchain/riscv-gcc/libgcc/soft-fp/subdf3.c:46
80005484:	00a31563          	bne	t1,a0,8000548e <__subdf3+0x56>
/home/xl_ci/toolchain/riscv-gnu-toolchain/riscv-gcc/libgcc/soft-fp/subdf3.c:46 (discriminator 2)
80005488:	00c76533          	or	a0,a4,a2
8000548c:	e119                	bnez	a0,80005492 <__subdf3+0x5a>
/home/xl_ci/toolchain/riscv-gnu-toolchain/riscv-gcc/libgcc/soft-fp/subdf3.c:46 (discriminator 3)
8000548e:	0016c693          	xori	a3,a3,1
/home/xl_ci/toolchain/riscv-gnu-toolchain/riscv-gcc/libgcc/soft-fp/subdf3.c:46 (discriminator 11)
80005492:	40640833          	sub	a6,s0,t1
80005496:	22969863          	bne	a3,s1,800056c6 <__subdf3+0x28e>
/home/xl_ci/toolchain/riscv-gnu-toolchain/riscv-gcc/libgcc/soft-fp/subdf3.c:46 (discriminator 12)
8000549a:	0f005363          	blez	a6,80005580 <__subdf3+0x148>
/home/xl_ci/toolchain/riscv-gnu-toolchain/riscv-gcc/libgcc/soft-fp/subdf3.c:46 (discriminator 14)
8000549e:	02031863          	bnez	t1,800054ce <__subdf3+0x96>
/home/xl_ci/toolchain/riscv-gnu-toolchain/riscv-gcc/libgcc/soft-fp/subdf3.c:46 (discriminator 16)
800054a2:	00c766b3          	or	a3,a4,a2
800054a6:	58068163          	beqz	a3,80005a28 <__subdf3+0x5f0>
/home/xl_ci/toolchain/riscv-gnu-toolchain/riscv-gcc/libgcc/soft-fp/subdf3.c:46 (discriminator 19)
800054aa:	fff80513          	addi	a0,a6,-1 # fffff <__stack_size+0xff7ff>
800054ae:	e909                	bnez	a0,800054c0 <__subdf3+0x88>
/home/xl_ci/toolchain/riscv-gnu-toolchain/riscv-gcc/libgcc/soft-fp/subdf3.c:46 (discriminator 28)
800054b0:	962e                	add	a2,a2,a1
800054b2:	00b63533          	sltu	a0,a2,a1
800054b6:	97ba                	add	a5,a5,a4
800054b8:	97aa                	add	a5,a5,a0
800054ba:	85b2                	mv	a1,a2
/home/xl_ci/toolchain/riscv-gnu-toolchain/riscv-gcc/libgcc/soft-fp/subdf3.c:45 (discriminator 85)
800054bc:	4405                	li	s0,1
/home/xl_ci/toolchain/riscv-gnu-toolchain/riscv-gcc/libgcc/soft-fp/subdf3.c:46 (discriminator 85)
800054be:	a8b9                	j	8000551c <__subdf3+0xe4>
/home/xl_ci/toolchain/riscv-gnu-toolchain/riscv-gcc/libgcc/soft-fp/subdf3.c:46 (discriminator 29)
800054c0:	7ff00693          	li	a3,2047
800054c4:	00d81d63          	bne	a6,a3,800054de <__subdf3+0xa6>
/home/xl_ci/toolchain/riscv-gnu-toolchain/riscv-gcc/libgcc/soft-fp/subdf3.c:46
800054c8:	7ff00413          	li	s0,2047
800054cc:	a24d                	j	8000566e <__subdf3+0x236>
/home/xl_ci/toolchain/riscv-gnu-toolchain/riscv-gcc/libgcc/soft-fp/subdf3.c:46 (discriminator 17)
800054ce:	7ff00693          	li	a3,2047
800054d2:	18d40e63          	beq	s0,a3,8000566e <__subdf3+0x236>
/home/xl_ci/toolchain/riscv-gnu-toolchain/riscv-gcc/libgcc/soft-fp/subdf3.c:46 (discriminator 43)
800054d6:	008006b7          	lui	a3,0x800
800054da:	8f55                	or	a4,a4,a3
800054dc:	8542                	mv	a0,a6
/home/xl_ci/toolchain/riscv-gnu-toolchain/riscv-gcc/libgcc/soft-fp/subdf3.c:46 (discriminator 52)
800054de:	03800693          	li	a3,56
800054e2:	08a6cb63          	blt	a3,a0,80005578 <__subdf3+0x140>
/home/xl_ci/toolchain/riscv-gnu-toolchain/riscv-gcc/libgcc/soft-fp/subdf3.c:46 (discriminator 53)
800054e6:	46fd                	li	a3,31
800054e8:	06a6c263          	blt	a3,a0,8000554c <__subdf3+0x114>
/home/xl_ci/toolchain/riscv-gnu-toolchain/riscv-gcc/libgcc/soft-fp/subdf3.c:46 (discriminator 55)
800054ec:	02000813          	li	a6,32
800054f0:	40a80833          	sub	a6,a6,a0
800054f4:	010716b3          	sll	a3,a4,a6
800054f8:	00a658b3          	srl	a7,a2,a0
800054fc:	01061633          	sll	a2,a2,a6
80005500:	0116e6b3          	or	a3,a3,a7
80005504:	00c03633          	snez	a2,a2
80005508:	8e55                	or	a2,a2,a3
8000550a:	00a75733          	srl	a4,a4,a0
/home/xl_ci/toolchain/riscv-gnu-toolchain/riscv-gcc/libgcc/soft-fp/subdf3.c:46 (discriminator 69)
8000550e:	962e                	add	a2,a2,a1
80005510:	00b63533          	sltu	a0,a2,a1
80005514:	973e                	add	a4,a4,a5
80005516:	00a707b3          	add	a5,a4,a0
8000551a:	85b2                	mv	a1,a2
/home/xl_ci/toolchain/riscv-gnu-toolchain/riscv-gcc/libgcc/soft-fp/subdf3.c:46 (discriminator 127)
8000551c:	00800737          	lui	a4,0x800
80005520:	8f7d                	and	a4,a4,a5
80005522:	14070663          	beqz	a4,8000566e <__subdf3+0x236>
/home/xl_ci/toolchain/riscv-gnu-toolchain/riscv-gcc/libgcc/soft-fp/subdf3.c:46 (discriminator 187)
80005526:	0405                	addi	s0,s0,1
80005528:	7ff00713          	li	a4,2047
8000552c:	48e40b63          	beq	s0,a4,800059c2 <__subdf3+0x58a>
/home/xl_ci/toolchain/riscv-gnu-toolchain/riscv-gcc/libgcc/soft-fp/subdf3.c:46
80005530:	ff800737          	lui	a4,0xff800
80005534:	177d                	addi	a4,a4,-1
80005536:	8ff9                	and	a5,a5,a4
80005538:	0015f513          	andi	a0,a1,1
8000553c:	0015d713          	srli	a4,a1,0x1
80005540:	8d59                	or	a0,a0,a4
80005542:	01f79593          	slli	a1,a5,0x1f
80005546:	8dc9                	or	a1,a1,a0
80005548:	8385                	srli	a5,a5,0x1
8000554a:	a215                	j	8000566e <__subdf3+0x236>
/home/xl_ci/toolchain/riscv-gnu-toolchain/riscv-gcc/libgcc/soft-fp/subdf3.c:46 (discriminator 56)
8000554c:	fe050693          	addi	a3,a0,-32
80005550:	02000893          	li	a7,32
80005554:	00d756b3          	srl	a3,a4,a3
80005558:	4801                	li	a6,0
8000555a:	01150863          	beq	a0,a7,8000556a <__subdf3+0x132>
/home/xl_ci/toolchain/riscv-gnu-toolchain/riscv-gcc/libgcc/soft-fp/subdf3.c:46 (discriminator 63)
8000555e:	04000813          	li	a6,64
80005562:	40a80533          	sub	a0,a6,a0
80005566:	00a71833          	sll	a6,a4,a0
/home/xl_ci/toolchain/riscv-gnu-toolchain/riscv-gcc/libgcc/soft-fp/subdf3.c:46 (discriminator 66)
8000556a:	00c86633          	or	a2,a6,a2
8000556e:	00c03633          	snez	a2,a2
80005572:	8e55                	or	a2,a2,a3
/home/xl_ci/toolchain/riscv-gnu-toolchain/riscv-gcc/libgcc/soft-fp/subdf3.c:46 (discriminator 54)
80005574:	4701                	li	a4,0
80005576:	bf61                	j	8000550e <__subdf3+0xd6>
80005578:	8e59                	or	a2,a2,a4
8000557a:	00c03633          	snez	a2,a2
8000557e:	bfdd                	j	80005574 <__subdf3+0x13c>
/home/xl_ci/toolchain/riscv-gnu-toolchain/riscv-gcc/libgcc/soft-fp/subdf3.c:46 (discriminator 15)
80005580:	0a080b63          	beqz	a6,80005636 <__subdf3+0x1fe>
/home/xl_ci/toolchain/riscv-gnu-toolchain/riscv-gcc/libgcc/soft-fp/subdf3.c:46 (discriminator 71)
80005584:	40830533          	sub	a0,t1,s0
80005588:	e40d                	bnez	s0,800055b2 <__subdf3+0x17a>
/home/xl_ci/toolchain/riscv-gnu-toolchain/riscv-gcc/libgcc/soft-fp/subdf3.c:46 (discriminator 73)
8000558a:	00b7e6b3          	or	a3,a5,a1
8000558e:	42068163          	beqz	a3,800059b0 <__subdf3+0x578>
/home/xl_ci/toolchain/riscv-gnu-toolchain/riscv-gcc/libgcc/soft-fp/subdf3.c:46 (discriminator 76)
80005592:	fff50693          	addi	a3,a0,-1
80005596:	e699                	bnez	a3,800055a4 <__subdf3+0x16c>
/home/xl_ci/toolchain/riscv-gnu-toolchain/riscv-gcc/libgcc/soft-fp/subdf3.c:46 (discriminator 85)
80005598:	95b2                	add	a1,a1,a2
8000559a:	97ba                	add	a5,a5,a4
8000559c:	00c5b633          	sltu	a2,a1,a2
800055a0:	97b2                	add	a5,a5,a2
800055a2:	bf29                	j	800054bc <__subdf3+0x84>
/home/xl_ci/toolchain/riscv-gnu-toolchain/riscv-gcc/libgcc/soft-fp/subdf3.c:46 (discriminator 86)
800055a4:	7ff00813          	li	a6,2047
800055a8:	01051d63          	bne	a0,a6,800055c2 <__subdf3+0x18a>
/home/xl_ci/toolchain/riscv-gnu-toolchain/riscv-gcc/libgcc/soft-fp/subdf3.c:45
800055ac:	87ba                	mv	a5,a4
800055ae:	85b2                	mv	a1,a2
800055b0:	bf21                	j	800054c8 <__subdf3+0x90>
/home/xl_ci/toolchain/riscv-gnu-toolchain/riscv-gcc/libgcc/soft-fp/subdf3.c:46 (discriminator 74)
800055b2:	7ff00693          	li	a3,2047
800055b6:	fed30be3          	beq	t1,a3,800055ac <__subdf3+0x174>
/home/xl_ci/toolchain/riscv-gnu-toolchain/riscv-gcc/libgcc/soft-fp/subdf3.c:46 (discriminator 100)
800055ba:	008006b7          	lui	a3,0x800
800055be:	8fd5                	or	a5,a5,a3
800055c0:	86aa                	mv	a3,a0
/home/xl_ci/toolchain/riscv-gnu-toolchain/riscv-gcc/libgcc/soft-fp/subdf3.c:46 (discriminator 109)
800055c2:	03800513          	li	a0,56
800055c6:	06d54363          	blt	a0,a3,8000562c <__subdf3+0x1f4>
/home/xl_ci/toolchain/riscv-gnu-toolchain/riscv-gcc/libgcc/soft-fp/subdf3.c:46 (discriminator 110)
800055ca:	457d                	li	a0,31
800055cc:	02d54b63          	blt	a0,a3,80005602 <__subdf3+0x1ca>
/home/xl_ci/toolchain/riscv-gnu-toolchain/riscv-gcc/libgcc/soft-fp/subdf3.c:46 (discriminator 112)
800055d0:	02000813          	li	a6,32
800055d4:	40d80833          	sub	a6,a6,a3
800055d8:	01079533          	sll	a0,a5,a6
800055dc:	00d5d8b3          	srl	a7,a1,a3
800055e0:	010595b3          	sll	a1,a1,a6
800055e4:	01156533          	or	a0,a0,a7
800055e8:	00b035b3          	snez	a1,a1
800055ec:	8d4d                	or	a0,a0,a1
800055ee:	00d7d7b3          	srl	a5,a5,a3
/home/xl_ci/toolchain/riscv-gnu-toolchain/riscv-gcc/libgcc/soft-fp/subdf3.c:46 (discriminator 126)
800055f2:	00c505b3          	add	a1,a0,a2
800055f6:	97ba                	add	a5,a5,a4
800055f8:	00c5b633          	sltu	a2,a1,a2
800055fc:	97b2                	add	a5,a5,a2
/home/xl_ci/toolchain/riscv-gnu-toolchain/riscv-gcc/libgcc/soft-fp/subdf3.c:45 (discriminator 126)
800055fe:	841a                	mv	s0,t1
80005600:	bf31                	j	8000551c <__subdf3+0xe4>
/home/xl_ci/toolchain/riscv-gnu-toolchain/riscv-gcc/libgcc/soft-fp/subdf3.c:46 (discriminator 113)
80005602:	fe068513          	addi	a0,a3,-32 # 7fffe0 <__stack_size+0x7ff7e0>
80005606:	02000893          	li	a7,32
8000560a:	00a7d833          	srl	a6,a5,a0
8000560e:	4501                	li	a0,0
80005610:	01168763          	beq	a3,a7,8000561e <__subdf3+0x1e6>
/home/xl_ci/toolchain/riscv-gnu-toolchain/riscv-gcc/libgcc/soft-fp/subdf3.c:46 (discriminator 120)
80005614:	04000513          	li	a0,64
80005618:	8d15                	sub	a0,a0,a3
8000561a:	00a79533          	sll	a0,a5,a0
/home/xl_ci/toolchain/riscv-gnu-toolchain/riscv-gcc/libgcc/soft-fp/subdf3.c:46 (discriminator 123)
8000561e:	8d4d                	or	a0,a0,a1
80005620:	00a03533          	snez	a0,a0
80005624:	00a86533          	or	a0,a6,a0
/home/xl_ci/toolchain/riscv-gnu-toolchain/riscv-gcc/libgcc/soft-fp/subdf3.c:46 (discriminator 111)
80005628:	4781                	li	a5,0
8000562a:	b7e1                	j	800055f2 <__subdf3+0x1ba>
8000562c:	00b7e533          	or	a0,a5,a1
80005630:	00a03533          	snez	a0,a0
80005634:	bfd5                	j	80005628 <__subdf3+0x1f0>
/home/xl_ci/toolchain/riscv-gnu-toolchain/riscv-gcc/libgcc/soft-fp/subdf3.c:46 (discriminator 72)
80005636:	00140693          	addi	a3,s0,1 # 80001 <__stack_size+0x7f801>
8000563a:	7fe6f513          	andi	a0,a3,2046
8000563e:	e13d                	bnez	a0,800056a4 <__subdf3+0x26c>
/home/xl_ci/toolchain/riscv-gnu-toolchain/riscv-gcc/libgcc/soft-fp/subdf3.c:46 (discriminator 128)
80005640:	00b7e6b3          	or	a3,a5,a1
80005644:	e429                	bnez	s0,8000568e <__subdf3+0x256>
/home/xl_ci/toolchain/riscv-gnu-toolchain/riscv-gcc/libgcc/soft-fp/subdf3.c:46 (discriminator 130)
80005646:	36068963          	beqz	a3,800059b8 <__subdf3+0x580>
/home/xl_ci/toolchain/riscv-gnu-toolchain/riscv-gcc/libgcc/soft-fp/subdf3.c:46 (discriminator 133)
8000564a:	00c766b3          	or	a3,a4,a2
8000564e:	c285                	beqz	a3,8000566e <__subdf3+0x236>
/home/xl_ci/toolchain/riscv-gnu-toolchain/riscv-gcc/libgcc/soft-fp/subdf3.c:46 (discriminator 139)
80005650:	962e                	add	a2,a2,a1
80005652:	97ba                	add	a5,a5,a4
80005654:	00b63533          	sltu	a0,a2,a1
80005658:	97aa                	add	a5,a5,a0
8000565a:	00800737          	lui	a4,0x800
8000565e:	8f7d                	and	a4,a4,a5
80005660:	85b2                	mv	a1,a2
80005662:	c711                	beqz	a4,8000566e <__subdf3+0x236>
/home/xl_ci/toolchain/riscv-gnu-toolchain/riscv-gcc/libgcc/soft-fp/subdf3.c:46 (discriminator 141)
80005664:	ff800737          	lui	a4,0xff800
80005668:	177d                	addi	a4,a4,-1
8000566a:	8ff9                	and	a5,a5,a4
8000566c:	4405                	li	s0,1
/home/xl_ci/toolchain/riscv-gnu-toolchain/riscv-gcc/libgcc/soft-fp/subdf3.c:47 (discriminator 426)
8000566e:	0075f713          	andi	a4,a1,7
80005672:	34070a63          	beqz	a4,800059c6 <__subdf3+0x58e>
/home/xl_ci/toolchain/riscv-gnu-toolchain/riscv-gcc/libgcc/soft-fp/subdf3.c:47 (discriminator 37)
80005676:	00f5f713          	andi	a4,a1,15
8000567a:	4691                	li	a3,4
8000567c:	34d70563          	beq	a4,a3,800059c6 <__subdf3+0x58e>
/home/xl_ci/toolchain/riscv-gnu-toolchain/riscv-gcc/libgcc/soft-fp/subdf3.c:47 (discriminator 44)
80005680:	00458713          	addi	a4,a1,4
80005684:	00b73533          	sltu	a0,a4,a1
80005688:	97aa                	add	a5,a5,a0
8000568a:	85ba                	mv	a1,a4
8000568c:	ae2d                	j	800059c6 <__subdf3+0x58e>
/home/xl_ci/toolchain/riscv-gnu-toolchain/riscv-gcc/libgcc/soft-fp/subdf3.c:46 (discriminator 158)
8000568e:	de99                	beqz	a3,800055ac <__subdf3+0x174>
/home/xl_ci/toolchain/riscv-gnu-toolchain/riscv-gcc/libgcc/soft-fp/subdf3.c:46 (discriminator 160)
80005690:	8e59                	or	a2,a2,a4
80005692:	e2060be3          	beqz	a2,800054c8 <__subdf3+0x90>
/home/xl_ci/toolchain/riscv-gnu-toolchain/riscv-gcc/libgcc/soft-fp/subdf3.c:46
80005696:	4481                	li	s1,0
80005698:	004007b7          	lui	a5,0x400
8000569c:	4581                	li	a1,0
8000569e:	7ff00413          	li	s0,2047
800056a2:	a615                	j	800059c6 <__subdf3+0x58e>
/home/xl_ci/toolchain/riscv-gnu-toolchain/riscv-gcc/libgcc/soft-fp/subdf3.c:46 (discriminator 129)
800056a4:	7ff00513          	li	a0,2047
800056a8:	30a68b63          	beq	a3,a0,800059be <__subdf3+0x586>
/home/xl_ci/toolchain/riscv-gnu-toolchain/riscv-gcc/libgcc/soft-fp/subdf3.c:46
800056ac:	962e                	add	a2,a2,a1
800056ae:	00b63533          	sltu	a0,a2,a1
800056b2:	97ba                	add	a5,a5,a4
800056b4:	97aa                	add	a5,a5,a0
800056b6:	01f79513          	slli	a0,a5,0x1f
800056ba:	8205                	srli	a2,a2,0x1
800056bc:	00c565b3          	or	a1,a0,a2
800056c0:	8385                	srli	a5,a5,0x1
800056c2:	8436                	mv	s0,a3
800056c4:	b76d                	j	8000566e <__subdf3+0x236>
/home/xl_ci/toolchain/riscv-gnu-toolchain/riscv-gcc/libgcc/soft-fp/subdf3.c:46 (discriminator 13)
800056c6:	0d005663          	blez	a6,80005792 <__subdf3+0x35a>
/home/xl_ci/toolchain/riscv-gnu-toolchain/riscv-gcc/libgcc/soft-fp/subdf3.c:46 (discriminator 205)
800056ca:	08031163          	bnez	t1,8000574c <__subdf3+0x314>
/home/xl_ci/toolchain/riscv-gnu-toolchain/riscv-gcc/libgcc/soft-fp/subdf3.c:46 (discriminator 207)
800056ce:	00c766b3          	or	a3,a4,a2
800056d2:	34068b63          	beqz	a3,80005a28 <__subdf3+0x5f0>
/home/xl_ci/toolchain/riscv-gnu-toolchain/riscv-gcc/libgcc/soft-fp/subdf3.c:46 (discriminator 210)
800056d6:	fff80513          	addi	a0,a6,-1
800056da:	e911                	bnez	a0,800056ee <__subdf3+0x2b6>
/home/xl_ci/toolchain/riscv-gnu-toolchain/riscv-gcc/libgcc/soft-fp/subdf3.c:46 (discriminator 219)
800056dc:	40c58633          	sub	a2,a1,a2
800056e0:	00c5b533          	sltu	a0,a1,a2
800056e4:	8f99                	sub	a5,a5,a4
800056e6:	8f89                	sub	a5,a5,a0
800056e8:	85b2                	mv	a1,a2
/home/xl_ci/toolchain/riscv-gnu-toolchain/riscv-gcc/libgcc/soft-fp/subdf3.c:45 (discriminator 276)
800056ea:	4405                	li	s0,1
/home/xl_ci/toolchain/riscv-gnu-toolchain/riscv-gcc/libgcc/soft-fp/subdf3.c:46 (discriminator 276)
800056ec:	a0b1                	j	80005738 <__subdf3+0x300>
/home/xl_ci/toolchain/riscv-gnu-toolchain/riscv-gcc/libgcc/soft-fp/subdf3.c:46 (discriminator 220)
800056ee:	7ff00693          	li	a3,2047
800056f2:	dcd80be3          	beq	a6,a3,800054c8 <__subdf3+0x90>
/home/xl_ci/toolchain/riscv-gnu-toolchain/riscv-gcc/libgcc/soft-fp/subdf3.c:46 (discriminator 243)
800056f6:	03800693          	li	a3,56
800056fa:	08a6c863          	blt	a3,a0,8000578a <__subdf3+0x352>
/home/xl_ci/toolchain/riscv-gnu-toolchain/riscv-gcc/libgcc/soft-fp/subdf3.c:46 (discriminator 244)
800056fe:	46fd                	li	a3,31
80005700:	04a6cf63          	blt	a3,a0,8000575e <__subdf3+0x326>
/home/xl_ci/toolchain/riscv-gnu-toolchain/riscv-gcc/libgcc/soft-fp/subdf3.c:46 (discriminator 246)
80005704:	02000813          	li	a6,32
80005708:	40a80833          	sub	a6,a6,a0
8000570c:	010716b3          	sll	a3,a4,a6
80005710:	00a658b3          	srl	a7,a2,a0
80005714:	01061633          	sll	a2,a2,a6
80005718:	0116e6b3          	or	a3,a3,a7
8000571c:	00c03633          	snez	a2,a2
80005720:	8e55                	or	a2,a2,a3
80005722:	00a75733          	srl	a4,a4,a0
/home/xl_ci/toolchain/riscv-gnu-toolchain/riscv-gcc/libgcc/soft-fp/subdf3.c:46 (discriminator 260)
80005726:	40c58633          	sub	a2,a1,a2
8000572a:	00c5b533          	sltu	a0,a1,a2
8000572e:	40e78733          	sub	a4,a5,a4
80005732:	40a707b3          	sub	a5,a4,a0
80005736:	85b2                	mv	a1,a2
/home/xl_ci/toolchain/riscv-gnu-toolchain/riscv-gcc/libgcc/soft-fp/subdf3.c:46 (discriminator 318)
80005738:	00800937          	lui	s2,0x800
8000573c:	0127f733          	and	a4,a5,s2
80005740:	d71d                	beqz	a4,8000566e <__subdf3+0x236>
/home/xl_ci/toolchain/riscv-gnu-toolchain/riscv-gcc/libgcc/soft-fp/subdf3.c:46 (discriminator 378)
80005742:	197d                	addi	s2,s2,-1
80005744:	0127f933          	and	s2,a5,s2
80005748:	89ae                	mv	s3,a1
8000574a:	aa5d                	j	80005900 <__subdf3+0x4c8>
/home/xl_ci/toolchain/riscv-gnu-toolchain/riscv-gcc/libgcc/soft-fp/subdf3.c:46 (discriminator 208)
8000574c:	7ff00693          	li	a3,2047
80005750:	f0d40fe3          	beq	s0,a3,8000566e <__subdf3+0x236>
/home/xl_ci/toolchain/riscv-gnu-toolchain/riscv-gcc/libgcc/soft-fp/subdf3.c:46 (discriminator 234)
80005754:	008006b7          	lui	a3,0x800
80005758:	8f55                	or	a4,a4,a3
8000575a:	8542                	mv	a0,a6
8000575c:	bf69                	j	800056f6 <__subdf3+0x2be>
/home/xl_ci/toolchain/riscv-gnu-toolchain/riscv-gcc/libgcc/soft-fp/subdf3.c:46 (discriminator 247)
8000575e:	fe050693          	addi	a3,a0,-32
80005762:	02000893          	li	a7,32
80005766:	00d756b3          	srl	a3,a4,a3
8000576a:	4801                	li	a6,0
8000576c:	01150863          	beq	a0,a7,8000577c <__subdf3+0x344>
/home/xl_ci/toolchain/riscv-gnu-toolchain/riscv-gcc/libgcc/soft-fp/subdf3.c:46 (discriminator 254)
80005770:	04000813          	li	a6,64
80005774:	40a80533          	sub	a0,a6,a0
80005778:	00a71833          	sll	a6,a4,a0
/home/xl_ci/toolchain/riscv-gnu-toolchain/riscv-gcc/libgcc/soft-fp/subdf3.c:46 (discriminator 257)
8000577c:	00c86633          	or	a2,a6,a2
80005780:	00c03633          	snez	a2,a2
80005784:	8e55                	or	a2,a2,a3
/home/xl_ci/toolchain/riscv-gnu-toolchain/riscv-gcc/libgcc/soft-fp/subdf3.c:46 (discriminator 245)
80005786:	4701                	li	a4,0
80005788:	bf79                	j	80005726 <__subdf3+0x2ee>
8000578a:	8e59                	or	a2,a2,a4
8000578c:	00c03633          	snez	a2,a2
80005790:	bfdd                	j	80005786 <__subdf3+0x34e>
/home/xl_ci/toolchain/riscv-gnu-toolchain/riscv-gcc/libgcc/soft-fp/subdf3.c:46 (discriminator 206)
80005792:	0c080563          	beqz	a6,8000585c <__subdf3+0x424>
/home/xl_ci/toolchain/riscv-gnu-toolchain/riscv-gcc/libgcc/soft-fp/subdf3.c:46 (discriminator 262)
80005796:	40830533          	sub	a0,t1,s0
8000579a:	e81d                	bnez	s0,800057d0 <__subdf3+0x398>
/home/xl_ci/toolchain/riscv-gnu-toolchain/riscv-gcc/libgcc/soft-fp/subdf3.c:46 (discriminator 264)
8000579c:	00b7e833          	or	a6,a5,a1
800057a0:	28080663          	beqz	a6,80005a2c <__subdf3+0x5f4>
/home/xl_ci/toolchain/riscv-gnu-toolchain/riscv-gcc/libgcc/soft-fp/subdf3.c:46 (discriminator 267)
800057a4:	fff50813          	addi	a6,a0,-1
800057a8:	00081b63          	bnez	a6,800057be <__subdf3+0x386>
/home/xl_ci/toolchain/riscv-gnu-toolchain/riscv-gcc/libgcc/soft-fp/subdf3.c:46 (discriminator 276)
800057ac:	40b605b3          	sub	a1,a2,a1
800057b0:	40f707b3          	sub	a5,a4,a5
800057b4:	00b63633          	sltu	a2,a2,a1
800057b8:	8f91                	sub	a5,a5,a2
800057ba:	84b6                	mv	s1,a3
800057bc:	b73d                	j	800056ea <__subdf3+0x2b2>
/home/xl_ci/toolchain/riscv-gnu-toolchain/riscv-gcc/libgcc/soft-fp/subdf3.c:46 (discriminator 277)
800057be:	7ff00893          	li	a7,2047
800057c2:	03151063          	bne	a0,a7,800057e2 <__subdf3+0x3aa>
/home/xl_ci/toolchain/riscv-gnu-toolchain/riscv-gcc/libgcc/soft-fp/subdf3.c:45
800057c6:	87ba                	mv	a5,a4
800057c8:	85b2                	mv	a1,a2
/home/xl_ci/toolchain/riscv-gnu-toolchain/riscv-gcc/libgcc/soft-fp/subdf3.c:46
800057ca:	7ff00413          	li	s0,2047
800057ce:	a07d                	j	8000587c <__subdf3+0x444>
/home/xl_ci/toolchain/riscv-gnu-toolchain/riscv-gcc/libgcc/soft-fp/subdf3.c:46 (discriminator 265)
800057d0:	7ff00813          	li	a6,2047
800057d4:	ff0309e3          	beq	t1,a6,800057c6 <__subdf3+0x38e>
/home/xl_ci/toolchain/riscv-gnu-toolchain/riscv-gcc/libgcc/soft-fp/subdf3.c:46 (discriminator 291)
800057d8:	00800837          	lui	a6,0x800
800057dc:	0107e7b3          	or	a5,a5,a6
800057e0:	882a                	mv	a6,a0
/home/xl_ci/toolchain/riscv-gnu-toolchain/riscv-gcc/libgcc/soft-fp/subdf3.c:46 (discriminator 300)
800057e2:	03800513          	li	a0,56
800057e6:	07054663          	blt	a0,a6,80005852 <__subdf3+0x41a>
/home/xl_ci/toolchain/riscv-gnu-toolchain/riscv-gcc/libgcc/soft-fp/subdf3.c:46 (discriminator 301)
800057ea:	457d                	li	a0,31
800057ec:	03054d63          	blt	a0,a6,80005826 <__subdf3+0x3ee>
/home/xl_ci/toolchain/riscv-gnu-toolchain/riscv-gcc/libgcc/soft-fp/subdf3.c:46 (discriminator 303)
800057f0:	02000893          	li	a7,32
800057f4:	410888b3          	sub	a7,a7,a6
800057f8:	01179533          	sll	a0,a5,a7
800057fc:	0105de33          	srl	t3,a1,a6
80005800:	011595b3          	sll	a1,a1,a7
80005804:	01c56533          	or	a0,a0,t3
80005808:	00b035b3          	snez	a1,a1
8000580c:	8d4d                	or	a0,a0,a1
8000580e:	0107d7b3          	srl	a5,a5,a6
/home/xl_ci/toolchain/riscv-gnu-toolchain/riscv-gcc/libgcc/soft-fp/subdf3.c:46 (discriminator 317)
80005812:	40a605b3          	sub	a1,a2,a0
80005816:	40f707b3          	sub	a5,a4,a5
8000581a:	00b63633          	sltu	a2,a2,a1
8000581e:	8f91                	sub	a5,a5,a2
/home/xl_ci/toolchain/riscv-gnu-toolchain/riscv-gcc/libgcc/soft-fp/subdf3.c:45 (discriminator 317)
80005820:	841a                	mv	s0,t1
80005822:	84b6                	mv	s1,a3
80005824:	bf11                	j	80005738 <__subdf3+0x300>
/home/xl_ci/toolchain/riscv-gnu-toolchain/riscv-gcc/libgcc/soft-fp/subdf3.c:46 (discriminator 304)
80005826:	fe080513          	addi	a0,a6,-32 # 7fffe0 <__stack_size+0x7ff7e0>
8000582a:	02000e13          	li	t3,32
8000582e:	00a7d8b3          	srl	a7,a5,a0
80005832:	4501                	li	a0,0
80005834:	01c80863          	beq	a6,t3,80005844 <__subdf3+0x40c>
/home/xl_ci/toolchain/riscv-gnu-toolchain/riscv-gcc/libgcc/soft-fp/subdf3.c:46 (discriminator 311)
80005838:	04000513          	li	a0,64
8000583c:	41050533          	sub	a0,a0,a6
80005840:	00a79533          	sll	a0,a5,a0
/home/xl_ci/toolchain/riscv-gnu-toolchain/riscv-gcc/libgcc/soft-fp/subdf3.c:46 (discriminator 314)
80005844:	8d4d                	or	a0,a0,a1
80005846:	00a03533          	snez	a0,a0
8000584a:	00a8e533          	or	a0,a7,a0
/home/xl_ci/toolchain/riscv-gnu-toolchain/riscv-gcc/libgcc/soft-fp/subdf3.c:46 (discriminator 302)
8000584e:	4781                	li	a5,0
80005850:	b7c9                	j	80005812 <__subdf3+0x3da>
80005852:	00b7e533          	or	a0,a5,a1
80005856:	00a03533          	snez	a0,a0
8000585a:	bfd5                	j	8000584e <__subdf3+0x416>
/home/xl_ci/toolchain/riscv-gnu-toolchain/riscv-gcc/libgcc/soft-fp/subdf3.c:46 (discriminator 263)
8000585c:	00140513          	addi	a0,s0,1
80005860:	7fe57513          	andi	a0,a0,2046
80005864:	e925                	bnez	a0,800058d4 <__subdf3+0x49c>
/home/xl_ci/toolchain/riscv-gnu-toolchain/riscv-gcc/libgcc/soft-fp/subdf3.c:46 (discriminator 319)
80005866:	00b7e833          	or	a6,a5,a1
8000586a:	00c76533          	or	a0,a4,a2
8000586e:	e821                	bnez	s0,800058be <__subdf3+0x486>
/home/xl_ci/toolchain/riscv-gnu-toolchain/riscv-gcc/libgcc/soft-fp/subdf3.c:46 (discriminator 321)
80005870:	00081863          	bnez	a6,80005880 <__subdf3+0x448>
/home/xl_ci/toolchain/riscv-gnu-toolchain/riscv-gcc/libgcc/soft-fp/subdf3.c:46 (discriminator 323)
80005874:	1c050063          	beqz	a0,80005a34 <__subdf3+0x5fc>
/home/xl_ci/toolchain/riscv-gnu-toolchain/riscv-gcc/libgcc/soft-fp/subdf3.c:45
80005878:	87ba                	mv	a5,a4
8000587a:	85b2                	mv	a1,a2
8000587c:	84b6                	mv	s1,a3
8000587e:	bbc5                	j	8000566e <__subdf3+0x236>
/home/xl_ci/toolchain/riscv-gnu-toolchain/riscv-gcc/libgcc/soft-fp/subdf3.c:46 (discriminator 324)
80005880:	de0507e3          	beqz	a0,8000566e <__subdf3+0x236>
/home/xl_ci/toolchain/riscv-gnu-toolchain/riscv-gcc/libgcc/soft-fp/subdf3.c:46 (discriminator 331)
80005884:	40c58833          	sub	a6,a1,a2
80005888:	0105b8b3          	sltu	a7,a1,a6
8000588c:	40e78533          	sub	a0,a5,a4
80005890:	41150533          	sub	a0,a0,a7
80005894:	008008b7          	lui	a7,0x800
80005898:	011578b3          	and	a7,a0,a7
8000589c:	00088a63          	beqz	a7,800058b0 <__subdf3+0x478>
/home/xl_ci/toolchain/riscv-gnu-toolchain/riscv-gcc/libgcc/soft-fp/subdf3.c:46 (discriminator 333)
800058a0:	40b605b3          	sub	a1,a2,a1
800058a4:	40f707b3          	sub	a5,a4,a5
800058a8:	00b63633          	sltu	a2,a2,a1
800058ac:	8f91                	sub	a5,a5,a2
800058ae:	b7f9                	j	8000587c <__subdf3+0x444>
/home/xl_ci/toolchain/riscv-gnu-toolchain/riscv-gcc/libgcc/soft-fp/subdf3.c:46 (discriminator 334)
800058b0:	00a865b3          	or	a1,a6,a0
800058b4:	18058463          	beqz	a1,80005a3c <__subdf3+0x604>
/home/xl_ci/toolchain/riscv-gnu-toolchain/riscv-gcc/libgcc/soft-fp/subdf3.c:46
800058b8:	87aa                	mv	a5,a0
800058ba:	85c2                	mv	a1,a6
800058bc:	bb4d                	j	8000566e <__subdf3+0x236>
/home/xl_ci/toolchain/riscv-gnu-toolchain/riscv-gcc/libgcc/soft-fp/subdf3.c:46 (discriminator 353)
800058be:	00081863          	bnez	a6,800058ce <__subdf3+0x496>
/home/xl_ci/toolchain/riscv-gnu-toolchain/riscv-gcc/libgcc/soft-fp/subdf3.c:46 (discriminator 354)
800058c2:	16050f63          	beqz	a0,80005a40 <__subdf3+0x608>
/home/xl_ci/toolchain/riscv-gnu-toolchain/riscv-gcc/libgcc/soft-fp/subdf3.c:45
800058c6:	87ba                	mv	a5,a4
800058c8:	85b2                	mv	a1,a2
/home/xl_ci/toolchain/riscv-gnu-toolchain/riscv-gcc/libgcc/soft-fp/subdf3.c:46
800058ca:	84b6                	mv	s1,a3
800058cc:	bef5                	j	800054c8 <__subdf3+0x90>
/home/xl_ci/toolchain/riscv-gnu-toolchain/riscv-gcc/libgcc/soft-fp/subdf3.c:46 (discriminator 355)
800058ce:	be050de3          	beqz	a0,800054c8 <__subdf3+0x90>
800058d2:	b3d1                	j	80005696 <__subdf3+0x25e>
/home/xl_ci/toolchain/riscv-gnu-toolchain/riscv-gcc/libgcc/soft-fp/subdf3.c:46 (discriminator 320)
800058d4:	40c589b3          	sub	s3,a1,a2
800058d8:	0135b533          	sltu	a0,a1,s3
800058dc:	40e78933          	sub	s2,a5,a4
800058e0:	40a90933          	sub	s2,s2,a0
800058e4:	00800537          	lui	a0,0x800
800058e8:	00a97533          	and	a0,s2,a0
800058ec:	c53d                	beqz	a0,8000595a <__subdf3+0x522>
/home/xl_ci/toolchain/riscv-gnu-toolchain/riscv-gcc/libgcc/soft-fp/subdf3.c:46 (discriminator 371)
800058ee:	40b609b3          	sub	s3,a2,a1
800058f2:	40f707b3          	sub	a5,a4,a5
800058f6:	01363633          	sltu	a2,a2,s3
800058fa:	40c78933          	sub	s2,a5,a2
800058fe:	84b6                	mv	s1,a3
/home/xl_ci/toolchain/riscv-gnu-toolchain/riscv-gcc/libgcc/soft-fp/subdf3.c:46 (discriminator 380)
80005900:	06090363          	beqz	s2,80005966 <__subdf3+0x52e>
/home/xl_ci/toolchain/riscv-gnu-toolchain/riscv-gcc/libgcc/soft-fp/subdf3.c:46 (discriminator 383)
80005904:	854a                	mv	a0,s2
80005906:	29e1                	jal	80005dde <__clzsi2>
/home/xl_ci/toolchain/riscv-gnu-toolchain/riscv-gcc/libgcc/soft-fp/subdf3.c:46 (discriminator 397)
80005908:	ff850713          	addi	a4,a0,-8 # 7ffff8 <__stack_size+0x7ff7f8>
8000590c:	47fd                	li	a5,31
8000590e:	06e7c163          	blt	a5,a4,80005970 <__subdf3+0x538>
/home/xl_ci/toolchain/riscv-gnu-toolchain/riscv-gcc/libgcc/soft-fp/subdf3.c:46 (discriminator 403)
80005912:	02000793          	li	a5,32
80005916:	8f99                	sub	a5,a5,a4
80005918:	00e91933          	sll	s2,s2,a4
8000591c:	00f9d7b3          	srl	a5,s3,a5
80005920:	0127e7b3          	or	a5,a5,s2
80005924:	00e995b3          	sll	a1,s3,a4
/home/xl_ci/toolchain/riscv-gnu-toolchain/riscv-gcc/libgcc/soft-fp/subdf3.c:46 (discriminator 407)
80005928:	06874e63          	blt	a4,s0,800059a4 <__subdf3+0x56c>
/home/xl_ci/toolchain/riscv-gnu-toolchain/riscv-gcc/libgcc/soft-fp/subdf3.c:46 (discriminator 408)
8000592c:	8f01                	sub	a4,a4,s0
8000592e:	00170693          	addi	a3,a4,1 # ff800001 <_sp+0x6f7f0001>
80005932:	467d                	li	a2,31
80005934:	04d64463          	blt	a2,a3,8000597c <__subdf3+0x544>
/home/xl_ci/toolchain/riscv-gnu-toolchain/riscv-gcc/libgcc/soft-fp/subdf3.c:46 (discriminator 410)
80005938:	02000713          	li	a4,32
8000593c:	8f15                	sub	a4,a4,a3
8000593e:	00e79633          	sll	a2,a5,a4
80005942:	00d5d533          	srl	a0,a1,a3
80005946:	00e595b3          	sll	a1,a1,a4
8000594a:	8e49                	or	a2,a2,a0
8000594c:	00b035b3          	snez	a1,a1
80005950:	8dd1                	or	a1,a1,a2
80005952:	00d7d7b3          	srl	a5,a5,a3
/home/xl_ci/toolchain/riscv-gnu-toolchain/riscv-gcc/libgcc/soft-fp/subdf3.c:46 (discriminator 422)
80005956:	4401                	li	s0,0
80005958:	bb19                	j	8000566e <__subdf3+0x236>
/home/xl_ci/toolchain/riscv-gnu-toolchain/riscv-gcc/libgcc/soft-fp/subdf3.c:46 (discriminator 372)
8000595a:	0129e5b3          	or	a1,s3,s2
8000595e:	f1cd                	bnez	a1,80005900 <__subdf3+0x4c8>
80005960:	4781                	li	a5,0
/home/xl_ci/toolchain/riscv-gnu-toolchain/riscv-gcc/libgcc/soft-fp/subdf3.c:46
80005962:	4401                	li	s0,0
80005964:	a8d1                	j	80005a38 <__subdf3+0x600>
/home/xl_ci/toolchain/riscv-gnu-toolchain/riscv-gcc/libgcc/soft-fp/subdf3.c:46 (discriminator 390)
80005966:	854e                	mv	a0,s3
80005968:	299d                	jal	80005dde <__clzsi2>
8000596a:	02050513          	addi	a0,a0,32
8000596e:	bf69                	j	80005908 <__subdf3+0x4d0>
/home/xl_ci/toolchain/riscv-gnu-toolchain/riscv-gcc/libgcc/soft-fp/subdf3.c:46 (discriminator 399)
80005970:	fd850793          	addi	a5,a0,-40
80005974:	00f997b3          	sll	a5,s3,a5
80005978:	4581                	li	a1,0
8000597a:	b77d                	j	80005928 <__subdf3+0x4f0>
/home/xl_ci/toolchain/riscv-gnu-toolchain/riscv-gcc/libgcc/soft-fp/subdf3.c:46 (discriminator 411)
8000597c:	1705                	addi	a4,a4,-31
8000597e:	02000613          	li	a2,32
80005982:	00e7d733          	srl	a4,a5,a4
80005986:	4501                	li	a0,0
80005988:	00c68763          	beq	a3,a2,80005996 <__subdf3+0x55e>
/home/xl_ci/toolchain/riscv-gnu-toolchain/riscv-gcc/libgcc/soft-fp/subdf3.c:46 (discriminator 419)
8000598c:	04000513          	li	a0,64
80005990:	8d15                	sub	a0,a0,a3
80005992:	00a79533          	sll	a0,a5,a0
/home/xl_ci/toolchain/riscv-gnu-toolchain/riscv-gcc/libgcc/soft-fp/subdf3.c:46 (discriminator 422)
80005996:	8d4d                	or	a0,a0,a1
80005998:	00a03533          	snez	a0,a0
8000599c:	00a765b3          	or	a1,a4,a0
800059a0:	4781                	li	a5,0
800059a2:	bf55                	j	80005956 <__subdf3+0x51e>
/home/xl_ci/toolchain/riscv-gnu-toolchain/riscv-gcc/libgcc/soft-fp/subdf3.c:46 (discriminator 409)
800059a4:	8c19                	sub	s0,s0,a4
800059a6:	ff800737          	lui	a4,0xff800
800059aa:	177d                	addi	a4,a4,-1
800059ac:	8ff9                	and	a5,a5,a4
800059ae:	b1c1                	j	8000566e <__subdf3+0x236>
/home/xl_ci/toolchain/riscv-gnu-toolchain/riscv-gcc/libgcc/soft-fp/subdf3.c:45
800059b0:	87ba                	mv	a5,a4
800059b2:	85b2                	mv	a1,a2
/home/xl_ci/toolchain/riscv-gnu-toolchain/riscv-gcc/libgcc/soft-fp/subdf3.c:46
800059b4:	842a                	mv	s0,a0
800059b6:	b965                	j	8000566e <__subdf3+0x236>
/home/xl_ci/toolchain/riscv-gnu-toolchain/riscv-gcc/libgcc/soft-fp/subdf3.c:45
800059b8:	87ba                	mv	a5,a4
800059ba:	85b2                	mv	a1,a2
800059bc:	b94d                	j	8000566e <__subdf3+0x236>
800059be:	7ff00413          	li	s0,2047
800059c2:	4781                	li	a5,0
800059c4:	4581                	li	a1,0
/home/xl_ci/toolchain/riscv-gnu-toolchain/riscv-gcc/libgcc/soft-fp/subdf3.c:47 (discriminator 47)
800059c6:	00800737          	lui	a4,0x800
800059ca:	8f7d                	and	a4,a4,a5
800059cc:	cb11                	beqz	a4,800059e0 <__subdf3+0x5a8>
/home/xl_ci/toolchain/riscv-gnu-toolchain/riscv-gcc/libgcc/soft-fp/subdf3.c:47 (discriminator 63)
800059ce:	0405                	addi	s0,s0,1
800059d0:	7ff00713          	li	a4,2047
800059d4:	06e40b63          	beq	s0,a4,80005a4a <__subdf3+0x612>
/home/xl_ci/toolchain/riscv-gnu-toolchain/riscv-gcc/libgcc/soft-fp/subdf3.c:47
800059d8:	ff800737          	lui	a4,0xff800
800059dc:	177d                	addi	a4,a4,-1
800059de:	8ff9                	and	a5,a5,a4
/home/xl_ci/toolchain/riscv-gnu-toolchain/riscv-gcc/libgcc/soft-fp/subdf3.c:47 (discriminator 79)
800059e0:	01d79713          	slli	a4,a5,0x1d
800059e4:	0035d513          	srli	a0,a1,0x3
800059e8:	8d59                	or	a0,a0,a4
800059ea:	7ff00713          	li	a4,2047
800059ee:	838d                	srli	a5,a5,0x3
800059f0:	00e41963          	bne	s0,a4,80005a02 <__subdf3+0x5ca>
/home/xl_ci/toolchain/riscv-gnu-toolchain/riscv-gcc/libgcc/soft-fp/subdf3.c:47 (discriminator 80)
800059f4:	8d5d                	or	a0,a0,a5
800059f6:	4781                	li	a5,0
800059f8:	c509                	beqz	a0,80005a02 <__subdf3+0x5ca>
/home/xl_ci/toolchain/riscv-gnu-toolchain/riscv-gcc/libgcc/soft-fp/subdf3.c:47
800059fa:	000807b7          	lui	a5,0x80
800059fe:	4501                	li	a0,0
80005a00:	4481                	li	s1,0
/home/xl_ci/toolchain/riscv-gnu-toolchain/riscv-gcc/libgcc/soft-fp/subdf3.c:47 (discriminator 90)
80005a02:	01441713          	slli	a4,s0,0x14
80005a06:	7ff006b7          	lui	a3,0x7ff00
80005a0a:	07b2                	slli	a5,a5,0xc
/home/xl_ci/toolchain/riscv-gnu-toolchain/riscv-gcc/libgcc/soft-fp/subdf3.c:51 (discriminator 90)
80005a0c:	40f2                	lw	ra,28(sp)
80005a0e:	4462                	lw	s0,24(sp)
/home/xl_ci/toolchain/riscv-gnu-toolchain/riscv-gcc/libgcc/soft-fp/subdf3.c:47 (discriminator 90)
80005a10:	8f75                	and	a4,a4,a3
80005a12:	83b1                	srli	a5,a5,0xc
80005a14:	04fe                	slli	s1,s1,0x1f
80005a16:	8fd9                	or	a5,a5,a4
80005a18:	0097e733          	or	a4,a5,s1
/home/xl_ci/toolchain/riscv-gnu-toolchain/riscv-gcc/libgcc/soft-fp/subdf3.c:51 (discriminator 90)
80005a1c:	4942                	lw	s2,16(sp)
80005a1e:	44d2                	lw	s1,20(sp)
80005a20:	49b2                	lw	s3,12(sp)
80005a22:	85ba                	mv	a1,a4
80005a24:	6105                	addi	sp,sp,32
80005a26:	8082                	ret
80005a28:	8442                	mv	s0,a6
80005a2a:	b191                	j	8000566e <__subdf3+0x236>
/home/xl_ci/toolchain/riscv-gnu-toolchain/riscv-gcc/libgcc/soft-fp/subdf3.c:45
80005a2c:	87ba                	mv	a5,a4
80005a2e:	85b2                	mv	a1,a2
/home/xl_ci/toolchain/riscv-gnu-toolchain/riscv-gcc/libgcc/soft-fp/subdf3.c:46
80005a30:	842a                	mv	s0,a0
80005a32:	b5a9                	j	8000587c <__subdf3+0x444>
80005a34:	4781                	li	a5,0
80005a36:	4581                	li	a1,0
80005a38:	4481                	li	s1,0
80005a3a:	b771                	j	800059c6 <__subdf3+0x58e>
80005a3c:	4781                	li	a5,0
80005a3e:	bfed                	j	80005a38 <__subdf3+0x600>
80005a40:	4581                	li	a1,0
80005a42:	4481                	li	s1,0
80005a44:	004007b7          	lui	a5,0x400
80005a48:	b999                	j	8000569e <__subdf3+0x266>
80005a4a:	4781                	li	a5,0
80005a4c:	4581                	li	a1,0
80005a4e:	bf49                	j	800059e0 <__subdf3+0x5a8>

80005a50 <__unorddf2>:
__unorddf2():
/home/xl_ci/toolchain/riscv-gnu-toolchain/riscv-gcc/libgcc/soft-fp/unorddf2.c:42
80005a50:	00100737          	lui	a4,0x100
80005a54:	fff70793          	addi	a5,a4,-1 # fffff <__stack_size+0xff7ff>
80005a58:	00b7f733          	and	a4,a5,a1
80005a5c:	81d1                	srli	a1,a1,0x14
/home/xl_ci/toolchain/riscv-gnu-toolchain/riscv-gcc/libgcc/soft-fp/unorddf2.c:43
80005a5e:	8ff5                	and	a5,a5,a3
/home/xl_ci/toolchain/riscv-gnu-toolchain/riscv-gcc/libgcc/soft-fp/unorddf2.c:42
80005a60:	7ff5f593          	andi	a1,a1,2047
/home/xl_ci/toolchain/riscv-gnu-toolchain/riscv-gcc/libgcc/soft-fp/unorddf2.c:43
80005a64:	82d1                	srli	a3,a3,0x14
/home/xl_ci/toolchain/riscv-gnu-toolchain/riscv-gcc/libgcc/soft-fp/unorddf2.c:44
80005a66:	7ff00813          	li	a6,2047
/home/xl_ci/toolchain/riscv-gnu-toolchain/riscv-gcc/libgcc/soft-fp/unorddf2.c:43
80005a6a:	7ff6f693          	andi	a3,a3,2047
/home/xl_ci/toolchain/riscv-gnu-toolchain/riscv-gcc/libgcc/soft-fp/unorddf2.c:44
80005a6e:	01059563          	bne	a1,a6,80005a78 <__unorddf2+0x28>
/home/xl_ci/toolchain/riscv-gnu-toolchain/riscv-gcc/libgcc/soft-fp/unorddf2.c:44 (discriminator 20)
80005a72:	8f49                	or	a4,a4,a0
80005a74:	4505                	li	a0,1
80005a76:	eb09                	bnez	a4,80005a88 <__unorddf2+0x38>
/home/xl_ci/toolchain/riscv-gnu-toolchain/riscv-gcc/libgcc/soft-fp/unorddf2.c:44 (discriminator 23)
80005a78:	7ff00713          	li	a4,2047
80005a7c:	4501                	li	a0,0
80005a7e:	00e69563          	bne	a3,a4,80005a88 <__unorddf2+0x38>
/home/xl_ci/toolchain/riscv-gnu-toolchain/riscv-gcc/libgcc/soft-fp/unorddf2.c:44 (discriminator 24)
80005a82:	8fd1                	or	a5,a5,a2
80005a84:	00f03533          	snez	a0,a5
/home/xl_ci/toolchain/riscv-gnu-toolchain/riscv-gcc/libgcc/soft-fp/unorddf2.c:48
80005a88:	8082                	ret

80005a8a <__fixdfsi>:
__fixdfsi():
/home/xl_ci/toolchain/riscv-gnu-toolchain/riscv-gcc/libgcc/soft-fp/fixdfsi.c:42
80005a8a:	0145d713          	srli	a4,a1,0x14
80005a8e:	001006b7          	lui	a3,0x100
80005a92:	fff68793          	addi	a5,a3,-1 # fffff <__stack_size+0xff7ff>
80005a96:	7ff77713          	andi	a4,a4,2047
/home/xl_ci/toolchain/riscv-gnu-toolchain/riscv-gcc/libgcc/soft-fp/fixdfsi.c:43
80005a9a:	3fe00613          	li	a2,1022
/home/xl_ci/toolchain/riscv-gnu-toolchain/riscv-gcc/libgcc/soft-fp/fixdfsi.c:42
80005a9e:	8fed                	and	a5,a5,a1
80005aa0:	81fd                	srli	a1,a1,0x1f
/home/xl_ci/toolchain/riscv-gnu-toolchain/riscv-gcc/libgcc/soft-fp/fixdfsi.c:43
80005aa2:	04e65463          	bge	a2,a4,80005aea <__fixdfsi+0x60>
/home/xl_ci/toolchain/riscv-gnu-toolchain/riscv-gcc/libgcc/soft-fp/fixdfsi.c:43 (discriminator 10)
80005aa6:	41d00613          	li	a2,1053
80005aaa:	00e65863          	bge	a2,a4,80005aba <__fixdfsi+0x30>
/home/xl_ci/toolchain/riscv-gnu-toolchain/riscv-gcc/libgcc/soft-fp/fixdfsi.c:43 (discriminator 14)
80005aae:	80000537          	lui	a0,0x80000
80005ab2:	fff54513          	not	a0,a0
80005ab6:	952e                	add	a0,a0,a1
80005ab8:	8082                	ret
/home/xl_ci/toolchain/riscv-gnu-toolchain/riscv-gcc/libgcc/soft-fp/fixdfsi.c:43 (discriminator 13)
80005aba:	8fd5                	or	a5,a5,a3
80005abc:	43300693          	li	a3,1075
80005ac0:	8e99                	sub	a3,a3,a4
80005ac2:	467d                	li	a2,31
80005ac4:	00d64d63          	blt	a2,a3,80005ade <__fixdfsi+0x54>
/home/xl_ci/toolchain/riscv-gnu-toolchain/riscv-gcc/libgcc/soft-fp/fixdfsi.c:43 (discriminator 30)
80005ac8:	bed70713          	addi	a4,a4,-1043
80005acc:	00e797b3          	sll	a5,a5,a4
80005ad0:	00d55533          	srl	a0,a0,a3
80005ad4:	8d5d                	or	a0,a0,a5
/home/xl_ci/toolchain/riscv-gnu-toolchain/riscv-gcc/libgcc/soft-fp/fixdfsi.c:43 (discriminator 43)
80005ad6:	c999                	beqz	a1,80005aec <__fixdfsi+0x62>
/home/xl_ci/toolchain/riscv-gnu-toolchain/riscv-gcc/libgcc/soft-fp/fixdfsi.c:43 (discriminator 45)
80005ad8:	40a00533          	neg	a0,a0
80005adc:	8082                	ret
/home/xl_ci/toolchain/riscv-gnu-toolchain/riscv-gcc/libgcc/soft-fp/fixdfsi.c:43 (discriminator 42)
80005ade:	41300513          	li	a0,1043
80005ae2:	8d19                	sub	a0,a0,a4
80005ae4:	00a7d533          	srl	a0,a5,a0
80005ae8:	b7fd                	j	80005ad6 <__fixdfsi+0x4c>
/home/xl_ci/toolchain/riscv-gnu-toolchain/riscv-gcc/libgcc/soft-fp/fixdfsi.c:43
80005aea:	4501                	li	a0,0
/home/xl_ci/toolchain/riscv-gnu-toolchain/riscv-gcc/libgcc/soft-fp/fixdfsi.c:47 (discriminator 59)
80005aec:	8082                	ret

80005aee <__floatsidf>:
__floatsidf():
/home/xl_ci/toolchain/riscv-gnu-toolchain/riscv-gcc/libgcc/soft-fp/floatsidf.c:37
80005aee:	1141                	addi	sp,sp,-16
80005af0:	c606                	sw	ra,12(sp)
80005af2:	c422                	sw	s0,8(sp)
80005af4:	c226                	sw	s1,4(sp)
/home/xl_ci/toolchain/riscv-gnu-toolchain/riscv-gcc/libgcc/soft-fp/floatsidf.c:41
80005af6:	cd21                	beqz	a0,80005b4e <__floatsidf+0x60>
/home/xl_ci/toolchain/riscv-gnu-toolchain/riscv-gcc/libgcc/soft-fp/floatsidf.c:41 (discriminator 1)
80005af8:	41f55793          	srai	a5,a0,0x1f
80005afc:	00a7c433          	xor	s0,a5,a0
80005b00:	8c1d                	sub	s0,s0,a5
80005b02:	01f55493          	srli	s1,a0,0x1f
80005b06:	8522                	mv	a0,s0
80005b08:	2cd9                	jal	80005dde <__clzsi2>
80005b0a:	41e00713          	li	a4,1054
80005b0e:	47a9                	li	a5,10
80005b10:	8f09                	sub	a4,a4,a0
80005b12:	02a7c863          	blt	a5,a0,80005b42 <__floatsidf+0x54>
/home/xl_ci/toolchain/riscv-gnu-toolchain/riscv-gcc/libgcc/soft-fp/floatsidf.c:41 (discriminator 23)
80005b16:	47ad                	li	a5,11
80005b18:	8f89                	sub	a5,a5,a0
80005b1a:	0555                	addi	a0,a0,21
80005b1c:	00f457b3          	srl	a5,s0,a5
80005b20:	00a41433          	sll	s0,s0,a0
80005b24:	8526                	mv	a0,s1
/home/xl_ci/toolchain/riscv-gnu-toolchain/riscv-gcc/libgcc/soft-fp/floatsidf.c:42 (discriminator 126)
80005b26:	07b2                	slli	a5,a5,0xc
80005b28:	0752                	slli	a4,a4,0x14
80005b2a:	83b1                	srli	a5,a5,0xc
80005b2c:	057e                	slli	a0,a0,0x1f
80005b2e:	8fd9                	or	a5,a5,a4
/home/xl_ci/toolchain/riscv-gnu-toolchain/riscv-gcc/libgcc/soft-fp/floatsidf.c:45 (discriminator 126)
80005b30:	40b2                	lw	ra,12(sp)
/home/xl_ci/toolchain/riscv-gnu-toolchain/riscv-gcc/libgcc/soft-fp/floatsidf.c:42 (discriminator 126)
80005b32:	00a7e733          	or	a4,a5,a0
/home/xl_ci/toolchain/riscv-gnu-toolchain/riscv-gcc/libgcc/soft-fp/floatsidf.c:45 (discriminator 126)
80005b36:	8522                	mv	a0,s0
80005b38:	4422                	lw	s0,8(sp)
80005b3a:	4492                	lw	s1,4(sp)
80005b3c:	85ba                	mv	a1,a4
80005b3e:	0141                	addi	sp,sp,16
80005b40:	8082                	ret
/home/xl_ci/toolchain/riscv-gnu-toolchain/riscv-gcc/libgcc/soft-fp/floatsidf.c:41 (discriminator 24)
80005b42:	1555                	addi	a0,a0,-11
80005b44:	00a417b3          	sll	a5,s0,a0
80005b48:	8526                	mv	a0,s1
/home/xl_ci/toolchain/riscv-gnu-toolchain/riscv-gcc/libgcc/soft-fp/floatsidf.c:41
80005b4a:	4401                	li	s0,0
80005b4c:	bfe9                	j	80005b26 <__floatsidf+0x38>
80005b4e:	4701                	li	a4,0
80005b50:	4781                	li	a5,0
80005b52:	bfe5                	j	80005b4a <__floatsidf+0x5c>

80005b54 <__floatunsidf>:
__floatunsidf():
/home/xl_ci/toolchain/riscv-gnu-toolchain/riscv-gcc/libgcc/soft-fp/floatunsidf.c:37
80005b54:	1141                	addi	sp,sp,-16
80005b56:	c422                	sw	s0,8(sp)
80005b58:	c606                	sw	ra,12(sp)
80005b5a:	842a                	mv	s0,a0
/home/xl_ci/toolchain/riscv-gnu-toolchain/riscv-gcc/libgcc/soft-fp/floatunsidf.c:41
80005b5c:	c121                	beqz	a0,80005b9c <__floatunsidf+0x48>
/home/xl_ci/toolchain/riscv-gnu-toolchain/riscv-gcc/libgcc/soft-fp/floatunsidf.c:41 (discriminator 6)
80005b5e:	2441                	jal	80005dde <__clzsi2>
80005b60:	41e00713          	li	a4,1054
80005b64:	47a9                	li	a5,10
80005b66:	8f09                	sub	a4,a4,a0
80005b68:	02a7c463          	blt	a5,a0,80005b90 <__floatunsidf+0x3c>
/home/xl_ci/toolchain/riscv-gnu-toolchain/riscv-gcc/libgcc/soft-fp/floatunsidf.c:41 (discriminator 23)
80005b6c:	47ad                	li	a5,11
80005b6e:	8f89                	sub	a5,a5,a0
80005b70:	0555                	addi	a0,a0,21
80005b72:	00f457b3          	srl	a5,s0,a5
80005b76:	00a41433          	sll	s0,s0,a0
/home/xl_ci/toolchain/riscv-gnu-toolchain/riscv-gcc/libgcc/soft-fp/floatunsidf.c:45 (discriminator 126)
80005b7a:	40b2                	lw	ra,12(sp)
80005b7c:	8522                	mv	a0,s0
/home/xl_ci/toolchain/riscv-gnu-toolchain/riscv-gcc/libgcc/soft-fp/floatunsidf.c:42 (discriminator 126)
80005b7e:	07b2                	slli	a5,a5,0xc
/home/xl_ci/toolchain/riscv-gnu-toolchain/riscv-gcc/libgcc/soft-fp/floatunsidf.c:45 (discriminator 126)
80005b80:	4422                	lw	s0,8(sp)
/home/xl_ci/toolchain/riscv-gnu-toolchain/riscv-gcc/libgcc/soft-fp/floatunsidf.c:42 (discriminator 126)
80005b82:	0752                	slli	a4,a4,0x14
80005b84:	83b1                	srli	a5,a5,0xc
80005b86:	00f766b3          	or	a3,a4,a5
/home/xl_ci/toolchain/riscv-gnu-toolchain/riscv-gcc/libgcc/soft-fp/floatunsidf.c:45 (discriminator 126)
80005b8a:	85b6                	mv	a1,a3
80005b8c:	0141                	addi	sp,sp,16
80005b8e:	8082                	ret
/home/xl_ci/toolchain/riscv-gnu-toolchain/riscv-gcc/libgcc/soft-fp/floatunsidf.c:41 (discriminator 24)
80005b90:	ff550793          	addi	a5,a0,-11 # 7ffffff5 <_sp+0xeffefff5>
80005b94:	00f417b3          	sll	a5,s0,a5
80005b98:	4401                	li	s0,0
80005b9a:	b7c5                	j	80005b7a <__floatunsidf+0x26>
/home/xl_ci/toolchain/riscv-gnu-toolchain/riscv-gcc/libgcc/soft-fp/floatunsidf.c:41
80005b9c:	4781                	li	a5,0
80005b9e:	4701                	li	a4,0
80005ba0:	bfe9                	j	80005b7a <__floatunsidf+0x26>

80005ba2 <__trunctfdf2>:
__trunctfdf2():
/home/xl_ci/toolchain/riscv-gnu-toolchain/riscv-gcc/libgcc/soft-fp/trunctfdf2.c:37
80005ba2:	7179                	addi	sp,sp,-48
80005ba4:	451c                	lw	a5,8(a0)
80005ba6:	d422                	sw	s0,40(sp)
80005ba8:	4540                	lw	s0,12(a0)
80005baa:	4158                	lw	a4,4(a0)
80005bac:	4114                	lw	a3,0(a0)
/home/xl_ci/toolchain/riscv-gnu-toolchain/riscv-gcc/libgcc/soft-fp/trunctfdf2.c:44
80005bae:	c43e                	sw	a5,8(sp)
80005bb0:	cc3e                	sw	a5,24(sp)
80005bb2:	01041793          	slli	a5,s0,0x10
80005bb6:	c23a                	sw	a4,4(sp)
80005bb8:	ca3a                	sw	a4,20(sp)
80005bba:	83c1                	srli	a5,a5,0x10
80005bbc:	00141713          	slli	a4,s0,0x1
80005bc0:	c622                	sw	s0,12(sp)
/home/xl_ci/toolchain/riscv-gnu-toolchain/riscv-gcc/libgcc/soft-fp/trunctfdf2.c:37
80005bc2:	d606                	sw	ra,44(sp)
80005bc4:	d226                	sw	s1,36(sp)
/home/xl_ci/toolchain/riscv-gnu-toolchain/riscv-gcc/libgcc/soft-fp/trunctfdf2.c:44
80005bc6:	c036                	sw	a3,0(sp)
80005bc8:	c836                	sw	a3,16(sp)
80005bca:	ce3e                	sw	a5,28(sp)
80005bcc:	8345                	srli	a4,a4,0x11
80005bce:	807d                	srli	s0,s0,0x1f
80005bd0:	0808                	addi	a0,sp,16
80005bd2:	0870                	addi	a2,sp,28
/home/xl_ci/toolchain/riscv-gnu-toolchain/riscv-gcc/libgcc/soft-fp/trunctfdf2.c:44 (discriminator 8)
80005bd4:	421c                	lw	a5,0(a2)
80005bd6:	ffc62683          	lw	a3,-4(a2) # 7feffffc <__stack_size+0x7feff7fc>
80005bda:	1671                	addi	a2,a2,-4
80005bdc:	078e                	slli	a5,a5,0x3
80005bde:	82f5                	srli	a3,a3,0x1d
80005be0:	8fd5                	or	a5,a5,a3
80005be2:	c25c                	sw	a5,4(a2)
80005be4:	fec518e3          	bne	a0,a2,80005bd4 <__trunctfdf2+0x32>
/home/xl_ci/toolchain/riscv-gnu-toolchain/riscv-gcc/libgcc/soft-fp/trunctfdf2.c:44 (discriminator 9)
80005be8:	46c2                	lw	a3,16(sp)
/home/xl_ci/toolchain/riscv-gnu-toolchain/riscv-gcc/libgcc/soft-fp/trunctfdf2.c:46 (discriminator 9)
80005bea:	00170793          	addi	a5,a4,1
/home/xl_ci/toolchain/riscv-gnu-toolchain/riscv-gcc/libgcc/soft-fp/trunctfdf2.c:44 (discriminator 9)
80005bee:	00369593          	slli	a1,a3,0x3
/home/xl_ci/toolchain/riscv-gnu-toolchain/riscv-gcc/libgcc/soft-fp/trunctfdf2.c:46 (discriminator 9)
80005bf2:	66a1                	lui	a3,0x8
80005bf4:	16f9                	addi	a3,a3,-2
/home/xl_ci/toolchain/riscv-gnu-toolchain/riscv-gcc/libgcc/soft-fp/trunctfdf2.c:44 (discriminator 9)
80005bf6:	c82e                	sw	a1,16(sp)
/home/xl_ci/toolchain/riscv-gnu-toolchain/riscv-gcc/libgcc/soft-fp/trunctfdf2.c:46 (discriminator 9)
80005bf8:	8ff5                	and	a5,a5,a3
80005bfa:	12078f63          	beqz	a5,80005d38 <__trunctfdf2+0x196>
/home/xl_ci/toolchain/riscv-gnu-toolchain/riscv-gcc/libgcc/soft-fp/trunctfdf2.c:46 (discriminator 1)
80005bfe:	77f1                	lui	a5,0xffffc
80005c00:	40078793          	addi	a5,a5,1024 # ffffc400 <_sp+0x6ffec400>
80005c04:	973e                	add	a4,a4,a5
80005c06:	7fe00793          	li	a5,2046
80005c0a:	16e7c363          	blt	a5,a4,80005d70 <__trunctfdf2+0x1ce>
/home/xl_ci/toolchain/riscv-gnu-toolchain/riscv-gcc/libgcc/soft-fp/trunctfdf2.c:46 (discriminator 4)
80005c0e:	04e05663          	blez	a4,80005c5a <__trunctfdf2+0xb8>
/home/xl_ci/toolchain/riscv-gnu-toolchain/riscv-gcc/libgcc/soft-fp/trunctfdf2.c:46
80005c12:	4562                	lw	a0,24(sp)
80005c14:	4672                	lw	a2,28(sp)
80005c16:	47d2                	lw	a5,20(sp)
80005c18:	01c55693          	srli	a3,a0,0x1c
80005c1c:	0612                	slli	a2,a2,0x4
80005c1e:	8e55                	or	a2,a2,a3
80005c20:	00479693          	slli	a3,a5,0x4
80005c24:	8ecd                	or	a3,a3,a1
80005c26:	83f1                	srli	a5,a5,0x1c
80005c28:	0512                	slli	a0,a0,0x4
80005c2a:	00d036b3          	snez	a3,a3
80005c2e:	8fc9                	or	a5,a5,a0
80005c30:	8edd                	or	a3,a3,a5
80005c32:	ca32                	sw	a2,20(sp)
80005c34:	c836                	sw	a3,16(sp)
/home/xl_ci/toolchain/riscv-gnu-toolchain/riscv-gcc/libgcc/soft-fp/trunctfdf2.c:46 (discriminator 59)
80005c36:	46c2                	lw	a3,16(sp)
80005c38:	47d2                	lw	a5,20(sp)
/home/xl_ci/toolchain/riscv-gnu-toolchain/riscv-gcc/libgcc/soft-fp/trunctfdf2.c:50 (discriminator 117)
80005c3a:	0076f613          	andi	a2,a3,7
80005c3e:	12060d63          	beqz	a2,80005d78 <__trunctfdf2+0x1d6>
/home/xl_ci/toolchain/riscv-gnu-toolchain/riscv-gcc/libgcc/soft-fp/trunctfdf2.c:50 (discriminator 37)
80005c42:	00f6f613          	andi	a2,a3,15
80005c46:	4591                	li	a1,4
80005c48:	12b60863          	beq	a2,a1,80005d78 <__trunctfdf2+0x1d6>
/home/xl_ci/toolchain/riscv-gnu-toolchain/riscv-gcc/libgcc/soft-fp/trunctfdf2.c:50 (discriminator 44)
80005c4c:	00468613          	addi	a2,a3,4 # 8004 <__stack_size+0x7804>
80005c50:	00d636b3          	sltu	a3,a2,a3
80005c54:	97b6                	add	a5,a5,a3
80005c56:	86b2                	mv	a3,a2
80005c58:	a205                	j	80005d78 <__trunctfdf2+0x1d6>
/home/xl_ci/toolchain/riscv-gnu-toolchain/riscv-gcc/libgcc/soft-fp/trunctfdf2.c:46 (discriminator 18)
80005c5a:	fcc00793          	li	a5,-52
80005c5e:	00f75763          	bge	a4,a5,80005c6c <__trunctfdf2+0xca>
/home/xl_ci/toolchain/riscv-gnu-toolchain/riscv-gcc/libgcc/soft-fp/trunctfdf2.c:46 (discriminator 20)
80005c62:	ca02                	sw	zero,20(sp)
80005c64:	4785                	li	a5,1
/home/xl_ci/toolchain/riscv-gnu-toolchain/riscv-gcc/libgcc/soft-fp/trunctfdf2.c:46 (discriminator 37)
80005c66:	c83e                	sw	a5,16(sp)
80005c68:	4701                	li	a4,0
80005c6a:	b7f1                	j	80005c36 <__trunctfdf2+0x94>
/home/xl_ci/toolchain/riscv-gnu-toolchain/riscv-gcc/libgcc/soft-fp/trunctfdf2.c:46 (discriminator 21)
80005c6c:	47f2                	lw	a5,28(sp)
80005c6e:	000808b7          	lui	a7,0x80
/home/xl_ci/toolchain/riscv-gnu-toolchain/riscv-gcc/libgcc/soft-fp/trunctfdf2.c:44 (discriminator 21)
80005c72:	85aa                	mv	a1,a0
/home/xl_ci/toolchain/riscv-gnu-toolchain/riscv-gcc/libgcc/soft-fp/trunctfdf2.c:46 (discriminator 21)
80005c74:	00f8e8b3          	or	a7,a7,a5
80005c78:	03d00793          	li	a5,61
80005c7c:	40e78733          	sub	a4,a5,a4
80005c80:	ce46                	sw	a7,28(sp)
80005c82:	40575793          	srai	a5,a4,0x5
80005c86:	4681                	li	a3,0
80005c88:	4481                	li	s1,0
/home/xl_ci/toolchain/riscv-gnu-toolchain/riscv-gcc/libgcc/soft-fp/trunctfdf2.c:46 (discriminator 25)
80005c8a:	0005a803          	lw	a6,0(a1)
80005c8e:	0685                	addi	a3,a3,1
80005c90:	0591                	addi	a1,a1,4
80005c92:	0104e4b3          	or	s1,s1,a6
80005c96:	fed79ae3          	bne	a5,a3,80005c8a <__trunctfdf2+0xe8>
/home/xl_ci/toolchain/riscv-gnu-toolchain/riscv-gcc/libgcc/soft-fp/trunctfdf2.c:46 (discriminator 26)
80005c9a:	8b7d                	andi	a4,a4,31
80005c9c:	00279693          	slli	a3,a5,0x2
80005ca0:	e30d                	bnez	a4,80005cc2 <__trunctfdf2+0x120>
/home/xl_ci/toolchain/riscv-gnu-toolchain/riscv-gcc/libgcc/soft-fp/trunctfdf2.c:46
80005ca2:	458d                	li	a1,3
80005ca4:	8d9d                	sub	a1,a1,a5
/home/xl_ci/toolchain/riscv-gnu-toolchain/riscv-gcc/libgcc/soft-fp/trunctfdf2.c:46 (discriminator 31)
80005ca6:	00d60833          	add	a6,a2,a3
80005caa:	00082803          	lw	a6,0(a6)
80005cae:	0705                	addi	a4,a4,1
80005cb0:	01062023          	sw	a6,0(a2)
80005cb4:	0611                	addi	a2,a2,4
80005cb6:	fee5d8e3          	bge	a1,a4,80005ca6 <__trunctfdf2+0x104>
80005cba:	4711                	li	a4,4
80005cbc:	40f707b3          	sub	a5,a4,a5
80005cc0:	a83d                	j	80005cfe <__trunctfdf2+0x15c>
80005cc2:	5e71                	li	t3,-4
80005cc4:	03c78e33          	mul	t3,a5,t3
/home/xl_ci/toolchain/riscv-gnu-toolchain/riscv-gcc/libgcc/soft-fp/trunctfdf2.c:46 (discriminator 28)
80005cc8:	1010                	addi	a2,sp,32
80005cca:	9636                	add	a2,a2,a3
80005ccc:	ff062603          	lw	a2,-16(a2)
80005cd0:	02000813          	li	a6,32
80005cd4:	40e80833          	sub	a6,a6,a4
80005cd8:	01061633          	sll	a2,a2,a6
80005cdc:	8cd1                	or	s1,s1,a2
80005cde:	460d                	li	a2,3
80005ce0:	96aa                	add	a3,a3,a0
80005ce2:	4301                	li	t1,0
80005ce4:	8e1d                	sub	a2,a2,a5
/home/xl_ci/toolchain/riscv-gnu-toolchain/riscv-gcc/libgcc/soft-fp/trunctfdf2.c:46 (discriminator 32)
80005ce6:	02c34963          	blt	t1,a2,80005d18 <__trunctfdf2+0x176>
/home/xl_ci/toolchain/riscv-gnu-toolchain/riscv-gcc/libgcc/soft-fp/trunctfdf2.c:46 (discriminator 35)
80005cea:	4691                	li	a3,4
80005cec:	40f687b3          	sub	a5,a3,a5
80005cf0:	060a                	slli	a2,a2,0x2
80005cf2:	1014                	addi	a3,sp,32
80005cf4:	9636                	add	a2,a2,a3
80005cf6:	00e8d733          	srl	a4,a7,a4
80005cfa:	fee62823          	sw	a4,-16(a2)
/home/xl_ci/toolchain/riscv-gnu-toolchain/riscv-gcc/libgcc/soft-fp/trunctfdf2.c:46 (discriminator 37)
80005cfe:	4611                	li	a2,4
80005d00:	8e1d                	sub	a2,a2,a5
80005d02:	078a                	slli	a5,a5,0x2
80005d04:	953e                	add	a0,a0,a5
80005d06:	060a                	slli	a2,a2,0x2
80005d08:	4581                	li	a1,0
80005d0a:	ccafd0ef          	jal	ra,800031d4 <memset>
80005d0e:	4742                	lw	a4,16(sp)
80005d10:	009037b3          	snez	a5,s1
80005d14:	8fd9                	or	a5,a5,a4
80005d16:	bf81                	j	80005c66 <__trunctfdf2+0xc4>
/home/xl_ci/toolchain/riscv-gnu-toolchain/riscv-gcc/libgcc/soft-fp/trunctfdf2.c:46 (discriminator 34)
80005d18:	428c                	lw	a1,0(a3)
80005d1a:	0046ae83          	lw	t4,4(a3)
80005d1e:	01c68f33          	add	t5,a3,t3
80005d22:	00e5d5b3          	srl	a1,a1,a4
80005d26:	010e9eb3          	sll	t4,t4,a6
80005d2a:	01d5e5b3          	or	a1,a1,t4
80005d2e:	00bf2023          	sw	a1,0(t5)
80005d32:	0305                	addi	t1,t1,1
80005d34:	0691                	addi	a3,a3,4
80005d36:	bf45                	j	80005ce6 <__trunctfdf2+0x144>
/home/xl_ci/toolchain/riscv-gnu-toolchain/riscv-gcc/libgcc/soft-fp/trunctfdf2.c:46 (discriminator 2)
80005d38:	4652                	lw	a2,20(sp)
80005d3a:	47e2                	lw	a5,24(sp)
80005d3c:	4572                	lw	a0,28(sp)
80005d3e:	00f666b3          	or	a3,a2,a5
80005d42:	8ec9                	or	a3,a3,a0
80005d44:	8ecd                	or	a3,a3,a1
80005d46:	e709                	bnez	a4,80005d50 <__trunctfdf2+0x1ae>
/home/xl_ci/toolchain/riscv-gnu-toolchain/riscv-gcc/libgcc/soft-fp/trunctfdf2.c:46 (discriminator 65)
80005d48:	00d036b3          	snez	a3,a3
80005d4c:	4781                	li	a5,0
80005d4e:	b5f5                	j	80005c3a <__trunctfdf2+0x98>
/home/xl_ci/toolchain/riscv-gnu-toolchain/riscv-gcc/libgcc/soft-fp/trunctfdf2.c:46 (discriminator 62)
80005d50:	c2d1                	beqz	a3,80005dd4 <__trunctfdf2+0x232>
/home/xl_ci/toolchain/riscv-gnu-toolchain/riscv-gcc/libgcc/soft-fp/trunctfdf2.c:46
80005d52:	01c65693          	srli	a3,a2,0x1c
80005d56:	0512                	slli	a0,a0,0x4
80005d58:	00479613          	slli	a2,a5,0x4
80005d5c:	83f1                	srli	a5,a5,0x1c
80005d5e:	00400737          	lui	a4,0x400
80005d62:	8ed1                	or	a3,a3,a2
80005d64:	8fc9                	or	a5,a5,a0
80005d66:	8fd9                	or	a5,a5,a4
80005d68:	9ae1                	andi	a3,a3,-8
80005d6a:	7ff00713          	li	a4,2047
80005d6e:	b5f1                	j	80005c3a <__trunctfdf2+0x98>
80005d70:	4781                	li	a5,0
80005d72:	4681                	li	a3,0
80005d74:	7ff00713          	li	a4,2047
/home/xl_ci/toolchain/riscv-gnu-toolchain/riscv-gcc/libgcc/soft-fp/trunctfdf2.c:50 (discriminator 47)
80005d78:	00800637          	lui	a2,0x800
80005d7c:	8e7d                	and	a2,a2,a5
80005d7e:	ca11                	beqz	a2,80005d92 <__trunctfdf2+0x1f0>
/home/xl_ci/toolchain/riscv-gnu-toolchain/riscv-gcc/libgcc/soft-fp/trunctfdf2.c:50 (discriminator 63)
80005d80:	0705                	addi	a4,a4,1
80005d82:	7ff00613          	li	a2,2047
80005d86:	04c70963          	beq	a4,a2,80005dd8 <__trunctfdf2+0x236>
/home/xl_ci/toolchain/riscv-gnu-toolchain/riscv-gcc/libgcc/soft-fp/trunctfdf2.c:50
80005d8a:	ff800637          	lui	a2,0xff800
80005d8e:	167d                	addi	a2,a2,-1
80005d90:	8ff1                	and	a5,a5,a2
/home/xl_ci/toolchain/riscv-gnu-toolchain/riscv-gcc/libgcc/soft-fp/trunctfdf2.c:50 (discriminator 79)
80005d92:	01d79613          	slli	a2,a5,0x1d
80005d96:	828d                	srli	a3,a3,0x3
80005d98:	8ed1                	or	a3,a3,a2
80005d9a:	7ff00613          	li	a2,2047
80005d9e:	838d                	srli	a5,a5,0x3
80005da0:	00c71963          	bne	a4,a2,80005db2 <__trunctfdf2+0x210>
/home/xl_ci/toolchain/riscv-gnu-toolchain/riscv-gcc/libgcc/soft-fp/trunctfdf2.c:50 (discriminator 80)
80005da4:	8edd                	or	a3,a3,a5
80005da6:	4781                	li	a5,0
80005da8:	c689                	beqz	a3,80005db2 <__trunctfdf2+0x210>
/home/xl_ci/toolchain/riscv-gnu-toolchain/riscv-gcc/libgcc/soft-fp/trunctfdf2.c:50
80005daa:	000807b7          	lui	a5,0x80
80005dae:	4681                	li	a3,0
80005db0:	4401                	li	s0,0
/home/xl_ci/toolchain/riscv-gnu-toolchain/riscv-gcc/libgcc/soft-fp/trunctfdf2.c:50 (discriminator 90)
80005db2:	0752                	slli	a4,a4,0x14
80005db4:	7ff00637          	lui	a2,0x7ff00
80005db8:	07b2                	slli	a5,a5,0xc
80005dba:	8f71                	and	a4,a4,a2
80005dbc:	83b1                	srli	a5,a5,0xc
80005dbe:	047e                	slli	s0,s0,0x1f
80005dc0:	8fd9                	or	a5,a5,a4
/home/xl_ci/toolchain/riscv-gnu-toolchain/riscv-gcc/libgcc/soft-fp/trunctfdf2.c:54 (discriminator 90)
80005dc2:	50b2                	lw	ra,44(sp)
/home/xl_ci/toolchain/riscv-gnu-toolchain/riscv-gcc/libgcc/soft-fp/trunctfdf2.c:50 (discriminator 90)
80005dc4:	0087e733          	or	a4,a5,s0
/home/xl_ci/toolchain/riscv-gnu-toolchain/riscv-gcc/libgcc/soft-fp/trunctfdf2.c:54 (discriminator 90)
80005dc8:	5422                	lw	s0,40(sp)
80005dca:	5492                	lw	s1,36(sp)
80005dcc:	8536                	mv	a0,a3
80005dce:	85ba                	mv	a1,a4
80005dd0:	6145                	addi	sp,sp,48
80005dd2:	8082                	ret
80005dd4:	4781                	li	a5,0
80005dd6:	bf79                	j	80005d74 <__trunctfdf2+0x1d2>
80005dd8:	4781                	li	a5,0
80005dda:	4681                	li	a3,0
80005ddc:	bf5d                	j	80005d92 <__trunctfdf2+0x1f0>

80005dde <__clzsi2>:
__clzsi2():
/home/xl_ci/toolchain/riscv-gnu-toolchain/riscv-gcc/libgcc/libgcc2.c:710
80005dde:	67c1                	lui	a5,0x10
80005de0:	02f57663          	bgeu	a0,a5,80005e0c <__clzsi2+0x2e>
/home/xl_ci/toolchain/riscv-gnu-toolchain/riscv-gcc/libgcc/libgcc2.c:710 (discriminator 3)
80005de4:	0ff00793          	li	a5,255
80005de8:	00a7b7b3          	sltu	a5,a5,a0
80005dec:	078e                	slli	a5,a5,0x3
/home/xl_ci/toolchain/riscv-gnu-toolchain/riscv-gcc/libgcc/libgcc2.c:710 (discriminator 14)
80005dee:	02000713          	li	a4,32
80005df2:	8f1d                	sub	a4,a4,a5
80005df4:	00f55533          	srl	a0,a0,a5
80005df8:	00000797          	auipc	a5,0x0
80005dfc:	10478793          	addi	a5,a5,260 # 80005efc <__clz_tab>
80005e00:	953e                	add	a0,a0,a5
80005e02:	00054503          	lbu	a0,0(a0)
/home/xl_ci/toolchain/riscv-gnu-toolchain/riscv-gcc/libgcc/libgcc2.c:713 (discriminator 14)
80005e06:	40a70533          	sub	a0,a4,a0
80005e0a:	8082                	ret
/home/xl_ci/toolchain/riscv-gnu-toolchain/riscv-gcc/libgcc/libgcc2.c:710 (discriminator 4)
80005e0c:	01000737          	lui	a4,0x1000
80005e10:	47c1                	li	a5,16
80005e12:	fce56ee3          	bltu	a0,a4,80005dee <__clzsi2+0x10>
/home/xl_ci/toolchain/riscv-gnu-toolchain/riscv-gcc/libgcc/libgcc2.c:710
80005e16:	47e1                	li	a5,24
80005e18:	bfd9                	j	80005dee <__clzsi2+0x10>
