
nice_ddr200.elf:     file format elf32-littleriscv
nice_ddr200.elf
architecture: riscv:rv32, flags 0x00000112:
EXEC_P, HAS_SYMS, D_PAGED
start address 0x80000000

Program Header:
    LOAD off    0x00001000 vaddr 0x80000000 paddr 0x80000000 align 2**12
         filesz 0x00007874 memsz 0x00007874 flags rwx
    LOAD off    0x00009000 vaddr 0x90000000 paddr 0x80007874 align 2**12
         filesz 0x00000234 memsz 0x00000234 flags rw-
    LOAD off    0x00000234 vaddr 0x90000234 paddr 0x90000234 align 2**12
         filesz 0x00000000 memsz 0x00000134 flags rw-
    LOAD off    0x00000800 vaddr 0x9000f800 paddr 0x90000368 align 2**12
         filesz 0x00000000 memsz 0x00000800 flags rw-

Sections:
Idx Name              Size      VMA       LMA       File off  Algn  Flags
  0 .init             000000ba  80000000  80000000  00001000  2**0  CONTENTS, ALLOC, LOAD, READONLY, CODE
  1 .ilalign          00000002  800000ba  800000ba  000010ba  2**0  ALLOC
  2 .text             00006dfe  800000bc  800000bc  000010bc  2**2  CONTENTS, ALLOC, LOAD, READONLY, CODE
  3 .rodata           000009b4  80006ec0  80006ec0  00007ec0  2**3  CONTENTS, ALLOC, LOAD, READONLY, DATA
  4 .lalign           00000000  80007874  80007874  00009234  2**0  CONTENTS
  5 .dalign           00000000  90000000  90000000  00009234  2**0  CONTENTS
  6 .data             00000234  90000000  80007874  00009000  2**3  CONTENTS, ALLOC, LOAD, DATA
  7 .bss              00000134  90000234  90000234  00009234  2**2  ALLOC
  8 .stack            00000800  9000f800  90000368  00009800  2**0  ALLOC
  9 .debug_info       00006f4b  00000000  00000000  00009234  2**0  CONTENTS, READONLY, DEBUGGING, OCTETS
 10 .debug_abbrev     0000258a  00000000  00000000  0001017f  2**0  CONTENTS, READONLY, DEBUGGING, OCTETS
 11 .debug_loc        00007081  00000000  00000000  00012709  2**0  CONTENTS, READONLY, DEBUGGING, OCTETS
 12 .debug_aranges    00000560  00000000  00000000  00019790  2**3  CONTENTS, READONLY, DEBUGGING, OCTETS
 13 .debug_ranges     000015b8  00000000  00000000  00019cf0  2**0  CONTENTS, READONLY, DEBUGGING, OCTETS
 14 .debug_line       0000a93e  00000000  00000000  0001b2a8  2**0  CONTENTS, READONLY, DEBUGGING, OCTETS
 15 .debug_str        00001e6c  00000000  00000000  00025be6  2**0  CONTENTS, READONLY, DEBUGGING, OCTETS
 16 .comment          00000012  00000000  00000000  00027a52  2**0  CONTENTS, READONLY
 17 .riscv.attributes 0000002f  00000000  00000000  00027a64  2**0  CONTENTS, READONLY
 18 .debug_frame      00000874  00000000  00000000  00027a94  2**2  CONTENTS, READONLY, DEBUGGING, OCTETS
SYMBOL TABLE:
80000000 l    d  .init	00000000 .init
800000ba l    d  .ilalign	00000000 .ilalign
800000bc l    d  .text	00000000 .text
80006ec0 l    d  .rodata	00000000 .rodata
80007874 l    d  .lalign	00000000 .lalign
90000000 l    d  .dalign	00000000 .dalign
90000000 l    d  .data	00000000 .data
90000234 l    d  .bss	00000000 .bss
9000f800 l    d  .stack	00000000 .stack
00000000 l    d  .debug_info	00000000 .debug_info
00000000 l    d  .debug_abbrev	00000000 .debug_abbrev
00000000 l    d  .debug_loc	00000000 .debug_loc
00000000 l    d  .debug_aranges	00000000 .debug_aranges
00000000 l    d  .debug_ranges	00000000 .debug_ranges
00000000 l    d  .debug_line	00000000 .debug_line
00000000 l    d  .debug_str	00000000 .debug_str
00000000 l    d  .comment	00000000 .comment
00000000 l    d  .riscv.attributes	00000000 .riscv.attributes
00000000 l    d  .debug_frame	00000000 .debug_frame
00000000 l    df *ABS*	00000000 demo_nice.c
00000000 l    df *ABS*	00000000 close.c
00000000 l    df *ABS*	00000000 exit.c
00000000 l    df *ABS*	00000000 fstat.c
00000000 l    df *ABS*	00000000 getpid.c
00000000 l    df *ABS*	00000000 isatty.c
00000000 l    df *ABS*	00000000 kill.c
00000000 l    df *ABS*	00000000 lseek.c
00000000 l    df *ABS*	00000000 read.c
00000000 l    df *ABS*	00000000 sbrk.c
900001d0 l     O .data	00000004 curbrk.0
00000000 l    df *ABS*	00000000 write.c
00000000 l    df *ABS*	00000000 hbirdv2_gpio.c
00000000 l    df *ABS*	00000000 hbirdv2_uart.c
00000000 l    df *ABS*	00000000 hbirdv2_common.c
00000000 l    df *ABS*	00000000 system_hbirdv2.c
80000acc l     F .text	00000044 system_default_exception_handler
80000b14 l     F .text	00000048 system_default_interrupt_handler
90000244 l     O .bss	00000028 SystemCoreInterruptHandlers
9000026c l     O .bss	0000002c SystemExceptionHandlers
90000298 l     O .bss	00000044 SystemExtInterruptHandlers
00000000 l    df *ABS*	00000000 insn.c
00000000 l    df *ABS*	00000000 libgcc2.c
00000000 l    df *ABS*	00000000 atexit.c
00000000 l    df *ABS*	00000000 fini.c
00000000 l    df *ABS*	00000000 init.c
00000000 l    df *ABS*	00000000 nano-vfprintf_float.c
00000000 l    df *ABS*	00000000 nano-vfprintf_i.c
00000000 l    df *ABS*	00000000 printf.c
00000000 l    df *ABS*	00000000 putchar.c
00000000 l    df *ABS*	00000000 puts.c
00000000 l    df *ABS*	00000000 strlen.c
00000000 l    df *ABS*	00000000 sysisatty.c
00000000 l    df *ABS*	00000000 wbuf.c
00000000 l    df *ABS*	00000000 wsetup.c
00000000 l    df *ABS*	00000000 __atexit.c
900002dc l     O .bss	0000008c _global_atexit0
00000000 l    df *ABS*	00000000 dtoa.c
80002e8e l     F .text	0000012c quorem
00000000 l    df *ABS*	00000000 fflush.c
00000000 l    df *ABS*	00000000 findfp.c
80003dba l     F .text	00000068 std
00000000 l    df *ABS*	00000000 fwalk.c
00000000 l    df *ABS*	00000000 localeconv.c
00000000 l    df *ABS*	00000000 makebuf.c
00000000 l    df *ABS*	00000000 malloc.c
00000000 l    df *ABS*	00000000 memchr.c
00000000 l    df *ABS*	00000000 memcpy.c
00000000 l    df *ABS*	00000000 mprec.c
80007688 l     O .rodata	0000000c p05.0
00000000 l    df *ABS*	00000000 nano-mallocr.c
00000000 l    df *ABS*	00000000 nano-mallocr.c
00000000 l    df *ABS*	00000000 nano-mallocr.c
00000000 l    df *ABS*	00000000 nano-vfprintf.c
80004cba l     F .text	0000002a __sfputc_r
00000000 l    df *ABS*	00000000 putc.c
00000000 l    df *ABS*	00000000 sbrkr.c
00000000 l    df *ABS*	00000000 stdio.c
00000000 l    df *ABS*	00000000 writer.c
00000000 l    df *ABS*	00000000 assert.c
00000000 l    df *ABS*	00000000 closer.c
00000000 l    df *ABS*	00000000 fprintf.c
00000000 l    df *ABS*	00000000 fstatr.c
00000000 l    df *ABS*	00000000 isattyr.c
00000000 l    df *ABS*	00000000 lseekr.c
00000000 l    df *ABS*	00000000 mbtowc_r.c
00000000 l    df *ABS*	00000000 mlock.c
00000000 l    df *ABS*	00000000 readr.c
00000000 l    df *ABS*	00000000 wctomb_r.c
00000000 l    df *ABS*	00000000 abort.c
00000000 l    df *ABS*	00000000 signal.c
00000000 l    df *ABS*	00000000 signalr.c
00000000 l    df *ABS*	00000000 adddf3.c
00000000 l    df *ABS*	00000000 divdf3.c
00000000 l    df *ABS*	00000000 eqdf2.c
00000000 l    df *ABS*	00000000 gedf2.c
00000000 l    df *ABS*	00000000 ledf2.c
00000000 l    df *ABS*	00000000 muldf3.c
00000000 l    df *ABS*	00000000 subdf3.c
00000000 l    df *ABS*	00000000 unorddf2.c
00000000 l    df *ABS*	00000000 fixdfsi.c
00000000 l    df *ABS*	00000000 floatsidf.c
00000000 l    df *ABS*	00000000 floatunsidf.c
00000000 l    df *ABS*	00000000 trunctfdf2.c
00000000 l    df *ABS*	00000000 libgcc2.c
00000000 l    df *ABS*	00000000 libgcc2.c
00000000 l    df *ABS*	00000000 locale.c
00000000 l    df *ABS*	00000000 ctype_.c
00000000 l    df *ABS*	00000000 impure.c
90000000 l     O .data	00000060 impure_data
00000000 l    df *ABS*	00000000 
80007874 l       .rodata	00000000 __fini_array_end
80007874 l       .rodata	00000000 __fini_array_start
80007874 l       .rodata	00000000 __init_array_end
80007874 l       .rodata	00000000 __preinit_array_end
80007874 l       .rodata	00000000 __init_array_start
80007874 l       .rodata	00000000 __preinit_array_start
800020fc g     F .text	000000ec __cvt
80002b16 g     F .text	0000002e putchar
8000520e g     F .text	00000028 _isatty_r
80000398  w    F .text	00000004 _getpid
80002b44 g     F .text	000000de _puts_r
80005236 g     F .text	0000002c _lseek_r
80005ee0 g     F .text	0000006a .hidden __eqdf2
80005368 g     F .text	0000002a _kill_r
80002ad6 g     F .text	00000040 printf
900009d0 g       .data	00000000 __global_pointer$
800050f0 g     F .text	00000036 __sseek
80003e72 g     F .text	00000066 __sinit
80002c44 g     F .text	000000c6 __swbuf_r
80003e2c g     F .text	00000046 __sfmoreglue
8000529e g     F .text	00000002 __malloc_unlock
8000428c g     F .text	000000ac _Balloc
80005f4a g     F .text	000000a6 .hidden __gtdf2
800051e4 g     F .text	0000002a _fstat_r
90000234 g     O .bss	00000004 errno
00000800 g       *ABS*	00000000 __stack_size
8000077c g     F .text	00000064 uart_write
80007874 g       .rodata	00000000 __rt_init_start
80007874 g       .rodata	00000000 __fsymtab_end
800000bc g       .ilalign	00000000 _ilm_lma
80004108 g     F .text	000000dc memcpy
80003e22 g     F .text	0000000a _cleanup_r
80006b8e g     F .text	00000066 .hidden __floatsidf
80005ff0 g     F .text	000000a6 .hidden __ltdf2
80002c22 g     F .text	0000000c puts
80007874 g       .rodata	00000000 __rt_init_end
900001d4 g     O .data	00000004 SystemCoreClock
800040e0 g     F .text	0000000e malloc
80002c40 g     F .text	00000004 isatty
800052fa g     F .text	00000062 _raise_r
80000378  w    F .text	0000001e _fstat
80005158 g     F .text	0000003a __assert_func
80000848 g     F .text	00000280 get_cpu_freq
800075c0 g     O .rodata	000000c8 __mprec_tens
80005392 g     F .text	00000004 _getpid_r
80003fda g     F .text	0000000a _localeconv_r
80004504 g     F .text	00000036 __i2b
8000504a g     F .text	00000028 _sbrk_r
800052a0 g     F .text	0000002c _read_r
80007874 g       .rodata	00000000 _eilm
80005396 g     F .text	0000060a .hidden __adddf3
9000f800 g       .stack	00000000 _heap_end
800003a0  w    F .text	00000004 _isatty
90000230 g     O .data	00000004 _global_impure_ptr
8000209e g     F .text	0000005e __libc_init_array
80001cfc g     F .text	00000360 .hidden __udivdi3
80007598 g     O .rodata	00000028 __mprec_bigtens
800052ec g     F .text	0000000e abort
80006bf4 g     F .text	0000004e .hidden __floatunsidf
800003e4  w    F .text	0000002e _sbrk
80004892 g     F .text	00000036 __mcmp
80000f58 g     F .text	00000002 _init
80002068 g     F .text	00000036 __libc_fini_array
80004454 g     F .text	00000046 __hi0bits
800000bc g       .ilalign	00000000 _ilm
80006b2a g     F .text	00000064 .hidden __fixdfsi
80004fc4 g     F .text	00000086 _putc_r
80000c40 g     F .text	00000314 _premain_init
800051ba g     F .text	0000002a fprintf
80005ff0 g     F .text	000000a6 .hidden __ledf2
800046ba g     F .text	000000d4 __pow5mult
800074e4 g     O .rodata	00000020 __sf_fake_stderr
80000b74 g     F .text	000000ca core_trap_handler
80006e7e g     F .text	0000003c .hidden __clzsi2
80004ce4 g     F .text	00000042 __sfputs_r
80000734 g     F .text	00000044 uart_init
800040ee g     F .text	0000001a memchr
80002284  w    F .text	000004d4 _printf_float
80004b48 g     F .text	000000a2 _free_r
90000238 g     O .bss	00000004 _global_atexit
90010000 g       .stack	00000000 _sp
80000000 g     F .init	00000000 _start
800003b4  w    F .text	00000004 _lseek
8000478e g     F .text	00000104 __lshift
80002e1a g     F .text	00000074 __register_exitproc
8000453a g     F .text	00000180 __multiply
80004a24 g     F .text	000000ee __d2b
80005192 g     F .text	00000028 _close_r
8000164c g     F .text	000006ae nice_case
80002d0a g     F .text	00000110 __swsetup_r
800059a0 g     F .text	00000540 .hidden __divdf3
80003ed8 g     F .text	00000098 __sfp
80006096 g     F .text	00000442 .hidden __muldf3
80005072 g     F .text	00000030 __sread
80000f60 g     F .text	000006e8 normal_case
8000529c g     F .text	00000002 __malloc_lock
80003d56 g     F .text	00000064 _fflush_r
80004b12 g     F .text	00000036 _calloc_r
80007504 g     O .rodata	00000020 __sf_fake_stdin
90000234 g       .bss	00000000 __bss_start
800041e4 g     F .text	000000a8 memset
800000bc g     F .text	0000028a main
800006a4  w      .text	00000000 trap_entry
80005126 g     F .text	00000006 __sclose
80002fba g     F .text	00000c54 _dtoa_r
80004bea g     F .text	000000d0 _malloc_r
800052cc g     F .text	00000020 __ascii_wctomb
80007874 g       .rodata	00000000 __vsymtab_start
80000b60 g     F .text	00000012 SystemInit
80005ee0 g     F .text	0000006a .hidden __nedf2
80000f5c g     F .text	00000002 _fini
80002ad6 g     F .text	00000040 iprintf
800072c0 g     O .rodata	00000100 .hidden __clz_tab
800021e8 g     F .text	0000009c __exponent
8000205c g     F .text	0000000c atexit
8000512c g     F .text	0000002c _write_r
80002758 g     F .text	0000010c _printf_common
900001d8 g     O .data	00000004 _impure_ptr
80003c0e g     F .text	00000148 __sflush_r
80005262 g     F .text	0000003a __ascii_mbtowc
90000000 g       .dalign	00000000 _data
80007874 g       .rodata	00000000 __vsymtab_end
80003fe4 g     F .text	0000005c __swhatbuf_r
80000414  w    F .text	0000028e _write
90000234 g       .bss	00000000 _edata
80000f54 g     F .text	00000002 _postmain_fini
90000368 g       .bss	00000000 _end
80007874 g       .lalign	00000000 _data_lma
800007e0 g     F .text	00000066 uart_read
800050a2 g     F .text	0000004e __swrite
800051ba g     F .text	0000002a fiprintf
80004d26 g     F .text	0000029e _vfiprintf_r
80003f70 g     F .text	0000006a _fwalk_reent
800048c8 g     F .text	0000015c __mdiff
800003a8  w    F .text	0000000a _kill
80007524 g     O .rodata	00000020 __sf_fake_stdout
800076f8 g     O .rodata	00000101 _ctype_
800003bc  w    F .text	00000026 _read
80006af0 g     F .text	0000003a .hidden __unorddf2
80000354  w    F .text	00000022 _exit
80004040 g     F .text	000000a0 __smakebuf_r
80002c2e g     F .text	00000012 strlen
80002864 g     F .text	00000272 _printf_i
80005f4a g     F .text	000000a6 .hidden __gedf2
90000240 g     O .bss	00000004 __malloc_sbrk_start
9000023c g     O .bss	00000004 __malloc_free_list
80007874 g       .rodata	00000000 __fsymtab_start
800064d8 g     F .text	00000618 .hidden __subdf3
80004d26 g     F .text	0000029e _vfprintf_r
8000449a g     F .text	0000006a __lo0bits
90000060 g     O .data	0000016c __global_locale
8000071c g     F .text	00000014 gpio_iof_config
80006c42 g     F .text	0000023c .hidden __trunctfdf2
8000535c g     F .text	0000000c raise
80000348  w    F .text	0000000a _close
80004398 g     F .text	000000bc __multadd
80004338 g     F .text	00000060 _Bfree



Disassembly of section .init:

80000000 <_start>:
_start():
C:\Users\zzh\NucleiStudio_workspace\nice_ddr200\Debug/../hbird_sdk/SoC/hbirdv2/Common/Source/GCC/startup_hbirdv2.S:40
 * Reset Handler called on controller reset
 */
_start:
    /* ===== Startup Stage 1 ===== */
    /* Disable Global Interrupt */
    csrc CSR_MSTATUS, MSTATUS_MIE
80000000:	30047073          	csrci	mstatus,8
C:\Users\zzh\NucleiStudio_workspace\nice_ddr200\Debug/../hbird_sdk/SoC/hbirdv2/Common/Source/GCC/startup_hbirdv2.S:42
    /* Disable all interrupts controlled by CSR MIE */
    csrw CSR_MIE, 0x0
80000004:	30405073          	csrwi	mie,0
C:\Users\zzh\NucleiStudio_workspace\nice_ddr200\Debug/../hbird_sdk/SoC/hbirdv2/Common/Source/GCC/startup_hbirdv2.S:47

    /* Initialize GP and Stack Pointer SP */
    .option push
    .option norelax
    la gp, __global_pointer$
80000008:	10001197          	auipc	gp,0x10001
8000000c:	9c818193          	addi	gp,gp,-1592 # 900009d0 <__global_pointer$>
C:\Users\zzh\NucleiStudio_workspace\nice_ddr200\Debug/../hbird_sdk/SoC/hbirdv2/Common/Source/GCC/startup_hbirdv2.S:49
    .option pop
    la sp, _sp
80000010:	10010117          	auipc	sp,0x10010
80000014:	ff010113          	addi	sp,sp,-16 # 90010000 <_sp>
C:\Users\zzh\NucleiStudio_workspace\nice_ddr200\Debug/../hbird_sdk/SoC/hbirdv2/Common/Source/GCC/startup_hbirdv2.S:54

    /*
     * Set Trap Entry MTVEC to trap_entry
     */
    la t0, trap_entry
80000018:	00000297          	auipc	t0,0x0
8000001c:	68c28293          	addi	t0,t0,1676 # 800006a4 <trap_entry>
C:\Users\zzh\NucleiStudio_workspace\nice_ddr200\Debug/../hbird_sdk/SoC/hbirdv2/Common/Source/GCC/startup_hbirdv2.S:55
    csrw CSR_MTVEC, t0
80000020:	30529073          	csrw	mtvec,t0
C:\Users\zzh\NucleiStudio_workspace\nice_ddr200\Debug/../hbird_sdk/SoC/hbirdv2/Common/Source/GCC/startup_hbirdv2.S:58

    /* Direct Mode: All exceptions set pc to BASE. */
    csrc CSR_MTVEC, 0x3
80000024:	3051f073          	csrci	mtvec,3
C:\Users\zzh\NucleiStudio_workspace\nice_ddr200\Debug/../hbird_sdk/SoC/hbirdv2/Common/Source/GCC/startup_hbirdv2.S:74
    /* ===== Startup Stage 3 ===== */
    /*
     * Load code section frm FLASH to ILM
     * when code LMA is different with VMA
     */
    la a0, _ilm_lma
80000028:	00000517          	auipc	a0,0x0
8000002c:	09450513          	addi	a0,a0,148 # 800000bc <main>
C:\Users\zzh\NucleiStudio_workspace\nice_ddr200\Debug/../hbird_sdk/SoC/hbirdv2/Common/Source/GCC/startup_hbirdv2.S:75
    la a1, _ilm
80000030:	00000597          	auipc	a1,0x0
80000034:	08c58593          	addi	a1,a1,140 # 800000bc <main>
C:\Users\zzh\NucleiStudio_workspace\nice_ddr200\Debug/../hbird_sdk/SoC/hbirdv2/Common/Source/GCC/startup_hbirdv2.S:77
    /* If the ILM phy-address same as the logic-address, then quit */
    beq a0, a1, 2f
80000038:	02b50063          	beq	a0,a1,80000058 <_start+0x58>
C:\Users\zzh\NucleiStudio_workspace\nice_ddr200\Debug/../hbird_sdk/SoC/hbirdv2/Common/Source/GCC/startup_hbirdv2.S:78
    la a2, _eilm
8000003c:	00008617          	auipc	a2,0x8
80000040:	83860613          	addi	a2,a2,-1992 # 80007874 <__fsymtab_end>
C:\Users\zzh\NucleiStudio_workspace\nice_ddr200\Debug/../hbird_sdk/SoC/hbirdv2/Common/Source/GCC/startup_hbirdv2.S:79
    bgeu a1, a2, 2f
80000044:	00c5fa63          	bgeu	a1,a2,80000058 <_start+0x58>
C:\Users\zzh\NucleiStudio_workspace\nice_ddr200\Debug/../hbird_sdk/SoC/hbirdv2/Common/Source/GCC/startup_hbirdv2.S:83

1:
    /* Load code section if necessary */
    lw t0, (a0)
80000048:	00052283          	lw	t0,0(a0)
C:\Users\zzh\NucleiStudio_workspace\nice_ddr200\Debug/../hbird_sdk/SoC/hbirdv2/Common/Source/GCC/startup_hbirdv2.S:84
    sw t0, (a1)
8000004c:	0055a023          	sw	t0,0(a1)
C:\Users\zzh\NucleiStudio_workspace\nice_ddr200\Debug/../hbird_sdk/SoC/hbirdv2/Common/Source/GCC/startup_hbirdv2.S:85
    addi a0, a0, 4
80000050:	0511                	addi	a0,a0,4
C:\Users\zzh\NucleiStudio_workspace\nice_ddr200\Debug/../hbird_sdk/SoC/hbirdv2/Common/Source/GCC/startup_hbirdv2.S:86
    addi a1, a1, 4
80000052:	0591                	addi	a1,a1,4
C:\Users\zzh\NucleiStudio_workspace\nice_ddr200\Debug/../hbird_sdk/SoC/hbirdv2/Common/Source/GCC/startup_hbirdv2.S:87
    bltu a1, a2, 1b
80000054:	fec5eae3          	bltu	a1,a2,80000048 <_start+0x48>
C:\Users\zzh\NucleiStudio_workspace\nice_ddr200\Debug/../hbird_sdk/SoC/hbirdv2/Common/Source/GCC/startup_hbirdv2.S:90
2:
    /* Load data section */
    la a0, _data_lma
80000058:	00008517          	auipc	a0,0x8
8000005c:	81c50513          	addi	a0,a0,-2020 # 80007874 <__fsymtab_end>
C:\Users\zzh\NucleiStudio_workspace\nice_ddr200\Debug/../hbird_sdk/SoC/hbirdv2/Common/Source/GCC/startup_hbirdv2.S:91
    la a1, _data
80000060:	10000597          	auipc	a1,0x10000
80000064:	fa058593          	addi	a1,a1,-96 # 90000000 <impure_data>
C:\Users\zzh\NucleiStudio_workspace\nice_ddr200\Debug/../hbird_sdk/SoC/hbirdv2/Common/Source/GCC/startup_hbirdv2.S:92
    la a2, _edata
80000068:	86418613          	addi	a2,gp,-1948 # 90000234 <errno>
C:\Users\zzh\NucleiStudio_workspace\nice_ddr200\Debug/../hbird_sdk/SoC/hbirdv2/Common/Source/GCC/startup_hbirdv2.S:93
    bgeu a1, a2, 2f
8000006c:	00c5fa63          	bgeu	a1,a2,80000080 <_start+0x80>
C:\Users\zzh\NucleiStudio_workspace\nice_ddr200\Debug/../hbird_sdk/SoC/hbirdv2/Common/Source/GCC/startup_hbirdv2.S:95
1:
    lw t0, (a0)
80000070:	00052283          	lw	t0,0(a0)
C:\Users\zzh\NucleiStudio_workspace\nice_ddr200\Debug/../hbird_sdk/SoC/hbirdv2/Common/Source/GCC/startup_hbirdv2.S:96
    sw t0, (a1)
80000074:	0055a023          	sw	t0,0(a1)
C:\Users\zzh\NucleiStudio_workspace\nice_ddr200\Debug/../hbird_sdk/SoC/hbirdv2/Common/Source/GCC/startup_hbirdv2.S:97
    addi a0, a0, 4
80000078:	0511                	addi	a0,a0,4
C:\Users\zzh\NucleiStudio_workspace\nice_ddr200\Debug/../hbird_sdk/SoC/hbirdv2/Common/Source/GCC/startup_hbirdv2.S:98
    addi a1, a1, 4
8000007a:	0591                	addi	a1,a1,4
C:\Users\zzh\NucleiStudio_workspace\nice_ddr200\Debug/../hbird_sdk/SoC/hbirdv2/Common/Source/GCC/startup_hbirdv2.S:99
    bltu a1, a2, 1b
8000007c:	fec5eae3          	bltu	a1,a2,80000070 <_start+0x70>
C:\Users\zzh\NucleiStudio_workspace\nice_ddr200\Debug/../hbird_sdk/SoC/hbirdv2/Common/Source/GCC/startup_hbirdv2.S:102
2:
    /* Clear bss section */
    la a0, __bss_start
80000080:	86418513          	addi	a0,gp,-1948 # 90000234 <errno>
C:\Users\zzh\NucleiStudio_workspace\nice_ddr200\Debug/../hbird_sdk/SoC/hbirdv2/Common/Source/GCC/startup_hbirdv2.S:103
    la a1, _end
80000084:	99818593          	addi	a1,gp,-1640 # 90000368 <_end>
C:\Users\zzh\NucleiStudio_workspace\nice_ddr200\Debug/../hbird_sdk/SoC/hbirdv2/Common/Source/GCC/startup_hbirdv2.S:104
    bgeu a0, a1, 2f
80000088:	00b57763          	bgeu	a0,a1,80000096 <_start+0x96>
C:\Users\zzh\NucleiStudio_workspace\nice_ddr200\Debug/../hbird_sdk/SoC/hbirdv2/Common/Source/GCC/startup_hbirdv2.S:106
1:
    sw zero, (a0)
8000008c:	00052023          	sw	zero,0(a0)
C:\Users\zzh\NucleiStudio_workspace\nice_ddr200\Debug/../hbird_sdk/SoC/hbirdv2/Common/Source/GCC/startup_hbirdv2.S:107
    addi a0, a0, 4
80000090:	0511                	addi	a0,a0,4
C:\Users\zzh\NucleiStudio_workspace\nice_ddr200\Debug/../hbird_sdk/SoC/hbirdv2/Common/Source/GCC/startup_hbirdv2.S:108
    bltu a0, a1, 1b
80000092:	feb56de3          	bltu	a0,a1,8000008c <_start+0x8c>
C:\Users\zzh\NucleiStudio_workspace\nice_ddr200\Debug/../hbird_sdk/SoC/hbirdv2/Common/Source/GCC/startup_hbirdv2.S:115

    /*
     * Call vendor defined SystemInit to
     * initialize the micro-controller system
     */
    call SystemInit
80000096:	2cb000ef          	jal	ra,80000b60 <SystemInit>
C:\Users\zzh\NucleiStudio_workspace\nice_ddr200\Debug/../hbird_sdk/SoC/hbirdv2/Common/Source/GCC/startup_hbirdv2.S:118

    /* Call global constructors */
    la a0, __libc_fini_array
8000009a:	00002517          	auipc	a0,0x2
8000009e:	fce50513          	addi	a0,a0,-50 # 80002068 <__libc_fini_array>
C:\Users\zzh\NucleiStudio_workspace\nice_ddr200\Debug/../hbird_sdk/SoC/hbirdv2/Common/Source/GCC/startup_hbirdv2.S:119
    call atexit
800000a2:	7bb010ef          	jal	ra,8000205c <atexit>
C:\Users\zzh\NucleiStudio_workspace\nice_ddr200\Debug/../hbird_sdk/SoC/hbirdv2/Common/Source/GCC/startup_hbirdv2.S:121
    /* Call C/C++ constructor start up code */
    call __libc_init_array
800000a6:	7f9010ef          	jal	ra,8000209e <__libc_init_array>
C:\Users\zzh\NucleiStudio_workspace\nice_ddr200\Debug/../hbird_sdk/SoC/hbirdv2/Common/Source/GCC/startup_hbirdv2.S:124

    /* do pre-init steps before main */
    call _premain_init
800000aa:	397000ef          	jal	ra,80000c40 <_premain_init>
C:\Users\zzh\NucleiStudio_workspace\nice_ddr200\Debug/../hbird_sdk/SoC/hbirdv2/Common/Source/GCC/startup_hbirdv2.S:127
    /* ===== Call Main Function  ===== */
    /* argc = argv = 0 */
    li a0, 0
800000ae:	4501                	li	a0,0
C:\Users\zzh\NucleiStudio_workspace\nice_ddr200\Debug/../hbird_sdk/SoC/hbirdv2/Common/Source/GCC/startup_hbirdv2.S:128
    li a1, 0
800000b0:	4581                	li	a1,0
C:\Users\zzh\NucleiStudio_workspace\nice_ddr200\Debug/../hbird_sdk/SoC/hbirdv2/Common/Source/GCC/startup_hbirdv2.S:134

#ifdef RTOS_RTTHREAD
    // Call entry function when using RT-Thread
    call entry
#else
    call main
800000b2:	2029                	jal	800000bc <main>
C:\Users\zzh\NucleiStudio_workspace\nice_ddr200\Debug/../hbird_sdk/SoC/hbirdv2/Common/Source/GCC/startup_hbirdv2.S:137
#endif
    /* do post-main steps after main */
    call _postmain_fini
800000b4:	6a1000ef          	jal	ra,80000f54 <_postmain_fini>
C:\Users\zzh\NucleiStudio_workspace\nice_ddr200\Debug/../hbird_sdk/SoC/hbirdv2/Common/Source/GCC/startup_hbirdv2.S:140

1:
    j 1b
800000b8:	a001                	j	800000b8 <_start+0xb8>

Disassembly of section .text:

800000bc <main>:
main():
C:\Users\zzh\NucleiStudio_workspace\nice_ddr200\Debug/../application/demo_nice.c:10
#include "hbird_sdk_soc.h"

#include "insn.h"

int main(void)
{
800000bc:	7171                	addi	sp,sp,-176
C:\Users\zzh\NucleiStudio_workspace\nice_ddr200\Debug/../application/demo_nice.c:13
   int i=100;
   int arr[4]={1,2,3,4};
   unsigned int array[ROW_LEN][COL_LEN]=
800000be:	00007797          	auipc	a5,0x7
800000c2:	18278793          	addi	a5,a5,386 # 80007240 <__clzsi2+0x3c2>
800000c6:	0007ae03          	lw	t3,0(a5)
800000ca:	0047a303          	lw	t1,4(a5)
800000ce:	0087a883          	lw	a7,8(a5)
800000d2:	00c7a803          	lw	a6,12(a5)
800000d6:	4b8c                	lw	a1,16(a5)
800000d8:	4bd0                	lw	a2,20(a5)
800000da:	4f94                	lw	a3,24(a5)
800000dc:	4fd8                	lw	a4,28(a5)
C:\Users\zzh\NucleiStudio_workspace\nice_ddr200\Debug/../application/demo_nice.c:10
{
800000de:	d706                	sw	ra,172(sp)
C:\Users\zzh\NucleiStudio_workspace\nice_ddr200\Debug/../application/demo_nice.c:13
   unsigned int array[ROW_LEN][COL_LEN]=
800000e0:	0207a083          	lw	ra,32(a5)
C:\Users\zzh\NucleiStudio_workspace\nice_ddr200\Debug/../application/demo_nice.c:23
   unsigned int begin_instret, end_instret, instret_normal, instret_nice;
   unsigned int begin_cycle,   end_cycle,   cycle_normal,   cycle_nice;



   printf("**********************************************\n");
800000e4:	00007517          	auipc	a0,0x7
800000e8:	ea450513          	addi	a0,a0,-348 # 80006f88 <__clzsi2+0x10a>
C:\Users\zzh\NucleiStudio_workspace\nice_ddr200\Debug/../application/demo_nice.c:13
   unsigned int array[ROW_LEN][COL_LEN]=
800000ec:	d6f2                	sw	t3,108(sp)
800000ee:	d89a                	sw	t1,112(sp)
800000f0:	dac6                	sw	a7,116(sp)
800000f2:	dcc2                	sw	a6,120(sp)
800000f4:	deae                	sw	a1,124(sp)
800000f6:	c132                	sw	a2,128(sp)
800000f8:	c336                	sw	a3,132(sp)
800000fa:	c53a                	sw	a4,136(sp)
800000fc:	c706                	sw	ra,140(sp)
C:\Users\zzh\NucleiStudio_workspace\nice_ddr200\Debug/../application/demo_nice.c:10
{
800000fe:	d522                	sw	s0,168(sp)
80000100:	d326                	sw	s1,164(sp)
80000102:	d14a                	sw	s2,160(sp)
80000104:	cf4e                	sw	s3,156(sp)
80000106:	cd52                	sw	s4,152(sp)
80000108:	cb56                	sw	s5,148(sp)
C:\Users\zzh\NucleiStudio_workspace\nice_ddr200\Debug/../application/demo_nice.c:23
   printf("**********************************************\n");
8000010a:	319020ef          	jal	ra,80002c22 <puts>
C:\Users\zzh\NucleiStudio_workspace\nice_ddr200\Debug/../application/demo_nice.c:24
   printf("** begin to sum the array using ordinary add sum\n");
8000010e:	00007517          	auipc	a0,0x7
80000112:	eaa50513          	addi	a0,a0,-342 # 80006fb8 <__clzsi2+0x13a>
80000116:	30d020ef          	jal	ra,80002c22 <puts>
__get_rv_instret():
C:\Users\zzh\NucleiStudio_workspace\nice_ddr200\hbird_sdk\NMSIS\Core\Include/core_feature_base.h:519
{
#if __RISCV_XLEN == 32
    volatile uint32_t high0, low, high;
    uint64_t full;

    high0 = __RV_CSR_READ(CSR_MINSTRETH);
8000011a:	b82022f3          	csrr	t0,minstreth
8000011e:	d096                	sw	t0,96(sp)
C:\Users\zzh\NucleiStudio_workspace\nice_ddr200\hbird_sdk\NMSIS\Core\Include/core_feature_base.h:520
    low = __RV_CSR_READ(CSR_MINSTRET);
80000120:	b02023f3          	csrr	t2,minstret
80000124:	d29e                	sw	t2,100(sp)
C:\Users\zzh\NucleiStudio_workspace\nice_ddr200\hbird_sdk\NMSIS\Core\Include/core_feature_base.h:521
    high = __RV_CSR_READ(CSR_MINSTRETH);
80000126:	b8202473          	csrr	s0,minstreth
8000012a:	d4a2                	sw	s0,104(sp)
C:\Users\zzh\NucleiStudio_workspace\nice_ddr200\hbird_sdk\NMSIS\Core\Include/core_feature_base.h:522
    if (high0 != high) {
8000012c:	5486                	lw	s1,96(sp)
8000012e:	5526                	lw	a0,104(sp)
80000130:	00a48563          	beq	s1,a0,8000013a <main+0x7e>
C:\Users\zzh\NucleiStudio_workspace\nice_ddr200\hbird_sdk\NMSIS\Core\Include/core_feature_base.h:523
        low = __RV_CSR_READ(CSR_MINSTRET);
80000134:	b0202973          	csrr	s2,minstret
80000138:	d2ca                	sw	s2,100(sp)
C:\Users\zzh\NucleiStudio_workspace\nice_ddr200\hbird_sdk\NMSIS\Core\Include/core_feature_base.h:525
    }
    full = (((uint64_t)high) << 32) | low;
8000013a:	57a6                	lw	a5,104(sp)
8000013c:	5996                	lw	s3,100(sp)
__get_rv_cycle():
C:\Users\zzh\NucleiStudio_workspace\nice_ddr200\hbird_sdk\NMSIS\Core\Include/core_feature_base.h:492
    high0 = __RV_CSR_READ(CSR_MCYCLEH);
8000013e:	b8002a73          	csrr	s4,mcycleh
80000142:	cad2                	sw	s4,84(sp)
C:\Users\zzh\NucleiStudio_workspace\nice_ddr200\hbird_sdk\NMSIS\Core\Include/core_feature_base.h:493
    low = __RV_CSR_READ(CSR_MCYCLE);
80000144:	b0002af3          	csrr	s5,mcycle
80000148:	ccd6                	sw	s5,88(sp)
C:\Users\zzh\NucleiStudio_workspace\nice_ddr200\hbird_sdk\NMSIS\Core\Include/core_feature_base.h:494
    high = __RV_CSR_READ(CSR_MCYCLEH);
8000014a:	b8002ef3          	csrr	t4,mcycleh
8000014e:	cef6                	sw	t4,92(sp)
C:\Users\zzh\NucleiStudio_workspace\nice_ddr200\hbird_sdk\NMSIS\Core\Include/core_feature_base.h:495
    if (high0 != high) {
80000150:	4f56                	lw	t5,84(sp)
80000152:	4ff6                	lw	t6,92(sp)
80000154:	01ff0563          	beq	t5,t6,8000015e <main+0xa2>
C:\Users\zzh\NucleiStudio_workspace\nice_ddr200\hbird_sdk\NMSIS\Core\Include/core_feature_base.h:496
        low = __RV_CSR_READ(CSR_MCYCLE);
80000158:	b00027f3          	csrr	a5,mcycle
8000015c:	ccbe                	sw	a5,88(sp)
C:\Users\zzh\NucleiStudio_workspace\nice_ddr200\hbird_sdk\NMSIS\Core\Include/core_feature_base.h:498
    full = (((uint64_t)high) << 32) | low;
8000015e:	47f6                	lw	a5,92(sp)
main():
C:\Users\zzh\NucleiStudio_workspace\nice_ddr200\Debug/../application/demo_nice.c:28
   begin_instret =  __get_rv_instret();
   begin_cycle   =  __get_rv_cycle();

   normal_case(array);
80000160:	10e8                	addi	a0,sp,108
__get_rv_cycle():
C:\Users\zzh\NucleiStudio_workspace\nice_ddr200\hbird_sdk\NMSIS\Core\Include/core_feature_base.h:498
80000162:	44e6                	lw	s1,88(sp)
main():
C:\Users\zzh\NucleiStudio_workspace\nice_ddr200\Debug/../application/demo_nice.c:28
80000164:	5fd000ef          	jal	ra,80000f60 <normal_case>
__get_rv_instret():
C:\Users\zzh\NucleiStudio_workspace\nice_ddr200\hbird_sdk\NMSIS\Core\Include/core_feature_base.h:519
    high0 = __RV_CSR_READ(CSR_MINSTRETH);
80000168:	b8202e73          	csrr	t3,minstreth
8000016c:	c4f2                	sw	t3,72(sp)
C:\Users\zzh\NucleiStudio_workspace\nice_ddr200\hbird_sdk\NMSIS\Core\Include/core_feature_base.h:520
    low = __RV_CSR_READ(CSR_MINSTRET);
8000016e:	b0202373          	csrr	t1,minstret
80000172:	c69a                	sw	t1,76(sp)
C:\Users\zzh\NucleiStudio_workspace\nice_ddr200\hbird_sdk\NMSIS\Core\Include/core_feature_base.h:521
    high = __RV_CSR_READ(CSR_MINSTRETH);
80000174:	b82028f3          	csrr	a7,minstreth
80000178:	c8c6                	sw	a7,80(sp)
C:\Users\zzh\NucleiStudio_workspace\nice_ddr200\hbird_sdk\NMSIS\Core\Include/core_feature_base.h:522
    if (high0 != high) {
8000017a:	4826                	lw	a6,72(sp)
8000017c:	45c6                	lw	a1,80(sp)
8000017e:	00b80563          	beq	a6,a1,80000188 <main+0xcc>
C:\Users\zzh\NucleiStudio_workspace\nice_ddr200\hbird_sdk\NMSIS\Core\Include/core_feature_base.h:523
        low = __RV_CSR_READ(CSR_MINSTRET);
80000182:	b0202673          	csrr	a2,minstret
80000186:	c6b2                	sw	a2,76(sp)
C:\Users\zzh\NucleiStudio_workspace\nice_ddr200\hbird_sdk\NMSIS\Core\Include/core_feature_base.h:525
    full = (((uint64_t)high) << 32) | low;
80000188:	47c6                	lw	a5,80(sp)
8000018a:	4736                	lw	a4,76(sp)
__get_rv_cycle():
C:\Users\zzh\NucleiStudio_workspace\nice_ddr200\hbird_sdk\NMSIS\Core\Include/core_feature_base.h:492
    high0 = __RV_CSR_READ(CSR_MCYCLEH);
8000018c:	b80026f3          	csrr	a3,mcycleh
80000190:	de36                	sw	a3,60(sp)
C:\Users\zzh\NucleiStudio_workspace\nice_ddr200\hbird_sdk\NMSIS\Core\Include/core_feature_base.h:493
    low = __RV_CSR_READ(CSR_MCYCLE);
80000192:	b00020f3          	csrr	ra,mcycle
80000196:	c086                	sw	ra,64(sp)
C:\Users\zzh\NucleiStudio_workspace\nice_ddr200\hbird_sdk\NMSIS\Core\Include/core_feature_base.h:494
    high = __RV_CSR_READ(CSR_MCYCLEH);
80000198:	b80022f3          	csrr	t0,mcycleh
8000019c:	c296                	sw	t0,68(sp)
C:\Users\zzh\NucleiStudio_workspace\nice_ddr200\hbird_sdk\NMSIS\Core\Include/core_feature_base.h:495
    if (high0 != high) {
8000019e:	53f2                	lw	t2,60(sp)
800001a0:	4416                	lw	s0,68(sp)
800001a2:	00838563          	beq	t2,s0,800001ac <main+0xf0>
C:\Users\zzh\NucleiStudio_workspace\nice_ddr200\hbird_sdk\NMSIS\Core\Include/core_feature_base.h:496
        low = __RV_CSR_READ(CSR_MCYCLE);
800001a6:	b0002573          	csrr	a0,mcycle
800001aa:	c0aa                	sw	a0,64(sp)
C:\Users\zzh\NucleiStudio_workspace\nice_ddr200\hbird_sdk\NMSIS\Core\Include/core_feature_base.h:498
    full = (((uint64_t)high) << 32) | low;
800001ac:	4796                	lw	a5,68(sp)
main():
C:\Users\zzh\NucleiStudio_workspace\nice_ddr200\Debug/../application/demo_nice.c:35
   end_instret = __get_rv_instret();
   end_cycle   = __get_rv_cycle();

   instret_normal = end_instret - begin_instret;
   cycle_normal = end_cycle - begin_cycle;
   printf("\n\n");
800001ae:	00007517          	auipc	a0,0x7
800001b2:	e3e50513          	addi	a0,a0,-450 # 80006fec <__clzsi2+0x16e>
C:\Users\zzh\NucleiStudio_workspace\nice_ddr200\Debug/../application/demo_nice.c:33
   instret_normal = end_instret - begin_instret;
800001b6:	41370433          	sub	s0,a4,s3
__get_rv_cycle():
C:\Users\zzh\NucleiStudio_workspace\nice_ddr200\hbird_sdk\NMSIS\Core\Include/core_feature_base.h:498
800001ba:	4906                	lw	s2,64(sp)
main():
C:\Users\zzh\NucleiStudio_workspace\nice_ddr200\Debug/../application/demo_nice.c:35
   printf("\n\n");
800001bc:	267020ef          	jal	ra,80002c22 <puts>
C:\Users\zzh\NucleiStudio_workspace\nice_ddr200\Debug/../application/demo_nice.c:37

   printf("**********************************************\n");
800001c0:	00007517          	auipc	a0,0x7
800001c4:	dc850513          	addi	a0,a0,-568 # 80006f88 <__clzsi2+0x10a>
800001c8:	25b020ef          	jal	ra,80002c22 <puts>
C:\Users\zzh\NucleiStudio_workspace\nice_ddr200\Debug/../application/demo_nice.c:38
   printf("** begin to sum the array using nice add sum\n");
800001cc:	00007517          	auipc	a0,0x7
800001d0:	e2450513          	addi	a0,a0,-476 # 80006ff0 <__clzsi2+0x172>
800001d4:	24f020ef          	jal	ra,80002c22 <puts>
C:\Users\zzh\NucleiStudio_workspace\nice_ddr200\Debug/../application/demo_nice.c:34
   cycle_normal = end_cycle - begin_cycle;
800001d8:	409904b3          	sub	s1,s2,s1
__get_rv_instret():
C:\Users\zzh\NucleiStudio_workspace\nice_ddr200\hbird_sdk\NMSIS\Core\Include/core_feature_base.h:519
    high0 = __RV_CSR_READ(CSR_MINSTRETH);
800001dc:	b82029f3          	csrr	s3,minstreth
800001e0:	d84e                	sw	s3,48(sp)
C:\Users\zzh\NucleiStudio_workspace\nice_ddr200\hbird_sdk\NMSIS\Core\Include/core_feature_base.h:520
    low = __RV_CSR_READ(CSR_MINSTRET);
800001e2:	b0202a73          	csrr	s4,minstret
800001e6:	da52                	sw	s4,52(sp)
C:\Users\zzh\NucleiStudio_workspace\nice_ddr200\hbird_sdk\NMSIS\Core\Include/core_feature_base.h:521
    high = __RV_CSR_READ(CSR_MINSTRETH);
800001e8:	b8202af3          	csrr	s5,minstreth
800001ec:	dc56                	sw	s5,56(sp)
C:\Users\zzh\NucleiStudio_workspace\nice_ddr200\hbird_sdk\NMSIS\Core\Include/core_feature_base.h:522
    if (high0 != high) {
800001ee:	5ec2                	lw	t4,48(sp)
800001f0:	5f62                	lw	t5,56(sp)
800001f2:	01ee8563          	beq	t4,t5,800001fc <main+0x140>
C:\Users\zzh\NucleiStudio_workspace\nice_ddr200\hbird_sdk\NMSIS\Core\Include/core_feature_base.h:523
        low = __RV_CSR_READ(CSR_MINSTRET);
800001f6:	b0202ff3          	csrr	t6,minstret
800001fa:	da7e                	sw	t6,52(sp)
C:\Users\zzh\NucleiStudio_workspace\nice_ddr200\hbird_sdk\NMSIS\Core\Include/core_feature_base.h:525
    full = (((uint64_t)high) << 32) | low;
800001fc:	57e2                	lw	a5,56(sp)
800001fe:	5952                	lw	s2,52(sp)
__get_rv_cycle():
C:\Users\zzh\NucleiStudio_workspace\nice_ddr200\hbird_sdk\NMSIS\Core\Include/core_feature_base.h:492
    high0 = __RV_CSR_READ(CSR_MCYCLEH);
80000200:	b80027f3          	csrr	a5,mcycleh
80000204:	d23e                	sw	a5,36(sp)
C:\Users\zzh\NucleiStudio_workspace\nice_ddr200\hbird_sdk\NMSIS\Core\Include/core_feature_base.h:493
    low = __RV_CSR_READ(CSR_MCYCLE);
80000206:	b0002e73          	csrr	t3,mcycle
8000020a:	d472                	sw	t3,40(sp)
C:\Users\zzh\NucleiStudio_workspace\nice_ddr200\hbird_sdk\NMSIS\Core\Include/core_feature_base.h:494
    high = __RV_CSR_READ(CSR_MCYCLEH);
8000020c:	b8002373          	csrr	t1,mcycleh
80000210:	d61a                	sw	t1,44(sp)
C:\Users\zzh\NucleiStudio_workspace\nice_ddr200\hbird_sdk\NMSIS\Core\Include/core_feature_base.h:495
    if (high0 != high) {
80000212:	5892                	lw	a7,36(sp)
80000214:	5832                	lw	a6,44(sp)
80000216:	01088563          	beq	a7,a6,80000220 <main+0x164>
C:\Users\zzh\NucleiStudio_workspace\nice_ddr200\hbird_sdk\NMSIS\Core\Include/core_feature_base.h:496
        low = __RV_CSR_READ(CSR_MCYCLE);
8000021a:	b00025f3          	csrr	a1,mcycle
8000021e:	d42e                	sw	a1,40(sp)
C:\Users\zzh\NucleiStudio_workspace\nice_ddr200\hbird_sdk\NMSIS\Core\Include/core_feature_base.h:498
    full = (((uint64_t)high) << 32) | low;
80000220:	57b2                	lw	a5,44(sp)
main():
C:\Users\zzh\NucleiStudio_workspace\nice_ddr200\Debug/../application/demo_nice.c:42
   begin_instret =  __get_rv_instret();
   begin_cycle   =  __get_rv_cycle();

   nice_case(array);
80000222:	10e8                	addi	a0,sp,108
__get_rv_cycle():
C:\Users\zzh\NucleiStudio_workspace\nice_ddr200\hbird_sdk\NMSIS\Core\Include/core_feature_base.h:498
80000224:	5a22                	lw	s4,40(sp)
main():
C:\Users\zzh\NucleiStudio_workspace\nice_ddr200\Debug/../application/demo_nice.c:42
80000226:	426010ef          	jal	ra,8000164c <nice_case>
__get_rv_instret():
C:\Users\zzh\NucleiStudio_workspace\nice_ddr200\hbird_sdk\NMSIS\Core\Include/core_feature_base.h:519
    high0 = __RV_CSR_READ(CSR_MINSTRETH);
8000022a:	b8202673          	csrr	a2,minstreth
8000022e:	cc32                	sw	a2,24(sp)
C:\Users\zzh\NucleiStudio_workspace\nice_ddr200\hbird_sdk\NMSIS\Core\Include/core_feature_base.h:520
    low = __RV_CSR_READ(CSR_MINSTRET);
80000230:	b0202773          	csrr	a4,minstret
80000234:	ce3a                	sw	a4,28(sp)
C:\Users\zzh\NucleiStudio_workspace\nice_ddr200\hbird_sdk\NMSIS\Core\Include/core_feature_base.h:521
    high = __RV_CSR_READ(CSR_MINSTRETH);
80000236:	b82026f3          	csrr	a3,minstreth
8000023a:	d036                	sw	a3,32(sp)
C:\Users\zzh\NucleiStudio_workspace\nice_ddr200\hbird_sdk\NMSIS\Core\Include/core_feature_base.h:522
    if (high0 != high) {
8000023c:	42e2                	lw	t0,24(sp)
8000023e:	5382                	lw	t2,32(sp)
80000240:	00728563          	beq	t0,t2,8000024a <main+0x18e>
C:\Users\zzh\NucleiStudio_workspace\nice_ddr200\hbird_sdk\NMSIS\Core\Include/core_feature_base.h:523
        low = __RV_CSR_READ(CSR_MINSTRET);
80000244:	b02020f3          	csrr	ra,minstret
80000248:	ce06                	sw	ra,28(sp)
C:\Users\zzh\NucleiStudio_workspace\nice_ddr200\hbird_sdk\NMSIS\Core\Include/core_feature_base.h:525
    full = (((uint64_t)high) << 32) | low;
8000024a:	5782                	lw	a5,32(sp)
8000024c:	49f2                	lw	s3,28(sp)
__get_rv_cycle():
C:\Users\zzh\NucleiStudio_workspace\nice_ddr200\hbird_sdk\NMSIS\Core\Include/core_feature_base.h:492
    high0 = __RV_CSR_READ(CSR_MCYCLEH);
8000024e:	b8002573          	csrr	a0,mcycleh
80000252:	c62a                	sw	a0,12(sp)
C:\Users\zzh\NucleiStudio_workspace\nice_ddr200\hbird_sdk\NMSIS\Core\Include/core_feature_base.h:493
    low = __RV_CSR_READ(CSR_MCYCLE);
80000254:	b0002af3          	csrr	s5,mcycle
80000258:	c856                	sw	s5,16(sp)
C:\Users\zzh\NucleiStudio_workspace\nice_ddr200\hbird_sdk\NMSIS\Core\Include/core_feature_base.h:494
    high = __RV_CSR_READ(CSR_MCYCLEH);
8000025a:	b8002ef3          	csrr	t4,mcycleh
8000025e:	ca76                	sw	t4,20(sp)
C:\Users\zzh\NucleiStudio_workspace\nice_ddr200\hbird_sdk\NMSIS\Core\Include/core_feature_base.h:495
    if (high0 != high) {
80000260:	4f32                	lw	t5,12(sp)
80000262:	4fd2                	lw	t6,20(sp)
80000264:	01ff0563          	beq	t5,t6,8000026e <main+0x1b2>
C:\Users\zzh\NucleiStudio_workspace\nice_ddr200\hbird_sdk\NMSIS\Core\Include/core_feature_base.h:496
        low = __RV_CSR_READ(CSR_MCYCLE);
80000268:	b00027f3          	csrr	a5,mcycle
8000026c:	c83e                	sw	a5,16(sp)
C:\Users\zzh\NucleiStudio_workspace\nice_ddr200\hbird_sdk\NMSIS\Core\Include/core_feature_base.h:498
    full = (((uint64_t)high) << 32) | low;
8000026e:	47d2                	lw	a5,20(sp)
main():
C:\Users\zzh\NucleiStudio_workspace\nice_ddr200\Debug/../application/demo_nice.c:51

   instret_nice = end_instret - begin_instret;
   cycle_nice   = end_cycle - begin_cycle;


   printf("**********************************************\n");
80000270:	00007517          	auipc	a0,0x7
80000274:	d1850513          	addi	a0,a0,-744 # 80006f88 <__clzsi2+0x10a>
__get_rv_cycle():
C:\Users\zzh\NucleiStudio_workspace\nice_ddr200\hbird_sdk\NMSIS\Core\Include/core_feature_base.h:498
80000278:	4ac2                	lw	s5,16(sp)
main():
C:\Users\zzh\NucleiStudio_workspace\nice_ddr200\Debug/../application/demo_nice.c:51
8000027a:	1a9020ef          	jal	ra,80002c22 <puts>
C:\Users\zzh\NucleiStudio_workspace\nice_ddr200\Debug/../application/demo_nice.c:52
   printf("** performance list \n");
8000027e:	00007517          	auipc	a0,0x7
80000282:	da250513          	addi	a0,a0,-606 # 80007020 <__clzsi2+0x1a2>
80000286:	19d020ef          	jal	ra,80002c22 <puts>
C:\Users\zzh\NucleiStudio_workspace\nice_ddr200\Debug/../application/demo_nice.c:54

   printf("\t normal: \n");
8000028a:	00007517          	auipc	a0,0x7
8000028e:	dae50513          	addi	a0,a0,-594 # 80007038 <__clzsi2+0x1ba>
80000292:	191020ef          	jal	ra,80002c22 <puts>
C:\Users\zzh\NucleiStudio_workspace\nice_ddr200\Debug/../application/demo_nice.c:55
   printf("\t      instret: %d, cycle: %d \n", instret_normal, cycle_normal);
80000296:	8626                	mv	a2,s1
80000298:	85a2                	mv	a1,s0
8000029a:	00007517          	auipc	a0,0x7
8000029e:	daa50513          	addi	a0,a0,-598 # 80007044 <__clzsi2+0x1c6>
800002a2:	035020ef          	jal	ra,80002ad6 <iprintf>
C:\Users\zzh\NucleiStudio_workspace\nice_ddr200\Debug/../application/demo_nice.c:56
   printf("\t nice  : \n");
800002a6:	00007517          	auipc	a0,0x7
800002aa:	dbe50513          	addi	a0,a0,-578 # 80007064 <__clzsi2+0x1e6>
800002ae:	175020ef          	jal	ra,80002c22 <puts>
C:\Users\zzh\NucleiStudio_workspace\nice_ddr200\Debug/../application/demo_nice.c:57
   printf("\t      instret: %d, cycle: %d \n", instret_nice  , cycle_nice  );
800002b2:	414a8633          	sub	a2,s5,s4
800002b6:	412985b3          	sub	a1,s3,s2
800002ba:	00007517          	auipc	a0,0x7
800002be:	d8a50513          	addi	a0,a0,-630 # 80007044 <__clzsi2+0x1c6>
800002c2:	015020ef          	jal	ra,80002ad6 <iprintf>
C:\Users\zzh\NucleiStudio_workspace\nice_ddr200\Debug/../application/demo_nice.c:60


   printf("**********************************************\n\n");
800002c6:	00007517          	auipc	a0,0x7
800002ca:	daa50513          	addi	a0,a0,-598 # 80007070 <__clzsi2+0x1f2>
800002ce:	155020ef          	jal	ra,80002c22 <puts>
C:\Users\zzh\NucleiStudio_workspace\nice_ddr200\Debug/../application/demo_nice.c:63


    printf("*     *  *     *   *****   *        *******   *** \n");
800002d2:	00007517          	auipc	a0,0x7
800002d6:	dce50513          	addi	a0,a0,-562 # 800070a0 <__clzsi2+0x222>
800002da:	149020ef          	jal	ra,80002c22 <puts>
C:\Users\zzh\NucleiStudio_workspace\nice_ddr200\Debug/../application/demo_nice.c:64
    printf("**    *  *     *  *     *  *        *          *  \n");
800002de:	00007517          	auipc	a0,0x7
800002e2:	df650513          	addi	a0,a0,-522 # 800070d4 <__clzsi2+0x256>
800002e6:	13d020ef          	jal	ra,80002c22 <puts>
C:\Users\zzh\NucleiStudio_workspace\nice_ddr200\Debug/../application/demo_nice.c:65
    printf("* *   *  *     *  *        *        *          *  \n");
800002ea:	00007517          	auipc	a0,0x7
800002ee:	e1e50513          	addi	a0,a0,-482 # 80007108 <__clzsi2+0x28a>
800002f2:	131020ef          	jal	ra,80002c22 <puts>
C:\Users\zzh\NucleiStudio_workspace\nice_ddr200\Debug/../application/demo_nice.c:66
    printf("*  *  *  *     *  *        *        *****      *  \n");
800002f6:	00007517          	auipc	a0,0x7
800002fa:	e4650513          	addi	a0,a0,-442 # 8000713c <__clzsi2+0x2be>
800002fe:	125020ef          	jal	ra,80002c22 <puts>
C:\Users\zzh\NucleiStudio_workspace\nice_ddr200\Debug/../application/demo_nice.c:67
    printf("*   * *  *     *  *        *        *          *  \n");
80000302:	00007517          	auipc	a0,0x7
80000306:	e6e50513          	addi	a0,a0,-402 # 80007170 <__clzsi2+0x2f2>
8000030a:	119020ef          	jal	ra,80002c22 <puts>
C:\Users\zzh\NucleiStudio_workspace\nice_ddr200\Debug/../application/demo_nice.c:68
    printf("*    **  *     *  *     *  *        *          *  \n");
8000030e:	00007517          	auipc	a0,0x7
80000312:	e9650513          	addi	a0,a0,-362 # 800071a4 <__clzsi2+0x326>
80000316:	10d020ef          	jal	ra,80002c22 <puts>
C:\Users\zzh\NucleiStudio_workspace\nice_ddr200\Debug/../application/demo_nice.c:69
    printf("*     *   *****    *****   *******  *******   *** \n");
8000031a:	00007517          	auipc	a0,0x7
8000031e:	ebe50513          	addi	a0,a0,-322 # 800071d8 <__clzsi2+0x35a>
80000322:	101020ef          	jal	ra,80002c22 <puts>
C:\Users\zzh\NucleiStudio_workspace\nice_ddr200\Debug/../application/demo_nice.c:71

   printf("\n\n**********************************************");
80000326:	00007517          	auipc	a0,0x7
8000032a:	ee650513          	addi	a0,a0,-282 # 8000720c <__clzsi2+0x38e>
8000032e:	7a8020ef          	jal	ra,80002ad6 <iprintf>
C:\Users\zzh\NucleiStudio_workspace\nice_ddr200\Debug/../application/demo_nice.c:73
    return 0;
}
80000332:	50ba                	lw	ra,172(sp)
80000334:	542a                	lw	s0,168(sp)
80000336:	549a                	lw	s1,164(sp)
80000338:	590a                	lw	s2,160(sp)
8000033a:	49fa                	lw	s3,156(sp)
8000033c:	4a6a                	lw	s4,152(sp)
8000033e:	4ada                	lw	s5,148(sp)
80000340:	4501                	li	a0,0
80000342:	614d                	addi	sp,sp,176
80000344:	8082                	ret
	...

80000348 <_close>:
_close():
C:\Users\zzh\NucleiStudio_workspace\nice_ddr200\Debug/../hbird_sdk/SoC/hbirdv2/Common/Source/Stubs/close.c:10
#undef errno
extern int errno;

__WEAK int _close(int fd)
{
    errno = EBADF;
80000348:	47a5                	li	a5,9
8000034a:	86f1a223          	sw	a5,-1948(gp) # 90000234 <errno>
C:\Users\zzh\NucleiStudio_workspace\nice_ddr200\Debug/../hbird_sdk/SoC/hbirdv2/Common/Source/Stubs/close.c:12
    return -1;
}
8000034e:	557d                	li	a0,-1
80000350:	8082                	ret
	...

80000354 <_exit>:
__WFI():
C:\Users\zzh\NucleiStudio_workspace\nice_ddr200\hbird_sdk\NMSIS\Core\Include/core_feature_base.h:598 (discriminator 1)
 * the hardware platform that suitable interrupts should
 * preferentially be routed to this hart.
 */
__STATIC_FORCEINLINE void __WFI(void)
{
    __ASM volatile("wfi");
80000354:	10500073          	wfi
80000358:	10500073          	wfi
8000035c:	10500073          	wfi
80000360:	10500073          	wfi
80000364:	10500073          	wfi
80000368:	10500073          	wfi
8000036c:	10500073          	wfi
80000370:	10500073          	wfi
80000374:	b7c5                	j	80000354 <_exit>
	...

80000378 <_fstat>:
_fstat():
C:\Users\zzh\NucleiStudio_workspace\nice_ddr200\Debug/../hbird_sdk/SoC/hbirdv2/Common/Source/Stubs/fstat.c:12
#undef errno
extern int errno;

__WEAK int _fstat(int file, struct stat *st)
{
    if ((STDOUT_FILENO == file) || (STDERR_FILENO == file)) {
80000378:	157d                	addi	a0,a0,-1
8000037a:	4785                	li	a5,1
8000037c:	00a7e863          	bltu	a5,a0,8000038c <_fstat+0x14>
C:\Users\zzh\NucleiStudio_workspace\nice_ddr200\Debug/../hbird_sdk/SoC/hbirdv2/Common/Source/Stubs/fstat.c:13
        st->st_mode = S_IFCHR;
80000380:	6309                	lui	t1,0x2
C:\Users\zzh\NucleiStudio_workspace\nice_ddr200\Debug/../hbird_sdk/SoC/hbirdv2/Common/Source/Stubs/fstat.c:14
        return 0;
80000382:	4501                	li	a0,0
C:\Users\zzh\NucleiStudio_workspace\nice_ddr200\Debug/../hbird_sdk/SoC/hbirdv2/Common/Source/Stubs/fstat.c:13
        st->st_mode = S_IFCHR;
80000384:	0065a223          	sw	t1,4(a1)
C:\Users\zzh\NucleiStudio_workspace\nice_ddr200\Debug/../hbird_sdk/SoC/hbirdv2/Common/Source/Stubs/fstat.c:14
        return 0;
80000388:	8082                	ret
8000038a:	0001                	nop
C:\Users\zzh\NucleiStudio_workspace\nice_ddr200\Debug/../hbird_sdk/SoC/hbirdv2/Common/Source/Stubs/fstat.c:16
    } else {
        errno = EBADF;
8000038c:	42a5                	li	t0,9
C:\Users\zzh\NucleiStudio_workspace\nice_ddr200\Debug/../hbird_sdk/SoC/hbirdv2/Common/Source/Stubs/fstat.c:17
        return -1;
8000038e:	557d                	li	a0,-1
C:\Users\zzh\NucleiStudio_workspace\nice_ddr200\Debug/../hbird_sdk/SoC/hbirdv2/Common/Source/Stubs/fstat.c:16
        errno = EBADF;
80000390:	8651a223          	sw	t0,-1948(gp) # 90000234 <errno>
C:\Users\zzh\NucleiStudio_workspace\nice_ddr200\Debug/../hbird_sdk/SoC/hbirdv2/Common/Source/Stubs/fstat.c:19
    }
}
80000394:	8082                	ret
	...

80000398 <_getpid>:
_getpid():
C:\Users\zzh\NucleiStudio_workspace\nice_ddr200\Debug/../hbird_sdk/SoC/hbirdv2/Common/Source/Stubs/getpid.c:8
#include <errno.h>

__WEAK int _getpid(void)
{
    return 1;
}
80000398:	4505                	li	a0,1
8000039a:	8082                	ret
8000039c:	0000                	unimp
	...

800003a0 <_isatty>:
_isatty():
C:\Users\zzh\NucleiStudio_workspace\nice_ddr200\Debug/../hbird_sdk/SoC/hbirdv2/Common/Source/Stubs/isatty.c:8
#include <unistd.h>

__WEAK int _isatty(int fd)
{
    return 1;
}
800003a0:	4505                	li	a0,1
800003a2:	8082                	ret
800003a4:	0000                	unimp
	...

800003a8 <_kill>:
_kill():
C:\Users\zzh\NucleiStudio_workspace\nice_ddr200\Debug/../hbird_sdk/SoC/hbirdv2/Common/Source/Stubs/kill.c:9
#undef errno
extern int errno;

__WEAK int _kill(int pid, int sig)
{
    errno = EINVAL;
800003a8:	47d9                	li	a5,22
800003aa:	86f1a223          	sw	a5,-1948(gp) # 90000234 <errno>
C:\Users\zzh\NucleiStudio_workspace\nice_ddr200\Debug/../hbird_sdk/SoC/hbirdv2/Common/Source/Stubs/kill.c:11
    return -1;
}
800003ae:	557d                	li	a0,-1
800003b0:	8082                	ret
	...

800003b4 <_lseek>:
_lseek():
C:\Users\zzh\NucleiStudio_workspace\nice_ddr200\Debug/../hbird_sdk/SoC/hbirdv2/Common/Source/Stubs/lseek.c:11
extern int errno;

__WEAK int _lseek(int file, int offset, int whence)
{
    return 0;
}
800003b4:	4501                	li	a0,0
800003b6:	8082                	ret
800003b8:	0000                	unimp
	...

800003bc <_read>:
_read():
C:\Users\zzh\NucleiStudio_workspace\nice_ddr200\Debug/../hbird_sdk/SoC/hbirdv2/Common/Source/Stubs/read.c:12

// #define UART_AUTO_ECHO

__WEAK ssize_t _read(int fd, void* ptr, size_t len)
{
    if (fd != STDIN_FILENO) {
800003bc:	c501                	beqz	a0,800003c4 <_read+0x8>
C:\Users\zzh\NucleiStudio_workspace\nice_ddr200\Debug/../hbird_sdk/SoC/hbirdv2/Common/Source/Stubs/read.c:13
        return -1;
800003be:	557d                	li	a0,-1
C:\Users\zzh\NucleiStudio_workspace\nice_ddr200\Debug/../hbird_sdk/SoC/hbirdv2/Common/Source/Stubs/read.c:22
    readbuf[0] = uart_read(SOC_DEBUG_UART);
#ifdef UART_AUTO_ECHO
    uart_write(SOC_DEBUG_UART, readbuf[0]);
#endif
    return 1;
}
800003c0:	8082                	ret
800003c2:	0001                	nop
C:\Users\zzh\NucleiStudio_workspace\nice_ddr200\Debug/../hbird_sdk/SoC/hbirdv2/Common/Source/Stubs/read.c:11
{
800003c4:	1141                	addi	sp,sp,-16
C:\Users\zzh\NucleiStudio_workspace\nice_ddr200\Debug/../hbird_sdk/SoC/hbirdv2/Common/Source/Stubs/read.c:17
    readbuf[0] = uart_read(SOC_DEBUG_UART);
800003c6:	10013537          	lui	a0,0x10013
C:\Users\zzh\NucleiStudio_workspace\nice_ddr200\Debug/../hbird_sdk/SoC/hbirdv2/Common/Source/Stubs/read.c:11
{
800003ca:	c422                	sw	s0,8(sp)
800003cc:	c606                	sw	ra,12(sp)
800003ce:	842e                	mv	s0,a1
C:\Users\zzh\NucleiStudio_workspace\nice_ddr200\Debug/../hbird_sdk/SoC/hbirdv2/Common/Source/Stubs/read.c:17
    readbuf[0] = uart_read(SOC_DEBUG_UART);
800003d0:	2901                	jal	800007e0 <uart_read>
800003d2:	87aa                	mv	a5,a0
800003d4:	00f40023          	sb	a5,0(s0)
C:\Users\zzh\NucleiStudio_workspace\nice_ddr200\Debug/../hbird_sdk/SoC/hbirdv2/Common/Source/Stubs/read.c:22
}
800003d8:	40b2                	lw	ra,12(sp)
800003da:	4422                	lw	s0,8(sp)
C:\Users\zzh\NucleiStudio_workspace\nice_ddr200\Debug/../hbird_sdk/SoC/hbirdv2/Common/Source/Stubs/read.c:21
    return 1;
800003dc:	4505                	li	a0,1
C:\Users\zzh\NucleiStudio_workspace\nice_ddr200\Debug/../hbird_sdk/SoC/hbirdv2/Common/Source/Stubs/read.c:22
}
800003de:	0141                	addi	sp,sp,16
800003e0:	8082                	ret
	...

800003e4 <_sbrk>:
_sbrk():
C:\Users\zzh\NucleiStudio_workspace\nice_ddr200\Debug/../hbird_sdk/SoC/hbirdv2/Common/Source/Stubs/sbrk.c:13
{
    extern char _end[];
    extern char _heap_end[];
    static char *curbrk = _end;

    if ((curbrk + incr < _end) || (curbrk + incr > _heap_end)) {
800003e4:	10000717          	auipc	a4,0x10000
800003e8:	dec70713          	addi	a4,a4,-532 # 900001d0 <curbrk.0>
800003ec:	431c                	lw	a5,0(a4)
800003ee:	99818693          	addi	a3,gp,-1640 # 90000368 <_end>
800003f2:	953e                	add	a0,a0,a5
800003f4:	00d56c63          	bltu	a0,a3,8000040c <_sbrk+0x28>
C:\Users\zzh\NucleiStudio_workspace\nice_ddr200\Debug/../hbird_sdk/SoC/hbirdv2/Common/Source/Stubs/sbrk.c:13 (discriminator 1)
800003f8:	1000f297          	auipc	t0,0x1000f
800003fc:	40828293          	addi	t0,t0,1032 # 9000f800 <_heap_end>
80000400:	00a2e663          	bltu	t0,a0,8000040c <_sbrk+0x28>
C:\Users\zzh\NucleiStudio_workspace\nice_ddr200\Debug/../hbird_sdk/SoC/hbirdv2/Common/Source/Stubs/sbrk.c:17
        return (void *)(-1);
    }

    curbrk += incr;
80000404:	c308                	sw	a0,0(a4)
C:\Users\zzh\NucleiStudio_workspace\nice_ddr200\Debug/../hbird_sdk/SoC/hbirdv2/Common/Source/Stubs/sbrk.c:19
    return (void *)(curbrk - incr);
}
80000406:	853e                	mv	a0,a5
80000408:	8082                	ret
8000040a:	0001                	nop
C:\Users\zzh\NucleiStudio_workspace\nice_ddr200\Debug/../hbird_sdk/SoC/hbirdv2/Common/Source/Stubs/sbrk.c:14
        return (void *)(-1);
8000040c:	57fd                	li	a5,-1
C:\Users\zzh\NucleiStudio_workspace\nice_ddr200\Debug/../hbird_sdk/SoC/hbirdv2/Common/Source/Stubs/sbrk.c:19
}
8000040e:	853e                	mv	a0,a5
80000410:	8082                	ret
	...

80000414 <_write>:
_write():
C:\Users\zzh\NucleiStudio_workspace\nice_ddr200\Debug/../hbird_sdk/SoC/hbirdv2/Common/Source/Stubs/write.c:9
#include <unistd.h>
#include <sys/types.h>
#include <hbird_sdk_hal.h>

__WEAK ssize_t _write(int fd, const void* ptr, size_t len)
{
80000414:	1101                	addi	sp,sp,-32
80000416:	c84a                	sw	s2,16(sp)
80000418:	c64e                	sw	s3,12(sp)
8000041a:	ce06                	sw	ra,28(sp)
8000041c:	cc22                	sw	s0,24(sp)
8000041e:	ca26                	sw	s1,20(sp)
80000420:	c452                	sw	s4,8(sp)
80000422:	892e                	mv	s2,a1
80000424:	89b2                	mv	s3,a2
C:\Users\zzh\NucleiStudio_workspace\nice_ddr200\Debug/../hbird_sdk/SoC/hbirdv2/Common/Source/Stubs/write.c:10
    if (!isatty(fd)) {
80000426:	01b020ef          	jal	ra,80002c40 <isatty>
8000042a:	26050a63          	beqz	a0,8000069e <_write+0x28a>
8000042e:	844a                	mv	s0,s2
80000430:	01390a33          	add	s4,s2,s3
C:\Users\zzh\NucleiStudio_workspace\nice_ddr200\Debug/../hbird_sdk/SoC/hbirdv2/Common/Source/Stubs/write.c:15
        return -1;
    }

    const uint8_t *writebuf = (const uint8_t *)ptr;
    for (size_t i = 0; i < len; i++) {
80000434:	0a098663          	beqz	s3,800004e0 <_write+0xcc>
80000438:	412a07b3          	sub	a5,s4,s2
8000043c:	0077f093          	andi	ra,a5,7
C:\Users\zzh\NucleiStudio_workspace\nice_ddr200\Debug/../hbird_sdk/SoC/hbirdv2/Common/Source/Stubs/write.c:16
        if (writebuf[i] == '\n') {
80000440:	44a9                	li	s1,10
80000442:	12008963          	beqz	ra,80000574 <_write+0x160>
80000446:	4705                	li	a4,1
80000448:	08e08263          	beq	ra,a4,800004cc <_write+0xb8>
8000044c:	4289                	li	t0,2
8000044e:	06508763          	beq	ra,t0,800004bc <_write+0xa8>
80000452:	430d                	li	t1,3
80000454:	04608c63          	beq	ra,t1,800004ac <_write+0x98>
80000458:	4391                	li	t2,4
8000045a:	04708163          	beq	ra,t2,8000049c <_write+0x88>
8000045e:	4515                	li	a0,5
80000460:	02a08663          	beq	ra,a0,8000048c <_write+0x78>
80000464:	4599                	li	a1,6
80000466:	00b08b63          	beq	ra,a1,8000047c <_write+0x68>
8000046a:	00094583          	lbu	a1,0(s2)
8000046e:	22958163          	beq	a1,s1,80000690 <_write+0x27c>
C:\Users\zzh\NucleiStudio_workspace\nice_ddr200\Debug/../hbird_sdk/SoC/hbirdv2/Common/Source/Stubs/write.c:19
            uart_write(SOC_DEBUG_UART, '\r');
        }
        uart_write(SOC_DEBUG_UART, writebuf[i]);
80000472:	10013537          	lui	a0,0x10013
80000476:	2619                	jal	8000077c <uart_write>
C:\Users\zzh\NucleiStudio_workspace\nice_ddr200\Debug/../hbird_sdk/SoC/hbirdv2/Common/Source/Stubs/write.c:15
    for (size_t i = 0; i < len; i++) {
80000478:	00190413          	addi	s0,s2,1
C:\Users\zzh\NucleiStudio_workspace\nice_ddr200\Debug/../hbird_sdk/SoC/hbirdv2/Common/Source/Stubs/write.c:16
        if (writebuf[i] == '\n') {
8000047c:	00044583          	lbu	a1,0(s0)
80000480:	20958163          	beq	a1,s1,80000682 <_write+0x26e>
C:\Users\zzh\NucleiStudio_workspace\nice_ddr200\Debug/../hbird_sdk/SoC/hbirdv2/Common/Source/Stubs/write.c:19
        uart_write(SOC_DEBUG_UART, writebuf[i]);
80000484:	10013537          	lui	a0,0x10013
80000488:	2cd5                	jal	8000077c <uart_write>
C:\Users\zzh\NucleiStudio_workspace\nice_ddr200\Debug/../hbird_sdk/SoC/hbirdv2/Common/Source/Stubs/write.c:15
    for (size_t i = 0; i < len; i++) {
8000048a:	0405                	addi	s0,s0,1
C:\Users\zzh\NucleiStudio_workspace\nice_ddr200\Debug/../hbird_sdk/SoC/hbirdv2/Common/Source/Stubs/write.c:16
        if (writebuf[i] == '\n') {
8000048c:	00044583          	lbu	a1,0(s0)
80000490:	1e958263          	beq	a1,s1,80000674 <_write+0x260>
C:\Users\zzh\NucleiStudio_workspace\nice_ddr200\Debug/../hbird_sdk/SoC/hbirdv2/Common/Source/Stubs/write.c:19
        uart_write(SOC_DEBUG_UART, writebuf[i]);
80000494:	10013537          	lui	a0,0x10013
80000498:	24d5                	jal	8000077c <uart_write>
C:\Users\zzh\NucleiStudio_workspace\nice_ddr200\Debug/../hbird_sdk/SoC/hbirdv2/Common/Source/Stubs/write.c:15
    for (size_t i = 0; i < len; i++) {
8000049a:	0405                	addi	s0,s0,1
C:\Users\zzh\NucleiStudio_workspace\nice_ddr200\Debug/../hbird_sdk/SoC/hbirdv2/Common/Source/Stubs/write.c:16
        if (writebuf[i] == '\n') {
8000049c:	00044583          	lbu	a1,0(s0)
800004a0:	1c958363          	beq	a1,s1,80000666 <_write+0x252>
C:\Users\zzh\NucleiStudio_workspace\nice_ddr200\Debug/../hbird_sdk/SoC/hbirdv2/Common/Source/Stubs/write.c:19
        uart_write(SOC_DEBUG_UART, writebuf[i]);
800004a4:	10013537          	lui	a0,0x10013
800004a8:	2cd1                	jal	8000077c <uart_write>
C:\Users\zzh\NucleiStudio_workspace\nice_ddr200\Debug/../hbird_sdk/SoC/hbirdv2/Common/Source/Stubs/write.c:15
    for (size_t i = 0; i < len; i++) {
800004aa:	0405                	addi	s0,s0,1
C:\Users\zzh\NucleiStudio_workspace\nice_ddr200\Debug/../hbird_sdk/SoC/hbirdv2/Common/Source/Stubs/write.c:16
        if (writebuf[i] == '\n') {
800004ac:	00044583          	lbu	a1,0(s0)
800004b0:	18958463          	beq	a1,s1,80000638 <_write+0x224>
C:\Users\zzh\NucleiStudio_workspace\nice_ddr200\Debug/../hbird_sdk/SoC/hbirdv2/Common/Source/Stubs/write.c:19
        uart_write(SOC_DEBUG_UART, writebuf[i]);
800004b4:	10013537          	lui	a0,0x10013
800004b8:	24d1                	jal	8000077c <uart_write>
C:\Users\zzh\NucleiStudio_workspace\nice_ddr200\Debug/../hbird_sdk/SoC/hbirdv2/Common/Source/Stubs/write.c:15
    for (size_t i = 0; i < len; i++) {
800004ba:	0405                	addi	s0,s0,1
C:\Users\zzh\NucleiStudio_workspace\nice_ddr200\Debug/../hbird_sdk/SoC/hbirdv2/Common/Source/Stubs/write.c:16
        if (writebuf[i] == '\n') {
800004bc:	00044583          	lbu	a1,0(s0)
800004c0:	18958c63          	beq	a1,s1,80000658 <_write+0x244>
C:\Users\zzh\NucleiStudio_workspace\nice_ddr200\Debug/../hbird_sdk/SoC/hbirdv2/Common/Source/Stubs/write.c:19
        uart_write(SOC_DEBUG_UART, writebuf[i]);
800004c4:	10013537          	lui	a0,0x10013
800004c8:	2c55                	jal	8000077c <uart_write>
C:\Users\zzh\NucleiStudio_workspace\nice_ddr200\Debug/../hbird_sdk/SoC/hbirdv2/Common/Source/Stubs/write.c:15
    for (size_t i = 0; i < len; i++) {
800004ca:	0405                	addi	s0,s0,1
C:\Users\zzh\NucleiStudio_workspace\nice_ddr200\Debug/../hbird_sdk/SoC/hbirdv2/Common/Source/Stubs/write.c:16
        if (writebuf[i] == '\n') {
800004cc:	00044583          	lbu	a1,0(s0)
800004d0:	16958c63          	beq	a1,s1,80000648 <_write+0x234>
C:\Users\zzh\NucleiStudio_workspace\nice_ddr200\Debug/../hbird_sdk/SoC/hbirdv2/Common/Source/Stubs/write.c:15
    for (size_t i = 0; i < len; i++) {
800004d4:	0405                	addi	s0,s0,1
C:\Users\zzh\NucleiStudio_workspace\nice_ddr200\Debug/../hbird_sdk/SoC/hbirdv2/Common/Source/Stubs/write.c:19
        uart_write(SOC_DEBUG_UART, writebuf[i]);
800004d6:	10013537          	lui	a0,0x10013
800004da:	244d                	jal	8000077c <uart_write>
C:\Users\zzh\NucleiStudio_workspace\nice_ddr200\Debug/../hbird_sdk/SoC/hbirdv2/Common/Source/Stubs/write.c:15
    for (size_t i = 0; i < len; i++) {
800004dc:	09441c63          	bne	s0,s4,80000574 <_write+0x160>
C:\Users\zzh\NucleiStudio_workspace\nice_ddr200\Debug/../hbird_sdk/SoC/hbirdv2/Common/Source/Stubs/write.c:21
    }
    return len;
800004e0:	854e                	mv	a0,s3
C:\Users\zzh\NucleiStudio_workspace\nice_ddr200\Debug/../hbird_sdk/SoC/hbirdv2/Common/Source/Stubs/write.c:22
}
800004e2:	40f2                	lw	ra,28(sp)
800004e4:	4462                	lw	s0,24(sp)
800004e6:	44d2                	lw	s1,20(sp)
800004e8:	4942                	lw	s2,16(sp)
800004ea:	49b2                	lw	s3,12(sp)
800004ec:	4a22                	lw	s4,8(sp)
800004ee:	6105                	addi	sp,sp,32
800004f0:	8082                	ret
800004f2:	0001                	nop
C:\Users\zzh\NucleiStudio_workspace\nice_ddr200\Debug/../hbird_sdk/SoC/hbirdv2/Common/Source/Stubs/write.c:17
            uart_write(SOC_DEBUG_UART, '\r');
800004f4:	45b5                	li	a1,13
800004f6:	10013537          	lui	a0,0x10013
800004fa:	2449                	jal	8000077c <uart_write>
C:\Users\zzh\NucleiStudio_workspace\nice_ddr200\Debug/../hbird_sdk/SoC/hbirdv2/Common/Source/Stubs/write.c:19
        uart_write(SOC_DEBUG_UART, writebuf[i]);
800004fc:	00044583          	lbu	a1,0(s0)
80000500:	10013537          	lui	a0,0x10013
C:\Users\zzh\NucleiStudio_workspace\nice_ddr200\Debug/../hbird_sdk/SoC/hbirdv2/Common/Source/Stubs/write.c:15
    for (size_t i = 0; i < len; i++) {
80000504:	00140913          	addi	s2,s0,1
C:\Users\zzh\NucleiStudio_workspace\nice_ddr200\Debug/../hbird_sdk/SoC/hbirdv2/Common/Source/Stubs/write.c:19
        uart_write(SOC_DEBUG_UART, writebuf[i]);
80000508:	2c95                	jal	8000077c <uart_write>
C:\Users\zzh\NucleiStudio_workspace\nice_ddr200\Debug/../hbird_sdk/SoC/hbirdv2/Common/Source/Stubs/write.c:16
        if (writebuf[i] == '\n') {
8000050a:	00144583          	lbu	a1,1(s0)
8000050e:	08958063          	beq	a1,s1,8000058e <_write+0x17a>
C:\Users\zzh\NucleiStudio_workspace\nice_ddr200\Debug/../hbird_sdk/SoC/hbirdv2/Common/Source/Stubs/write.c:19
        uart_write(SOC_DEBUG_UART, writebuf[i]);
80000512:	10013537          	lui	a0,0x10013
80000516:	249d                	jal	8000077c <uart_write>
C:\Users\zzh\NucleiStudio_workspace\nice_ddr200\Debug/../hbird_sdk/SoC/hbirdv2/Common/Source/Stubs/write.c:16
        if (writebuf[i] == '\n') {
80000518:	00194583          	lbu	a1,1(s2)
8000051c:	08958663          	beq	a1,s1,800005a8 <_write+0x194>
C:\Users\zzh\NucleiStudio_workspace\nice_ddr200\Debug/../hbird_sdk/SoC/hbirdv2/Common/Source/Stubs/write.c:19
        uart_write(SOC_DEBUG_UART, writebuf[i]);
80000520:	10013537          	lui	a0,0x10013
80000524:	2ca1                	jal	8000077c <uart_write>
C:\Users\zzh\NucleiStudio_workspace\nice_ddr200\Debug/../hbird_sdk/SoC/hbirdv2/Common/Source/Stubs/write.c:16
        if (writebuf[i] == '\n') {
80000526:	00294583          	lbu	a1,2(s2)
8000052a:	08958c63          	beq	a1,s1,800005c2 <_write+0x1ae>
C:\Users\zzh\NucleiStudio_workspace\nice_ddr200\Debug/../hbird_sdk/SoC/hbirdv2/Common/Source/Stubs/write.c:19
        uart_write(SOC_DEBUG_UART, writebuf[i]);
8000052e:	10013537          	lui	a0,0x10013
80000532:	24a9                	jal	8000077c <uart_write>
C:\Users\zzh\NucleiStudio_workspace\nice_ddr200\Debug/../hbird_sdk/SoC/hbirdv2/Common/Source/Stubs/write.c:16
        if (writebuf[i] == '\n') {
80000534:	00394583          	lbu	a1,3(s2)
80000538:	0a958263          	beq	a1,s1,800005dc <_write+0x1c8>
C:\Users\zzh\NucleiStudio_workspace\nice_ddr200\Debug/../hbird_sdk/SoC/hbirdv2/Common/Source/Stubs/write.c:19
        uart_write(SOC_DEBUG_UART, writebuf[i]);
8000053c:	10013537          	lui	a0,0x10013
80000540:	2c35                	jal	8000077c <uart_write>
C:\Users\zzh\NucleiStudio_workspace\nice_ddr200\Debug/../hbird_sdk/SoC/hbirdv2/Common/Source/Stubs/write.c:16
        if (writebuf[i] == '\n') {
80000542:	00494583          	lbu	a1,4(s2)
80000546:	0a958863          	beq	a1,s1,800005f6 <_write+0x1e2>
C:\Users\zzh\NucleiStudio_workspace\nice_ddr200\Debug/../hbird_sdk/SoC/hbirdv2/Common/Source/Stubs/write.c:19
        uart_write(SOC_DEBUG_UART, writebuf[i]);
8000054a:	10013537          	lui	a0,0x10013
8000054e:	243d                	jal	8000077c <uart_write>
C:\Users\zzh\NucleiStudio_workspace\nice_ddr200\Debug/../hbird_sdk/SoC/hbirdv2/Common/Source/Stubs/write.c:16
        if (writebuf[i] == '\n') {
80000550:	00594583          	lbu	a1,5(s2)
80000554:	0a958e63          	beq	a1,s1,80000610 <_write+0x1fc>
C:\Users\zzh\NucleiStudio_workspace\nice_ddr200\Debug/../hbird_sdk/SoC/hbirdv2/Common/Source/Stubs/write.c:19
        uart_write(SOC_DEBUG_UART, writebuf[i]);
80000558:	10013537          	lui	a0,0x10013
8000055c:	2405                	jal	8000077c <uart_write>
C:\Users\zzh\NucleiStudio_workspace\nice_ddr200\Debug/../hbird_sdk/SoC/hbirdv2/Common/Source/Stubs/write.c:16
        if (writebuf[i] == '\n') {
8000055e:	00694583          	lbu	a1,6(s2)
80000562:	0c958463          	beq	a1,s1,8000062a <_write+0x216>
C:\Users\zzh\NucleiStudio_workspace\nice_ddr200\Debug/../hbird_sdk/SoC/hbirdv2/Common/Source/Stubs/write.c:15
    for (size_t i = 0; i < len; i++) {
80000566:	00790413          	addi	s0,s2,7
C:\Users\zzh\NucleiStudio_workspace\nice_ddr200\Debug/../hbird_sdk/SoC/hbirdv2/Common/Source/Stubs/write.c:19
        uart_write(SOC_DEBUG_UART, writebuf[i]);
8000056a:	10013537          	lui	a0,0x10013
8000056e:	2439                	jal	8000077c <uart_write>
C:\Users\zzh\NucleiStudio_workspace\nice_ddr200\Debug/../hbird_sdk/SoC/hbirdv2/Common/Source/Stubs/write.c:15
    for (size_t i = 0; i < len; i++) {
80000570:	f74408e3          	beq	s0,s4,800004e0 <_write+0xcc>
C:\Users\zzh\NucleiStudio_workspace\nice_ddr200\Debug/../hbird_sdk/SoC/hbirdv2/Common/Source/Stubs/write.c:16
        if (writebuf[i] == '\n') {
80000574:	00044583          	lbu	a1,0(s0)
80000578:	f6958ee3          	beq	a1,s1,800004f4 <_write+0xe0>
C:\Users\zzh\NucleiStudio_workspace\nice_ddr200\Debug/../hbird_sdk/SoC/hbirdv2/Common/Source/Stubs/write.c:19
        uart_write(SOC_DEBUG_UART, writebuf[i]);
8000057c:	10013537          	lui	a0,0x10013
80000580:	2af5                	jal	8000077c <uart_write>
C:\Users\zzh\NucleiStudio_workspace\nice_ddr200\Debug/../hbird_sdk/SoC/hbirdv2/Common/Source/Stubs/write.c:16
        if (writebuf[i] == '\n') {
80000582:	00144583          	lbu	a1,1(s0)
C:\Users\zzh\NucleiStudio_workspace\nice_ddr200\Debug/../hbird_sdk/SoC/hbirdv2/Common/Source/Stubs/write.c:15
    for (size_t i = 0; i < len; i++) {
80000586:	00140913          	addi	s2,s0,1
C:\Users\zzh\NucleiStudio_workspace\nice_ddr200\Debug/../hbird_sdk/SoC/hbirdv2/Common/Source/Stubs/write.c:16
        if (writebuf[i] == '\n') {
8000058a:	f89594e3          	bne	a1,s1,80000512 <_write+0xfe>
C:\Users\zzh\NucleiStudio_workspace\nice_ddr200\Debug/../hbird_sdk/SoC/hbirdv2/Common/Source/Stubs/write.c:17
            uart_write(SOC_DEBUG_UART, '\r');
8000058e:	45b5                	li	a1,13
80000590:	10013537          	lui	a0,0x10013
80000594:	22e5                	jal	8000077c <uart_write>
C:\Users\zzh\NucleiStudio_workspace\nice_ddr200\Debug/../hbird_sdk/SoC/hbirdv2/Common/Source/Stubs/write.c:19
        uart_write(SOC_DEBUG_UART, writebuf[i]);
80000596:	00144583          	lbu	a1,1(s0)
8000059a:	10013537          	lui	a0,0x10013
8000059e:	2af9                	jal	8000077c <uart_write>
C:\Users\zzh\NucleiStudio_workspace\nice_ddr200\Debug/../hbird_sdk/SoC/hbirdv2/Common/Source/Stubs/write.c:16
        if (writebuf[i] == '\n') {
800005a0:	00194583          	lbu	a1,1(s2)
800005a4:	f6959ee3          	bne	a1,s1,80000520 <_write+0x10c>
C:\Users\zzh\NucleiStudio_workspace\nice_ddr200\Debug/../hbird_sdk/SoC/hbirdv2/Common/Source/Stubs/write.c:17
            uart_write(SOC_DEBUG_UART, '\r');
800005a8:	45b5                	li	a1,13
800005aa:	10013537          	lui	a0,0x10013
800005ae:	22f9                	jal	8000077c <uart_write>
C:\Users\zzh\NucleiStudio_workspace\nice_ddr200\Debug/../hbird_sdk/SoC/hbirdv2/Common/Source/Stubs/write.c:19
        uart_write(SOC_DEBUG_UART, writebuf[i]);
800005b0:	00194583          	lbu	a1,1(s2)
800005b4:	10013537          	lui	a0,0x10013
800005b8:	22d1                	jal	8000077c <uart_write>
C:\Users\zzh\NucleiStudio_workspace\nice_ddr200\Debug/../hbird_sdk/SoC/hbirdv2/Common/Source/Stubs/write.c:16
        if (writebuf[i] == '\n') {
800005ba:	00294583          	lbu	a1,2(s2)
800005be:	f69598e3          	bne	a1,s1,8000052e <_write+0x11a>
C:\Users\zzh\NucleiStudio_workspace\nice_ddr200\Debug/../hbird_sdk/SoC/hbirdv2/Common/Source/Stubs/write.c:17
            uart_write(SOC_DEBUG_UART, '\r');
800005c2:	45b5                	li	a1,13
800005c4:	10013537          	lui	a0,0x10013
800005c8:	2a55                	jal	8000077c <uart_write>
C:\Users\zzh\NucleiStudio_workspace\nice_ddr200\Debug/../hbird_sdk/SoC/hbirdv2/Common/Source/Stubs/write.c:19
        uart_write(SOC_DEBUG_UART, writebuf[i]);
800005ca:	00294583          	lbu	a1,2(s2)
800005ce:	10013537          	lui	a0,0x10013
800005d2:	226d                	jal	8000077c <uart_write>
C:\Users\zzh\NucleiStudio_workspace\nice_ddr200\Debug/../hbird_sdk/SoC/hbirdv2/Common/Source/Stubs/write.c:16
        if (writebuf[i] == '\n') {
800005d4:	00394583          	lbu	a1,3(s2)
800005d8:	f69592e3          	bne	a1,s1,8000053c <_write+0x128>
C:\Users\zzh\NucleiStudio_workspace\nice_ddr200\Debug/../hbird_sdk/SoC/hbirdv2/Common/Source/Stubs/write.c:17
            uart_write(SOC_DEBUG_UART, '\r');
800005dc:	45b5                	li	a1,13
800005de:	10013537          	lui	a0,0x10013
800005e2:	2a69                	jal	8000077c <uart_write>
C:\Users\zzh\NucleiStudio_workspace\nice_ddr200\Debug/../hbird_sdk/SoC/hbirdv2/Common/Source/Stubs/write.c:19
        uart_write(SOC_DEBUG_UART, writebuf[i]);
800005e4:	00394583          	lbu	a1,3(s2)
800005e8:	10013537          	lui	a0,0x10013
800005ec:	2a41                	jal	8000077c <uart_write>
C:\Users\zzh\NucleiStudio_workspace\nice_ddr200\Debug/../hbird_sdk/SoC/hbirdv2/Common/Source/Stubs/write.c:16
        if (writebuf[i] == '\n') {
800005ee:	00494583          	lbu	a1,4(s2)
800005f2:	f4959ce3          	bne	a1,s1,8000054a <_write+0x136>
C:\Users\zzh\NucleiStudio_workspace\nice_ddr200\Debug/../hbird_sdk/SoC/hbirdv2/Common/Source/Stubs/write.c:17
            uart_write(SOC_DEBUG_UART, '\r');
800005f6:	45b5                	li	a1,13
800005f8:	10013537          	lui	a0,0x10013
800005fc:	2241                	jal	8000077c <uart_write>
C:\Users\zzh\NucleiStudio_workspace\nice_ddr200\Debug/../hbird_sdk/SoC/hbirdv2/Common/Source/Stubs/write.c:19
        uart_write(SOC_DEBUG_UART, writebuf[i]);
800005fe:	00494583          	lbu	a1,4(s2)
80000602:	10013537          	lui	a0,0x10013
80000606:	2a9d                	jal	8000077c <uart_write>
C:\Users\zzh\NucleiStudio_workspace\nice_ddr200\Debug/../hbird_sdk/SoC/hbirdv2/Common/Source/Stubs/write.c:16
        if (writebuf[i] == '\n') {
80000608:	00594583          	lbu	a1,5(s2)
8000060c:	f49596e3          	bne	a1,s1,80000558 <_write+0x144>
C:\Users\zzh\NucleiStudio_workspace\nice_ddr200\Debug/../hbird_sdk/SoC/hbirdv2/Common/Source/Stubs/write.c:17
            uart_write(SOC_DEBUG_UART, '\r');
80000610:	45b5                	li	a1,13
80000612:	10013537          	lui	a0,0x10013
80000616:	229d                	jal	8000077c <uart_write>
C:\Users\zzh\NucleiStudio_workspace\nice_ddr200\Debug/../hbird_sdk/SoC/hbirdv2/Common/Source/Stubs/write.c:19
        uart_write(SOC_DEBUG_UART, writebuf[i]);
80000618:	00594583          	lbu	a1,5(s2)
8000061c:	10013537          	lui	a0,0x10013
80000620:	2ab1                	jal	8000077c <uart_write>
C:\Users\zzh\NucleiStudio_workspace\nice_ddr200\Debug/../hbird_sdk/SoC/hbirdv2/Common/Source/Stubs/write.c:16
        if (writebuf[i] == '\n') {
80000622:	00694583          	lbu	a1,6(s2)
80000626:	f49590e3          	bne	a1,s1,80000566 <_write+0x152>
C:\Users\zzh\NucleiStudio_workspace\nice_ddr200\Debug/../hbird_sdk/SoC/hbirdv2/Common/Source/Stubs/write.c:17
            uart_write(SOC_DEBUG_UART, '\r');
8000062a:	45b5                	li	a1,13
8000062c:	10013537          	lui	a0,0x10013
80000630:	22b1                	jal	8000077c <uart_write>
C:\Users\zzh\NucleiStudio_workspace\nice_ddr200\Debug/../hbird_sdk/SoC/hbirdv2/Common/Source/Stubs/write.c:19
        uart_write(SOC_DEBUG_UART, writebuf[i]);
80000632:	00694583          	lbu	a1,6(s2)
80000636:	bf05                	j	80000566 <_write+0x152>
C:\Users\zzh\NucleiStudio_workspace\nice_ddr200\Debug/../hbird_sdk/SoC/hbirdv2/Common/Source/Stubs/write.c:17
            uart_write(SOC_DEBUG_UART, '\r');
80000638:	45b5                	li	a1,13
8000063a:	10013537          	lui	a0,0x10013
8000063e:	2a3d                	jal	8000077c <uart_write>
C:\Users\zzh\NucleiStudio_workspace\nice_ddr200\Debug/../hbird_sdk/SoC/hbirdv2/Common/Source/Stubs/write.c:19
        uart_write(SOC_DEBUG_UART, writebuf[i]);
80000640:	00044583          	lbu	a1,0(s0)
80000644:	bd85                	j	800004b4 <_write+0xa0>
80000646:	0001                	nop
C:\Users\zzh\NucleiStudio_workspace\nice_ddr200\Debug/../hbird_sdk/SoC/hbirdv2/Common/Source/Stubs/write.c:17
            uart_write(SOC_DEBUG_UART, '\r');
80000648:	45b5                	li	a1,13
8000064a:	10013537          	lui	a0,0x10013
8000064e:	223d                	jal	8000077c <uart_write>
C:\Users\zzh\NucleiStudio_workspace\nice_ddr200\Debug/../hbird_sdk/SoC/hbirdv2/Common/Source/Stubs/write.c:19
        uart_write(SOC_DEBUG_UART, writebuf[i]);
80000650:	00044583          	lbu	a1,0(s0)
80000654:	b541                	j	800004d4 <_write+0xc0>
80000656:	0001                	nop
C:\Users\zzh\NucleiStudio_workspace\nice_ddr200\Debug/../hbird_sdk/SoC/hbirdv2/Common/Source/Stubs/write.c:17
            uart_write(SOC_DEBUG_UART, '\r');
80000658:	45b5                	li	a1,13
8000065a:	10013537          	lui	a0,0x10013
8000065e:	2a39                	jal	8000077c <uart_write>
C:\Users\zzh\NucleiStudio_workspace\nice_ddr200\Debug/../hbird_sdk/SoC/hbirdv2/Common/Source/Stubs/write.c:19
        uart_write(SOC_DEBUG_UART, writebuf[i]);
80000660:	00044583          	lbu	a1,0(s0)
80000664:	b585                	j	800004c4 <_write+0xb0>
C:\Users\zzh\NucleiStudio_workspace\nice_ddr200\Debug/../hbird_sdk/SoC/hbirdv2/Common/Source/Stubs/write.c:17
            uart_write(SOC_DEBUG_UART, '\r');
80000666:	45b5                	li	a1,13
80000668:	10013537          	lui	a0,0x10013
8000066c:	2a01                	jal	8000077c <uart_write>
C:\Users\zzh\NucleiStudio_workspace\nice_ddr200\Debug/../hbird_sdk/SoC/hbirdv2/Common/Source/Stubs/write.c:19
        uart_write(SOC_DEBUG_UART, writebuf[i]);
8000066e:	00044583          	lbu	a1,0(s0)
80000672:	bd0d                	j	800004a4 <_write+0x90>
C:\Users\zzh\NucleiStudio_workspace\nice_ddr200\Debug/../hbird_sdk/SoC/hbirdv2/Common/Source/Stubs/write.c:17
            uart_write(SOC_DEBUG_UART, '\r');
80000674:	45b5                	li	a1,13
80000676:	10013537          	lui	a0,0x10013
8000067a:	2209                	jal	8000077c <uart_write>
C:\Users\zzh\NucleiStudio_workspace\nice_ddr200\Debug/../hbird_sdk/SoC/hbirdv2/Common/Source/Stubs/write.c:19
        uart_write(SOC_DEBUG_UART, writebuf[i]);
8000067c:	00044583          	lbu	a1,0(s0)
80000680:	bd11                	j	80000494 <_write+0x80>
C:\Users\zzh\NucleiStudio_workspace\nice_ddr200\Debug/../hbird_sdk/SoC/hbirdv2/Common/Source/Stubs/write.c:17
            uart_write(SOC_DEBUG_UART, '\r');
80000682:	45b5                	li	a1,13
80000684:	10013537          	lui	a0,0x10013
80000688:	28d5                	jal	8000077c <uart_write>
C:\Users\zzh\NucleiStudio_workspace\nice_ddr200\Debug/../hbird_sdk/SoC/hbirdv2/Common/Source/Stubs/write.c:19
        uart_write(SOC_DEBUG_UART, writebuf[i]);
8000068a:	00044583          	lbu	a1,0(s0)
8000068e:	bbdd                	j	80000484 <_write+0x70>
C:\Users\zzh\NucleiStudio_workspace\nice_ddr200\Debug/../hbird_sdk/SoC/hbirdv2/Common/Source/Stubs/write.c:17
            uart_write(SOC_DEBUG_UART, '\r');
80000690:	45b5                	li	a1,13
80000692:	10013537          	lui	a0,0x10013
80000696:	20dd                	jal	8000077c <uart_write>
C:\Users\zzh\NucleiStudio_workspace\nice_ddr200\Debug/../hbird_sdk/SoC/hbirdv2/Common/Source/Stubs/write.c:19
        uart_write(SOC_DEBUG_UART, writebuf[i]);
80000698:	00094583          	lbu	a1,0(s2)
8000069c:	bbd9                	j	80000472 <_write+0x5e>
C:\Users\zzh\NucleiStudio_workspace\nice_ddr200\Debug/../hbird_sdk/SoC/hbirdv2/Common/Source/Stubs/write.c:11
        return -1;
8000069e:	557d                	li	a0,-1
800006a0:	b589                	j	800004e2 <_write+0xce>
	...

800006a4 <trap_entry>:
trap_entry():
C:\Users\zzh\NucleiStudio_workspace\nice_ddr200\Debug/../hbird_sdk/SoC/hbirdv2/Common/Source/GCC/intexc_hbirdv2.S:159
.align 2
.global trap_entry
.weak trap_entry
trap_entry:
    /* Save the caller saving registers (context) */
    SAVE_CONTEXT
800006a4:	715d                	addi	sp,sp,-80
800006a6:	c006                	sw	ra,0(sp)
800006a8:	c212                	sw	tp,4(sp)
800006aa:	c416                	sw	t0,8(sp)
800006ac:	c61a                	sw	t1,12(sp)
800006ae:	c81e                	sw	t2,16(sp)
800006b0:	ca2a                	sw	a0,20(sp)
800006b2:	cc2e                	sw	a1,24(sp)
800006b4:	ce32                	sw	a2,28(sp)
800006b6:	d036                	sw	a3,32(sp)
800006b8:	d23a                	sw	a4,36(sp)
800006ba:	d43e                	sw	a5,40(sp)
800006bc:	dc42                	sw	a6,56(sp)
800006be:	de46                	sw	a7,60(sp)
800006c0:	c0f2                	sw	t3,64(sp)
800006c2:	c2f6                	sw	t4,68(sp)
800006c4:	c4fa                	sw	t5,72(sp)
800006c6:	c6fe                	sw	t6,76(sp)
C:\Users\zzh\NucleiStudio_workspace\nice_ddr200\Debug/../hbird_sdk/SoC/hbirdv2/Common/Source/GCC/intexc_hbirdv2.S:161
    /* Save the necessary CSR registers */
    SAVE_CSR_CONTEXT
800006c8:	341022f3          	csrr	t0,mepc
800006cc:	d616                	sw	t0,44(sp)
800006ce:	342022f3          	csrr	t0,mcause
800006d2:	d816                	sw	t0,48(sp)
800006d4:	300022f3          	csrr	t0,mstatus
800006d8:	da16                	sw	t0,52(sp)
C:\Users\zzh\NucleiStudio_workspace\nice_ddr200\Debug/../hbird_sdk/SoC/hbirdv2/Common/Source/GCC/intexc_hbirdv2.S:168
    /*
     * Set the exception handler function arguments
     * argument 1: mcause value
     * argument 2: current stack point(SP) value
     */
    csrr a0, mcause
800006da:	34202573          	csrr	a0,mcause
C:\Users\zzh\NucleiStudio_workspace\nice_ddr200\Debug/../hbird_sdk/SoC/hbirdv2/Common/Source/GCC/intexc_hbirdv2.S:169
    mv a1, sp
800006de:	858a                	mv	a1,sp
C:\Users\zzh\NucleiStudio_workspace\nice_ddr200\Debug/../hbird_sdk/SoC/hbirdv2/Common/Source/GCC/intexc_hbirdv2.S:175
    /*
     * TODO: Call the trap handler function
     * By default, the function template is provided in
     * system_Device.c, you can adjust it as you want
     */
    call core_trap_handler
800006e0:	2951                	jal	80000b74 <core_trap_handler>
C:\Users\zzh\NucleiStudio_workspace\nice_ddr200\Debug/../hbird_sdk/SoC/hbirdv2/Common/Source/GCC/intexc_hbirdv2.S:178

    /* Restore the necessary CSR registers */
    RESTORE_CSR_CONTEXT
800006e2:	52b2                	lw	t0,44(sp)
800006e4:	34129073          	csrw	mepc,t0
800006e8:	52c2                	lw	t0,48(sp)
800006ea:	34229073          	csrw	mcause,t0
800006ee:	52d2                	lw	t0,52(sp)
800006f0:	30029073          	csrw	mstatus,t0
C:\Users\zzh\NucleiStudio_workspace\nice_ddr200\Debug/../hbird_sdk/SoC/hbirdv2/Common/Source/GCC/intexc_hbirdv2.S:180
    /* Restore the caller saving registers (context) */
    RESTORE_CONTEXT
800006f4:	4082                	lw	ra,0(sp)
800006f6:	4212                	lw	tp,4(sp)
800006f8:	42a2                	lw	t0,8(sp)
800006fa:	4332                	lw	t1,12(sp)
800006fc:	43c2                	lw	t2,16(sp)
800006fe:	4552                	lw	a0,20(sp)
80000700:	45e2                	lw	a1,24(sp)
80000702:	4672                	lw	a2,28(sp)
80000704:	5682                	lw	a3,32(sp)
80000706:	5712                	lw	a4,36(sp)
80000708:	57a2                	lw	a5,40(sp)
8000070a:	5862                	lw	a6,56(sp)
8000070c:	58f2                	lw	a7,60(sp)
8000070e:	4e06                	lw	t3,64(sp)
80000710:	4e96                	lw	t4,68(sp)
80000712:	4f26                	lw	t5,72(sp)
80000714:	4fb6                	lw	t6,76(sp)
80000716:	6161                	addi	sp,sp,80
C:\Users\zzh\NucleiStudio_workspace\nice_ddr200\Debug/../hbird_sdk/SoC/hbirdv2/Common/Source/GCC/intexc_hbirdv2.S:183

    /* Return to regular code */
    mret
80000718:	30200073          	mret

8000071c <gpio_iof_config>:
gpio_iof_config():
C:\Users\zzh\NucleiStudio_workspace\nice_ddr200\Debug/../hbird_sdk/SoC/hbirdv2/Common/Source/Drivers/hbirdv2_gpio.c:5
#include "hbirdv2.h"
#include "hbirdv2_gpio.h"

int32_t gpio_iof_config(GPIO_TypeDef *gpio, uint32_t mask)
{
8000071c:	87aa                	mv	a5,a0
C:\Users\zzh\NucleiStudio_workspace\nice_ddr200\Debug/../hbird_sdk/SoC/hbirdv2/Common/Source/Drivers/hbirdv2_gpio.c:6
    if (__RARELY(gpio == NULL)) {
8000071e:	c519                	beqz	a0,8000072c <gpio_iof_config+0x10>
C:\Users\zzh\NucleiStudio_workspace\nice_ddr200\Debug/../hbird_sdk/SoC/hbirdv2/Common/Source/Drivers/hbirdv2_gpio.c:9
        return -1;
    }
    gpio->IOFCFG |= mask;
80000720:	4d58                	lw	a4,28(a0)
C:\Users\zzh\NucleiStudio_workspace\nice_ddr200\Debug/../hbird_sdk/SoC/hbirdv2/Common/Source/Drivers/hbirdv2_gpio.c:11

    return 0;
80000722:	4501                	li	a0,0
C:\Users\zzh\NucleiStudio_workspace\nice_ddr200\Debug/../hbird_sdk/SoC/hbirdv2/Common/Source/Drivers/hbirdv2_gpio.c:9
    gpio->IOFCFG |= mask;
80000724:	8dd9                	or	a1,a1,a4
80000726:	cfcc                	sw	a1,28(a5)
C:\Users\zzh\NucleiStudio_workspace\nice_ddr200\Debug/../hbird_sdk/SoC/hbirdv2/Common/Source/Drivers/hbirdv2_gpio.c:11
    return 0;
80000728:	8082                	ret
8000072a:	0001                	nop
C:\Users\zzh\NucleiStudio_workspace\nice_ddr200\Debug/../hbird_sdk/SoC/hbirdv2/Common/Source/Drivers/hbirdv2_gpio.c:7
        return -1;
8000072c:	557d                	li	a0,-1
C:\Users\zzh\NucleiStudio_workspace\nice_ddr200\Debug/../hbird_sdk/SoC/hbirdv2/Common/Source/Drivers/hbirdv2_gpio.c:12
}
8000072e:	8082                	ret
80000730:	0000                	unimp
	...

80000734 <uart_init>:
uart_init():
C:\Users\zzh\NucleiStudio_workspace\nice_ddr200\Debug/../hbird_sdk/SoC/hbirdv2/Common/Source/Drivers/hbirdv2_uart.c:5
#include "hbirdv2.h"
#include "hbirdv2_uart.h"

int32_t uart_init(UART_TypeDef *uart, uint32_t baudrate)
{
80000734:	87aa                	mv	a5,a0
C:\Users\zzh\NucleiStudio_workspace\nice_ddr200\Debug/../hbird_sdk/SoC/hbirdv2/Common/Source/Drivers/hbirdv2_uart.c:6
    if (__RARELY(uart == NULL)) {
80000736:	cd1d                	beqz	a0,80000774 <uart_init+0x40>
C:\Users\zzh\NucleiStudio_workspace\nice_ddr200\Debug/../hbird_sdk/SoC/hbirdv2/Common/Source/Drivers/hbirdv2_uart.c:10
        return -1;
    }

    unsigned int uart_div = SystemCoreClock / baudrate - 1;
80000738:	10000717          	auipc	a4,0x10000
8000073c:	a9c72703          	lw	a4,-1380(a4) # 900001d4 <SystemCoreClock>
80000740:	02b755b3          	divu	a1,a4,a1
C:\Users\zzh\NucleiStudio_workspace\nice_ddr200\Debug/../hbird_sdk/SoC/hbirdv2/Common/Source/Drivers/hbirdv2_uart.c:11
    uart->LCR = 0x80;
80000744:	08000293          	li	t0,128
80000748:	00552623          	sw	t0,12(a0) # 1001300c <__stack_size+0x1001280c>
C:\Users\zzh\NucleiStudio_workspace\nice_ddr200\Debug/../hbird_sdk/SoC/hbirdv2/Common/Source/Drivers/hbirdv2_uart.c:14
    uart->DLM = (uart_div >> 8) & 0xFF;
    uart->DLL = uart_div        & 0xFF;
    uart->FCR = 0xC6;
8000074c:	0c600813          	li	a6,198
C:\Users\zzh\NucleiStudio_workspace\nice_ddr200\Debug/../hbird_sdk/SoC/hbirdv2/Common/Source/Drivers/hbirdv2_uart.c:15
    uart->LCR = 0x03;
80000750:	488d                	li	a7,3
C:\Users\zzh\NucleiStudio_workspace\nice_ddr200\Debug/../hbird_sdk/SoC/hbirdv2/Common/Source/Drivers/hbirdv2_uart.c:17

    return 0;
80000752:	4501                	li	a0,0
C:\Users\zzh\NucleiStudio_workspace\nice_ddr200\Debug/../hbird_sdk/SoC/hbirdv2/Common/Source/Drivers/hbirdv2_uart.c:10
    unsigned int uart_div = SystemCoreClock / baudrate - 1;
80000754:	fff58313          	addi	t1,a1,-1
C:\Users\zzh\NucleiStudio_workspace\nice_ddr200\Debug/../hbird_sdk/SoC/hbirdv2/Common/Source/Drivers/hbirdv2_uart.c:12
    uart->DLM = (uart_div >> 8) & 0xFF;
80000758:	00835393          	srli	t2,t1,0x8
8000075c:	0ff3f613          	zext.b	a2,t2
80000760:	c3d0                	sw	a2,4(a5)
C:\Users\zzh\NucleiStudio_workspace\nice_ddr200\Debug/../hbird_sdk/SoC/hbirdv2/Common/Source/Drivers/hbirdv2_uart.c:13
    uart->DLL = uart_div        & 0xFF;
80000762:	0ff37693          	zext.b	a3,t1
80000766:	c394                	sw	a3,0(a5)
C:\Users\zzh\NucleiStudio_workspace\nice_ddr200\Debug/../hbird_sdk/SoC/hbirdv2/Common/Source/Drivers/hbirdv2_uart.c:14
    uart->FCR = 0xC6;
80000768:	0107a423          	sw	a6,8(a5)
C:\Users\zzh\NucleiStudio_workspace\nice_ddr200\Debug/../hbird_sdk/SoC/hbirdv2/Common/Source/Drivers/hbirdv2_uart.c:15
    uart->LCR = 0x03;
8000076c:	0117a623          	sw	a7,12(a5)
C:\Users\zzh\NucleiStudio_workspace\nice_ddr200\Debug/../hbird_sdk/SoC/hbirdv2/Common/Source/Drivers/hbirdv2_uart.c:17
    return 0;
80000770:	8082                	ret
80000772:	0001                	nop
C:\Users\zzh\NucleiStudio_workspace\nice_ddr200\Debug/../hbird_sdk/SoC/hbirdv2/Common/Source/Drivers/hbirdv2_uart.c:7
        return -1;
80000774:	557d                	li	a0,-1
C:\Users\zzh\NucleiStudio_workspace\nice_ddr200\Debug/../hbird_sdk/SoC/hbirdv2/Common/Source/Drivers/hbirdv2_uart.c:18
}
80000776:	8082                	ret
80000778:	0000                	unimp
	...

8000077c <uart_write>:
uart_write():
C:\Users\zzh\NucleiStudio_workspace\nice_ddr200\Debug/../hbird_sdk/SoC/hbirdv2/Common/Source/Drivers/hbirdv2_uart.c:67

    return 0;
}

int32_t uart_write(UART_TypeDef *uart, uint8_t val)
{
8000077c:	87aa                	mv	a5,a0
C:\Users\zzh\NucleiStudio_workspace\nice_ddr200\Debug/../hbird_sdk/SoC/hbirdv2/Common/Source/Drivers/hbirdv2_uart.c:68
    if (__RARELY(uart == NULL)) {
8000077e:	cd39                	beqz	a0,800007dc <uart_write+0x60>
C:\Users\zzh\NucleiStudio_workspace\nice_ddr200\Debug/../hbird_sdk/SoC/hbirdv2/Common/Source/Drivers/hbirdv2_uart.c:73 (discriminator 1)
        return -1;
    }
#ifndef SIMULATION_SPIKE
#ifndef SIMULATION_XLSPIKE
    while ((uart->LSR & 0x20) == 0);
80000780:	4bd8                	lw	a4,20(a5)
80000782:	02077293          	andi	t0,a4,32
80000786:	04029863          	bnez	t0,800007d6 <uart_write+0x5a>
C:\Users\zzh\NucleiStudio_workspace\nice_ddr200\Debug/../hbird_sdk/SoC/hbirdv2/Common/Source/Drivers/hbirdv2_uart.c:73
8000078a:	0147a303          	lw	t1,20(a5)
8000078e:	02037393          	andi	t2,t1,32
80000792:	04039263          	bnez	t2,800007d6 <uart_write+0x5a>
80000796:	4bc8                	lw	a0,20(a5)
80000798:	02057613          	andi	a2,a0,32
8000079c:	ee0d                	bnez	a2,800007d6 <uart_write+0x5a>
8000079e:	4bd4                	lw	a3,20(a5)
800007a0:	0206f813          	andi	a6,a3,32
800007a4:	02081963          	bnez	a6,800007d6 <uart_write+0x5a>
800007a8:	0147a883          	lw	a7,20(a5)
800007ac:	0208fe13          	andi	t3,a7,32
800007b0:	020e1363          	bnez	t3,800007d6 <uart_write+0x5a>
800007b4:	0147ae83          	lw	t4,20(a5)
800007b8:	020eff13          	andi	t5,t4,32
800007bc:	000f1d63          	bnez	t5,800007d6 <uart_write+0x5a>
800007c0:	0147af83          	lw	t6,20(a5)
800007c4:	020ff713          	andi	a4,t6,32
800007c8:	e719                	bnez	a4,800007d6 <uart_write+0x5a>
800007ca:	0147a283          	lw	t0,20(a5)
800007ce:	0202f313          	andi	t1,t0,32
800007d2:	fa0307e3          	beqz	t1,80000780 <uart_write+0x4>
C:\Users\zzh\NucleiStudio_workspace\nice_ddr200\Debug/../hbird_sdk/SoC/hbirdv2/Common/Source/Drivers/hbirdv2_uart.c:80
    uart->THR = val;
#else
    extern void htif_putc(char ch);
    htif_putc(val);
#endif
    return 0;
800007d6:	4501                	li	a0,0
C:\Users\zzh\NucleiStudio_workspace\nice_ddr200\Debug/../hbird_sdk/SoC/hbirdv2/Common/Source/Drivers/hbirdv2_uart.c:75
    uart->THR = val;
800007d8:	c38c                	sw	a1,0(a5)
C:\Users\zzh\NucleiStudio_workspace\nice_ddr200\Debug/../hbird_sdk/SoC/hbirdv2/Common/Source/Drivers/hbirdv2_uart.c:80
    return 0;
800007da:	8082                	ret
C:\Users\zzh\NucleiStudio_workspace\nice_ddr200\Debug/../hbird_sdk/SoC/hbirdv2/Common/Source/Drivers/hbirdv2_uart.c:69
        return -1;
800007dc:	557d                	li	a0,-1
C:\Users\zzh\NucleiStudio_workspace\nice_ddr200\Debug/../hbird_sdk/SoC/hbirdv2/Common/Source/Drivers/hbirdv2_uart.c:81
}
800007de:	8082                	ret

800007e0 <uart_read>:
uart_read():
C:\Users\zzh\NucleiStudio_workspace\nice_ddr200\Debug/../hbird_sdk/SoC/hbirdv2/Common/Source/Drivers/hbirdv2_uart.c:86

uint8_t uart_read(UART_TypeDef *uart)
{
    uint32_t reg;
    if (__RARELY(uart == NULL)) {
800007e0:	c125                	beqz	a0,80000840 <uart_read+0x60>
C:\Users\zzh\NucleiStudio_workspace\nice_ddr200\Debug/../hbird_sdk/SoC/hbirdv2/Common/Source/Drivers/hbirdv2_uart.c:90 (discriminator 1)
        return -1;
    }
    
    while ((uart->LSR & 0x1) == 0);
800007e2:	495c                	lw	a5,20(a0)
800007e4:	0017f293          	andi	t0,a5,1
800007e8:	04029763          	bnez	t0,80000836 <uart_read+0x56>
C:\Users\zzh\NucleiStudio_workspace\nice_ddr200\Debug/../hbird_sdk/SoC/hbirdv2/Common/Source/Drivers/hbirdv2_uart.c:90
800007ec:	01452303          	lw	t1,20(a0)
800007f0:	00137393          	andi	t2,t1,1
800007f4:	04039163          	bnez	t2,80000836 <uart_read+0x56>
800007f8:	494c                	lw	a1,20(a0)
800007fa:	0015f613          	andi	a2,a1,1
800007fe:	ee05                	bnez	a2,80000836 <uart_read+0x56>
80000800:	4954                	lw	a3,20(a0)
80000802:	0016f713          	andi	a4,a3,1
80000806:	eb05                	bnez	a4,80000836 <uart_read+0x56>
80000808:	01452803          	lw	a6,20(a0)
8000080c:	00187893          	andi	a7,a6,1
80000810:	02089363          	bnez	a7,80000836 <uart_read+0x56>
80000814:	01452e03          	lw	t3,20(a0)
80000818:	001e7e93          	andi	t4,t3,1
8000081c:	000e9d63          	bnez	t4,80000836 <uart_read+0x56>
80000820:	01452f03          	lw	t5,20(a0)
80000824:	001f7f93          	andi	t6,t5,1
80000828:	000f9763          	bnez	t6,80000836 <uart_read+0x56>
8000082c:	495c                	lw	a5,20(a0)
8000082e:	0017f293          	andi	t0,a5,1
80000832:	fa0288e3          	beqz	t0,800007e2 <uart_read+0x2>
C:\Users\zzh\NucleiStudio_workspace\nice_ddr200\Debug/../hbird_sdk/SoC/hbirdv2/Common/Source/Drivers/hbirdv2_uart.c:91
    reg = uart->RBR;
80000836:	4108                	lw	a0,0(a0)
C:\Users\zzh\NucleiStudio_workspace\nice_ddr200\Debug/../hbird_sdk/SoC/hbirdv2/Common/Source/Drivers/hbirdv2_uart.c:93
    
    return (uint8_t)(reg & 0xFF);
80000838:	0ff57513          	zext.b	a0,a0
8000083c:	8082                	ret
8000083e:	0001                	nop
C:\Users\zzh\NucleiStudio_workspace\nice_ddr200\Debug/../hbird_sdk/SoC/hbirdv2/Common/Source/Drivers/hbirdv2_uart.c:87
        return -1;
80000840:	0ff00513          	li	a0,255
C:\Users\zzh\NucleiStudio_workspace\nice_ddr200\Debug/../hbird_sdk/SoC/hbirdv2/Common/Source/Drivers/hbirdv2_uart.c:94
}
80000844:	8082                	ret
	...

80000848 <get_cpu_freq>:
SysTimer_GetLoadValue():
C:\Users\zzh\NucleiStudio_workspace\nice_ddr200\hbird_sdk\NMSIS\Core\Include/core_feature_timer.h:106
 * - Load value is 64bits wide.
 * - \ref SysTimer_SetLoadValue
 */
__STATIC_FORCEINLINE uint64_t SysTimer_GetLoadValue(void)
{
    return SysTimer->MTIME;
80000848:	0200c7b7          	lui	a5,0x200c
8000084c:	ff87a703          	lw	a4,-8(a5) # 200bff8 <__stack_size+0x200b7f8>
80000850:	ffc7a783          	lw	a5,-4(a5)
get_cpu_freq():
C:\Users\zzh\NucleiStudio_workspace\nice_ddr200\Debug/../hbird_sdk/SoC/hbirdv2/Common/Source/hbirdv2_common.c:31
    return (delta_mcycle / delta_mtime) * mtime_freq
           + ((delta_mcycle % delta_mtime) * mtime_freq) / delta_mtime;
}

uint32_t get_cpu_freq(void)
{
80000854:	1141                	addi	sp,sp,-16
80000856:	c606                	sw	ra,12(sp)
80000858:	c422                	sw	s0,8(sp)
8000085a:	c226                	sw	s1,4(sp)
SysTimer_GetLoadValue():
C:\Users\zzh\NucleiStudio_workspace\nice_ddr200\hbird_sdk\NMSIS\Core\Include/core_feature_timer.h:106
8000085c:	0200c637          	lui	a2,0x200c
80000860:	ff862803          	lw	a6,-8(a2) # 200bff8 <__stack_size+0x200b7f8>
80000864:	ffc62883          	lw	a7,-4(a2)
measure_cpu_freq():
C:\Users\zzh\NucleiStudio_workspace\nice_ddr200\Debug/../hbird_sdk/SoC/hbirdv2/Common/Source/hbirdv2_common.c:18
        start_mcycle = __RV_CSR_READ(CSR_MCYCLE);
80000868:	b00026f3          	csrr	a3,mcycle
C:\Users\zzh\NucleiStudio_workspace\nice_ddr200\Debug/../hbird_sdk/SoC/hbirdv2/Common/Source/hbirdv2_common.c:19
    } while (start_mtime == tmp);
8000086c:	07071a63          	bne	a4,a6,800008e0 <get_cpu_freq+0x98>
SysTimer_GetLoadValue():
C:\Users\zzh\NucleiStudio_workspace\nice_ddr200\hbird_sdk\NMSIS\Core\Include/core_feature_timer.h:106
80000870:	ff862803          	lw	a6,-8(a2)
80000874:	ffc62883          	lw	a7,-4(a2)
measure_cpu_freq():
C:\Users\zzh\NucleiStudio_workspace\nice_ddr200\Debug/../hbird_sdk/SoC/hbirdv2/Common/Source/hbirdv2_common.c:18
        start_mcycle = __RV_CSR_READ(CSR_MCYCLE);
80000878:	b00026f3          	csrr	a3,mcycle
C:\Users\zzh\NucleiStudio_workspace\nice_ddr200\Debug/../hbird_sdk/SoC/hbirdv2/Common/Source/hbirdv2_common.c:19
    } while (start_mtime == tmp);
8000087c:	07071263          	bne	a4,a6,800008e0 <get_cpu_freq+0x98>
SysTimer_GetLoadValue():
C:\Users\zzh\NucleiStudio_workspace\nice_ddr200\hbird_sdk\NMSIS\Core\Include/core_feature_timer.h:106
80000880:	ff862803          	lw	a6,-8(a2)
80000884:	ffc62883          	lw	a7,-4(a2)
measure_cpu_freq():
C:\Users\zzh\NucleiStudio_workspace\nice_ddr200\Debug/../hbird_sdk/SoC/hbirdv2/Common/Source/hbirdv2_common.c:18
        start_mcycle = __RV_CSR_READ(CSR_MCYCLE);
80000888:	b00026f3          	csrr	a3,mcycle
C:\Users\zzh\NucleiStudio_workspace\nice_ddr200\Debug/../hbird_sdk/SoC/hbirdv2/Common/Source/hbirdv2_common.c:19
    } while (start_mtime == tmp);
8000088c:	05071a63          	bne	a4,a6,800008e0 <get_cpu_freq+0x98>
SysTimer_GetLoadValue():
C:\Users\zzh\NucleiStudio_workspace\nice_ddr200\hbird_sdk\NMSIS\Core\Include/core_feature_timer.h:106
80000890:	ff862803          	lw	a6,-8(a2)
80000894:	ffc62883          	lw	a7,-4(a2)
measure_cpu_freq():
C:\Users\zzh\NucleiStudio_workspace\nice_ddr200\Debug/../hbird_sdk/SoC/hbirdv2/Common/Source/hbirdv2_common.c:18
        start_mcycle = __RV_CSR_READ(CSR_MCYCLE);
80000898:	b00026f3          	csrr	a3,mcycle
C:\Users\zzh\NucleiStudio_workspace\nice_ddr200\Debug/../hbird_sdk/SoC/hbirdv2/Common/Source/hbirdv2_common.c:19
    } while (start_mtime == tmp);
8000089c:	05071263          	bne	a4,a6,800008e0 <get_cpu_freq+0x98>
SysTimer_GetLoadValue():
C:\Users\zzh\NucleiStudio_workspace\nice_ddr200\hbird_sdk\NMSIS\Core\Include/core_feature_timer.h:106
800008a0:	ff862803          	lw	a6,-8(a2)
800008a4:	ffc62883          	lw	a7,-4(a2)
measure_cpu_freq():
C:\Users\zzh\NucleiStudio_workspace\nice_ddr200\Debug/../hbird_sdk/SoC/hbirdv2/Common/Source/hbirdv2_common.c:18
        start_mcycle = __RV_CSR_READ(CSR_MCYCLE);
800008a8:	b00026f3          	csrr	a3,mcycle
C:\Users\zzh\NucleiStudio_workspace\nice_ddr200\Debug/../hbird_sdk/SoC/hbirdv2/Common/Source/hbirdv2_common.c:19
    } while (start_mtime == tmp);
800008ac:	03071a63          	bne	a4,a6,800008e0 <get_cpu_freq+0x98>
SysTimer_GetLoadValue():
C:\Users\zzh\NucleiStudio_workspace\nice_ddr200\hbird_sdk\NMSIS\Core\Include/core_feature_timer.h:106
800008b0:	ff862803          	lw	a6,-8(a2)
800008b4:	ffc62883          	lw	a7,-4(a2)
measure_cpu_freq():
C:\Users\zzh\NucleiStudio_workspace\nice_ddr200\Debug/../hbird_sdk/SoC/hbirdv2/Common/Source/hbirdv2_common.c:18
        start_mcycle = __RV_CSR_READ(CSR_MCYCLE);
800008b8:	b00026f3          	csrr	a3,mcycle
C:\Users\zzh\NucleiStudio_workspace\nice_ddr200\Debug/../hbird_sdk/SoC/hbirdv2/Common/Source/hbirdv2_common.c:19
    } while (start_mtime == tmp);
800008bc:	03071263          	bne	a4,a6,800008e0 <get_cpu_freq+0x98>
SysTimer_GetLoadValue():
C:\Users\zzh\NucleiStudio_workspace\nice_ddr200\hbird_sdk\NMSIS\Core\Include/core_feature_timer.h:106
800008c0:	ff862803          	lw	a6,-8(a2)
800008c4:	ffc62883          	lw	a7,-4(a2)
measure_cpu_freq():
C:\Users\zzh\NucleiStudio_workspace\nice_ddr200\Debug/../hbird_sdk/SoC/hbirdv2/Common/Source/hbirdv2_common.c:18
        start_mcycle = __RV_CSR_READ(CSR_MCYCLE);
800008c8:	b00026f3          	csrr	a3,mcycle
C:\Users\zzh\NucleiStudio_workspace\nice_ddr200\Debug/../hbird_sdk/SoC/hbirdv2/Common/Source/hbirdv2_common.c:19
    } while (start_mtime == tmp);
800008cc:	01071a63          	bne	a4,a6,800008e0 <get_cpu_freq+0x98>
SysTimer_GetLoadValue():
C:\Users\zzh\NucleiStudio_workspace\nice_ddr200\hbird_sdk\NMSIS\Core\Include/core_feature_timer.h:106
800008d0:	ff862803          	lw	a6,-8(a2)
800008d4:	ffc62883          	lw	a7,-4(a2)
measure_cpu_freq():
C:\Users\zzh\NucleiStudio_workspace\nice_ddr200\Debug/../hbird_sdk/SoC/hbirdv2/Common/Source/hbirdv2_common.c:18
        start_mcycle = __RV_CSR_READ(CSR_MCYCLE);
800008d8:	b00026f3          	csrr	a3,mcycle
C:\Users\zzh\NucleiStudio_workspace\nice_ddr200\Debug/../hbird_sdk/SoC/hbirdv2/Common/Source/hbirdv2_common.c:19
    } while (start_mtime == tmp);
800008dc:	f90702e3          	beq	a4,a6,80000860 <get_cpu_freq+0x18>
SysTimer_GetLoadValue():
C:\Users\zzh\NucleiStudio_workspace\nice_ddr200\hbird_sdk\NMSIS\Core\Include/core_feature_timer.h:106
800008e0:	0200c0b7          	lui	ra,0x200c
800008e4:	ff80a283          	lw	t0,-8(ra) # 200bff8 <__stack_size+0x200b7f8>
800008e8:	ffc0a683          	lw	a3,-4(ra)
measure_cpu_freq():
C:\Users\zzh\NucleiStudio_workspace\nice_ddr200\Debug/../hbird_sdk/SoC/hbirdv2/Common/Source/hbirdv2_common.c:23
        delta_mcycle = __RV_CSR_READ(CSR_MCYCLE) - start_mcycle;
800008ec:	b0002773          	csrr	a4,mcycle
C:\Users\zzh\NucleiStudio_workspace\nice_ddr200\Debug/../hbird_sdk/SoC/hbirdv2/Common/Source/hbirdv2_common.c:24
    } while (delta_mtime < n);
800008f0:	06581a63          	bne	a6,t0,80000964 <get_cpu_freq+0x11c>
SysTimer_GetLoadValue():
C:\Users\zzh\NucleiStudio_workspace\nice_ddr200\hbird_sdk\NMSIS\Core\Include/core_feature_timer.h:106
800008f4:	ff80a503          	lw	a0,-8(ra)
800008f8:	ffc0a583          	lw	a1,-4(ra)
measure_cpu_freq():
C:\Users\zzh\NucleiStudio_workspace\nice_ddr200\Debug/../hbird_sdk/SoC/hbirdv2/Common/Source/hbirdv2_common.c:23
        delta_mcycle = __RV_CSR_READ(CSR_MCYCLE) - start_mcycle;
800008fc:	b0002773          	csrr	a4,mcycle
C:\Users\zzh\NucleiStudio_workspace\nice_ddr200\Debug/../hbird_sdk/SoC/hbirdv2/Common/Source/hbirdv2_common.c:24
    } while (delta_mtime < n);
80000900:	06a81263          	bne	a6,a0,80000964 <get_cpu_freq+0x11c>
SysTimer_GetLoadValue():
C:\Users\zzh\NucleiStudio_workspace\nice_ddr200\hbird_sdk\NMSIS\Core\Include/core_feature_timer.h:106
80000904:	ff80a303          	lw	t1,-8(ra)
80000908:	ffc0a583          	lw	a1,-4(ra)
measure_cpu_freq():
C:\Users\zzh\NucleiStudio_workspace\nice_ddr200\Debug/../hbird_sdk/SoC/hbirdv2/Common/Source/hbirdv2_common.c:23
        delta_mcycle = __RV_CSR_READ(CSR_MCYCLE) - start_mcycle;
8000090c:	b0002773          	csrr	a4,mcycle
C:\Users\zzh\NucleiStudio_workspace\nice_ddr200\Debug/../hbird_sdk/SoC/hbirdv2/Common/Source/hbirdv2_common.c:24
    } while (delta_mtime < n);
80000910:	04681a63          	bne	a6,t1,80000964 <get_cpu_freq+0x11c>
SysTimer_GetLoadValue():
C:\Users\zzh\NucleiStudio_workspace\nice_ddr200\hbird_sdk\NMSIS\Core\Include/core_feature_timer.h:106
80000914:	ff80a383          	lw	t2,-8(ra)
80000918:	ffc0a583          	lw	a1,-4(ra)
measure_cpu_freq():
C:\Users\zzh\NucleiStudio_workspace\nice_ddr200\Debug/../hbird_sdk/SoC/hbirdv2/Common/Source/hbirdv2_common.c:23
        delta_mcycle = __RV_CSR_READ(CSR_MCYCLE) - start_mcycle;
8000091c:	b0002773          	csrr	a4,mcycle
C:\Users\zzh\NucleiStudio_workspace\nice_ddr200\Debug/../hbird_sdk/SoC/hbirdv2/Common/Source/hbirdv2_common.c:24
    } while (delta_mtime < n);
80000920:	04781263          	bne	a6,t2,80000964 <get_cpu_freq+0x11c>
SysTimer_GetLoadValue():
C:\Users\zzh\NucleiStudio_workspace\nice_ddr200\hbird_sdk\NMSIS\Core\Include/core_feature_timer.h:106
80000924:	ff80a403          	lw	s0,-8(ra)
80000928:	ffc0a583          	lw	a1,-4(ra)
measure_cpu_freq():
C:\Users\zzh\NucleiStudio_workspace\nice_ddr200\Debug/../hbird_sdk/SoC/hbirdv2/Common/Source/hbirdv2_common.c:23
        delta_mcycle = __RV_CSR_READ(CSR_MCYCLE) - start_mcycle;
8000092c:	b0002773          	csrr	a4,mcycle
C:\Users\zzh\NucleiStudio_workspace\nice_ddr200\Debug/../hbird_sdk/SoC/hbirdv2/Common/Source/hbirdv2_common.c:24
    } while (delta_mtime < n);
80000930:	02881a63          	bne	a6,s0,80000964 <get_cpu_freq+0x11c>
SysTimer_GetLoadValue():
C:\Users\zzh\NucleiStudio_workspace\nice_ddr200\hbird_sdk\NMSIS\Core\Include/core_feature_timer.h:106
80000934:	ff80a483          	lw	s1,-8(ra)
80000938:	ffc0a583          	lw	a1,-4(ra)
measure_cpu_freq():
C:\Users\zzh\NucleiStudio_workspace\nice_ddr200\Debug/../hbird_sdk/SoC/hbirdv2/Common/Source/hbirdv2_common.c:23
        delta_mcycle = __RV_CSR_READ(CSR_MCYCLE) - start_mcycle;
8000093c:	b0002773          	csrr	a4,mcycle
C:\Users\zzh\NucleiStudio_workspace\nice_ddr200\Debug/../hbird_sdk/SoC/hbirdv2/Common/Source/hbirdv2_common.c:24
    } while (delta_mtime < n);
80000940:	02981263          	bne	a6,s1,80000964 <get_cpu_freq+0x11c>
SysTimer_GetLoadValue():
C:\Users\zzh\NucleiStudio_workspace\nice_ddr200\hbird_sdk\NMSIS\Core\Include/core_feature_timer.h:106
80000944:	ff80a683          	lw	a3,-8(ra)
80000948:	ffc0a583          	lw	a1,-4(ra)
measure_cpu_freq():
C:\Users\zzh\NucleiStudio_workspace\nice_ddr200\Debug/../hbird_sdk/SoC/hbirdv2/Common/Source/hbirdv2_common.c:23
        delta_mcycle = __RV_CSR_READ(CSR_MCYCLE) - start_mcycle;
8000094c:	b0002773          	csrr	a4,mcycle
C:\Users\zzh\NucleiStudio_workspace\nice_ddr200\Debug/../hbird_sdk/SoC/hbirdv2/Common/Source/hbirdv2_common.c:24
    } while (delta_mtime < n);
80000950:	00d81a63          	bne	a6,a3,80000964 <get_cpu_freq+0x11c>
SysTimer_GetLoadValue():
C:\Users\zzh\NucleiStudio_workspace\nice_ddr200\hbird_sdk\NMSIS\Core\Include/core_feature_timer.h:106
80000954:	ff80a883          	lw	a7,-8(ra)
80000958:	ffc0a583          	lw	a1,-4(ra)
measure_cpu_freq():
C:\Users\zzh\NucleiStudio_workspace\nice_ddr200\Debug/../hbird_sdk/SoC/hbirdv2/Common/Source/hbirdv2_common.c:23
        delta_mcycle = __RV_CSR_READ(CSR_MCYCLE) - start_mcycle;
8000095c:	b0002773          	csrr	a4,mcycle
C:\Users\zzh\NucleiStudio_workspace\nice_ddr200\Debug/../hbird_sdk/SoC/hbirdv2/Common/Source/hbirdv2_common.c:24
    } while (delta_mtime < n);
80000960:	f91802e3          	beq	a6,a7,800008e4 <get_cpu_freq+0x9c>
SysTimer_GetLoadValue():
C:\Users\zzh\NucleiStudio_workspace\nice_ddr200\hbird_sdk\NMSIS\Core\Include/core_feature_timer.h:106
80000964:	ff80a683          	lw	a3,-8(ra)
80000968:	ffc0a783          	lw	a5,-4(ra)
8000096c:	0200c5b7          	lui	a1,0x200c
measure_cpu_freq():
C:\Users\zzh\NucleiStudio_workspace\nice_ddr200\Debug/../hbird_sdk/SoC/hbirdv2/Common/Source/hbirdv2_common.c:15
    uint32_t tmp = (uint32_t)SysTimer_GetLoadValue();
80000970:	8e36                	mv	t3,a3
SysTimer_GetLoadValue():
C:\Users\zzh\NucleiStudio_workspace\nice_ddr200\hbird_sdk\NMSIS\Core\Include/core_feature_timer.h:106
80000972:	ff85ae83          	lw	t4,-8(a1) # 200bff8 <__stack_size+0x200b7f8>
80000976:	ffc5a783          	lw	a5,-4(a1)
measure_cpu_freq():
C:\Users\zzh\NucleiStudio_workspace\nice_ddr200\Debug/../hbird_sdk/SoC/hbirdv2/Common/Source/hbirdv2_common.c:18
        start_mcycle = __RV_CSR_READ(CSR_MCYCLE);
8000097a:	b0002f73          	csrr	t5,mcycle
C:\Users\zzh\NucleiStudio_workspace\nice_ddr200\Debug/../hbird_sdk/SoC/hbirdv2/Common/Source/hbirdv2_common.c:19
    } while (start_mtime == tmp);
8000097e:	07de1b63          	bne	t3,t4,800009f4 <get_cpu_freq+0x1ac>
SysTimer_GetLoadValue():
C:\Users\zzh\NucleiStudio_workspace\nice_ddr200\hbird_sdk\NMSIS\Core\Include/core_feature_timer.h:106
80000982:	ff85ae83          	lw	t4,-8(a1)
80000986:	ffc5a783          	lw	a5,-4(a1)
measure_cpu_freq():
C:\Users\zzh\NucleiStudio_workspace\nice_ddr200\Debug/../hbird_sdk/SoC/hbirdv2/Common/Source/hbirdv2_common.c:18
        start_mcycle = __RV_CSR_READ(CSR_MCYCLE);
8000098a:	b0002f73          	csrr	t5,mcycle
C:\Users\zzh\NucleiStudio_workspace\nice_ddr200\Debug/../hbird_sdk/SoC/hbirdv2/Common/Source/hbirdv2_common.c:19
    } while (start_mtime == tmp);
8000098e:	07de1363          	bne	t3,t4,800009f4 <get_cpu_freq+0x1ac>
SysTimer_GetLoadValue():
C:\Users\zzh\NucleiStudio_workspace\nice_ddr200\hbird_sdk\NMSIS\Core\Include/core_feature_timer.h:106
80000992:	ff85ae83          	lw	t4,-8(a1)
80000996:	ffc5a783          	lw	a5,-4(a1)
measure_cpu_freq():
C:\Users\zzh\NucleiStudio_workspace\nice_ddr200\Debug/../hbird_sdk/SoC/hbirdv2/Common/Source/hbirdv2_common.c:18
        start_mcycle = __RV_CSR_READ(CSR_MCYCLE);
8000099a:	b0002f73          	csrr	t5,mcycle
C:\Users\zzh\NucleiStudio_workspace\nice_ddr200\Debug/../hbird_sdk/SoC/hbirdv2/Common/Source/hbirdv2_common.c:19
    } while (start_mtime == tmp);
8000099e:	05de1b63          	bne	t3,t4,800009f4 <get_cpu_freq+0x1ac>
SysTimer_GetLoadValue():
C:\Users\zzh\NucleiStudio_workspace\nice_ddr200\hbird_sdk\NMSIS\Core\Include/core_feature_timer.h:106
800009a2:	ff85ae83          	lw	t4,-8(a1)
800009a6:	ffc5a783          	lw	a5,-4(a1)
measure_cpu_freq():
C:\Users\zzh\NucleiStudio_workspace\nice_ddr200\Debug/../hbird_sdk/SoC/hbirdv2/Common/Source/hbirdv2_common.c:18
        start_mcycle = __RV_CSR_READ(CSR_MCYCLE);
800009aa:	b0002f73          	csrr	t5,mcycle
C:\Users\zzh\NucleiStudio_workspace\nice_ddr200\Debug/../hbird_sdk/SoC/hbirdv2/Common/Source/hbirdv2_common.c:19
    } while (start_mtime == tmp);
800009ae:	05de1363          	bne	t3,t4,800009f4 <get_cpu_freq+0x1ac>
SysTimer_GetLoadValue():
C:\Users\zzh\NucleiStudio_workspace\nice_ddr200\hbird_sdk\NMSIS\Core\Include/core_feature_timer.h:106
800009b2:	ff85ae83          	lw	t4,-8(a1)
800009b6:	ffc5a783          	lw	a5,-4(a1)
measure_cpu_freq():
C:\Users\zzh\NucleiStudio_workspace\nice_ddr200\Debug/../hbird_sdk/SoC/hbirdv2/Common/Source/hbirdv2_common.c:18
        start_mcycle = __RV_CSR_READ(CSR_MCYCLE);
800009ba:	b0002f73          	csrr	t5,mcycle
C:\Users\zzh\NucleiStudio_workspace\nice_ddr200\Debug/../hbird_sdk/SoC/hbirdv2/Common/Source/hbirdv2_common.c:19
    } while (start_mtime == tmp);
800009be:	03de1b63          	bne	t3,t4,800009f4 <get_cpu_freq+0x1ac>
SysTimer_GetLoadValue():
C:\Users\zzh\NucleiStudio_workspace\nice_ddr200\hbird_sdk\NMSIS\Core\Include/core_feature_timer.h:106
800009c2:	ff85ae83          	lw	t4,-8(a1)
800009c6:	ffc5a783          	lw	a5,-4(a1)
measure_cpu_freq():
C:\Users\zzh\NucleiStudio_workspace\nice_ddr200\Debug/../hbird_sdk/SoC/hbirdv2/Common/Source/hbirdv2_common.c:18
        start_mcycle = __RV_CSR_READ(CSR_MCYCLE);
800009ca:	b0002f73          	csrr	t5,mcycle
C:\Users\zzh\NucleiStudio_workspace\nice_ddr200\Debug/../hbird_sdk/SoC/hbirdv2/Common/Source/hbirdv2_common.c:19
    } while (start_mtime == tmp);
800009ce:	03de1363          	bne	t3,t4,800009f4 <get_cpu_freq+0x1ac>
SysTimer_GetLoadValue():
C:\Users\zzh\NucleiStudio_workspace\nice_ddr200\hbird_sdk\NMSIS\Core\Include/core_feature_timer.h:106
800009d2:	ff85ae83          	lw	t4,-8(a1)
800009d6:	ffc5a783          	lw	a5,-4(a1)
measure_cpu_freq():
C:\Users\zzh\NucleiStudio_workspace\nice_ddr200\Debug/../hbird_sdk/SoC/hbirdv2/Common/Source/hbirdv2_common.c:18
        start_mcycle = __RV_CSR_READ(CSR_MCYCLE);
800009da:	b0002f73          	csrr	t5,mcycle
C:\Users\zzh\NucleiStudio_workspace\nice_ddr200\Debug/../hbird_sdk/SoC/hbirdv2/Common/Source/hbirdv2_common.c:19
    } while (start_mtime == tmp);
800009de:	01de1b63          	bne	t3,t4,800009f4 <get_cpu_freq+0x1ac>
SysTimer_GetLoadValue():
C:\Users\zzh\NucleiStudio_workspace\nice_ddr200\hbird_sdk\NMSIS\Core\Include/core_feature_timer.h:106
800009e2:	ff85ae83          	lw	t4,-8(a1)
800009e6:	ffc5a783          	lw	a5,-4(a1)
measure_cpu_freq():
C:\Users\zzh\NucleiStudio_workspace\nice_ddr200\Debug/../hbird_sdk/SoC/hbirdv2/Common/Source/hbirdv2_common.c:18
        start_mcycle = __RV_CSR_READ(CSR_MCYCLE);
800009ea:	b0002f73          	csrr	t5,mcycle
C:\Users\zzh\NucleiStudio_workspace\nice_ddr200\Debug/../hbird_sdk/SoC/hbirdv2/Common/Source/hbirdv2_common.c:19
    } while (start_mtime == tmp);
800009ee:	f9de02e3          	beq	t3,t4,80000972 <get_cpu_freq+0x12a>
800009f2:	0001                	nop
SysTimer_GetLoadValue():
C:\Users\zzh\NucleiStudio_workspace\nice_ddr200\hbird_sdk\NMSIS\Core\Include/core_feature_timer.h:106
800009f4:	0200cfb7          	lui	t6,0x200c
measure_cpu_freq():
C:\Users\zzh\NucleiStudio_workspace\nice_ddr200\Debug/../hbird_sdk/SoC/hbirdv2/Common/Source/hbirdv2_common.c:24
    } while (delta_mtime < n);
800009f8:	06300713          	li	a4,99
SysTimer_GetLoadValue():
C:\Users\zzh\NucleiStudio_workspace\nice_ddr200\hbird_sdk\NMSIS\Core\Include/core_feature_timer.h:106
800009fc:	ff8fa783          	lw	a5,-8(t6) # 200bff8 <__stack_size+0x200b7f8>
80000a00:	ffcfa683          	lw	a3,-4(t6)
measure_cpu_freq():
C:\Users\zzh\NucleiStudio_workspace\nice_ddr200\Debug/../hbird_sdk/SoC/hbirdv2/Common/Source/hbirdv2_common.c:22
        delta_mtime = (uint32_t)SysTimer_GetLoadValue() - start_mtime;
80000a04:	41d78433          	sub	s0,a5,t4
C:\Users\zzh\NucleiStudio_workspace\nice_ddr200\Debug/../hbird_sdk/SoC/hbirdv2/Common/Source/hbirdv2_common.c:23
        delta_mcycle = __RV_CSR_READ(CSR_MCYCLE) - start_mcycle;
80000a08:	b00024f3          	csrr	s1,mcycle
C:\Users\zzh\NucleiStudio_workspace\nice_ddr200\Debug/../hbird_sdk/SoC/hbirdv2/Common/Source/hbirdv2_common.c:24
    } while (delta_mtime < n);
80000a0c:	08876863          	bltu	a4,s0,80000a9c <get_cpu_freq+0x254>
SysTimer_GetLoadValue():
C:\Users\zzh\NucleiStudio_workspace\nice_ddr200\hbird_sdk\NMSIS\Core\Include/core_feature_timer.h:106
80000a10:	ff8fa603          	lw	a2,-8(t6)
80000a14:	ffcfa683          	lw	a3,-4(t6)
measure_cpu_freq():
C:\Users\zzh\NucleiStudio_workspace\nice_ddr200\Debug/../hbird_sdk/SoC/hbirdv2/Common/Source/hbirdv2_common.c:22
        delta_mtime = (uint32_t)SysTimer_GetLoadValue() - start_mtime;
80000a18:	41d60433          	sub	s0,a2,t4
C:\Users\zzh\NucleiStudio_workspace\nice_ddr200\Debug/../hbird_sdk/SoC/hbirdv2/Common/Source/hbirdv2_common.c:23
        delta_mcycle = __RV_CSR_READ(CSR_MCYCLE) - start_mcycle;
80000a1c:	b00024f3          	csrr	s1,mcycle
C:\Users\zzh\NucleiStudio_workspace\nice_ddr200\Debug/../hbird_sdk/SoC/hbirdv2/Common/Source/hbirdv2_common.c:24
    } while (delta_mtime < n);
80000a20:	06876e63          	bltu	a4,s0,80000a9c <get_cpu_freq+0x254>
SysTimer_GetLoadValue():
C:\Users\zzh\NucleiStudio_workspace\nice_ddr200\hbird_sdk\NMSIS\Core\Include/core_feature_timer.h:106
80000a24:	ff8fa803          	lw	a6,-8(t6)
80000a28:	ffcfa683          	lw	a3,-4(t6)
measure_cpu_freq():
C:\Users\zzh\NucleiStudio_workspace\nice_ddr200\Debug/../hbird_sdk/SoC/hbirdv2/Common/Source/hbirdv2_common.c:22
        delta_mtime = (uint32_t)SysTimer_GetLoadValue() - start_mtime;
80000a2c:	41d80433          	sub	s0,a6,t4
C:\Users\zzh\NucleiStudio_workspace\nice_ddr200\Debug/../hbird_sdk/SoC/hbirdv2/Common/Source/hbirdv2_common.c:23
        delta_mcycle = __RV_CSR_READ(CSR_MCYCLE) - start_mcycle;
80000a30:	b00024f3          	csrr	s1,mcycle
C:\Users\zzh\NucleiStudio_workspace\nice_ddr200\Debug/../hbird_sdk/SoC/hbirdv2/Common/Source/hbirdv2_common.c:24
    } while (delta_mtime < n);
80000a34:	06876463          	bltu	a4,s0,80000a9c <get_cpu_freq+0x254>
SysTimer_GetLoadValue():
C:\Users\zzh\NucleiStudio_workspace\nice_ddr200\hbird_sdk\NMSIS\Core\Include/core_feature_timer.h:106
80000a38:	ff8fa083          	lw	ra,-8(t6)
80000a3c:	ffcfa683          	lw	a3,-4(t6)
measure_cpu_freq():
C:\Users\zzh\NucleiStudio_workspace\nice_ddr200\Debug/../hbird_sdk/SoC/hbirdv2/Common/Source/hbirdv2_common.c:22
        delta_mtime = (uint32_t)SysTimer_GetLoadValue() - start_mtime;
80000a40:	41d08433          	sub	s0,ra,t4
C:\Users\zzh\NucleiStudio_workspace\nice_ddr200\Debug/../hbird_sdk/SoC/hbirdv2/Common/Source/hbirdv2_common.c:23
        delta_mcycle = __RV_CSR_READ(CSR_MCYCLE) - start_mcycle;
80000a44:	b00024f3          	csrr	s1,mcycle
C:\Users\zzh\NucleiStudio_workspace\nice_ddr200\Debug/../hbird_sdk/SoC/hbirdv2/Common/Source/hbirdv2_common.c:24
    } while (delta_mtime < n);
80000a48:	04876a63          	bltu	a4,s0,80000a9c <get_cpu_freq+0x254>
SysTimer_GetLoadValue():
C:\Users\zzh\NucleiStudio_workspace\nice_ddr200\hbird_sdk\NMSIS\Core\Include/core_feature_timer.h:106
80000a4c:	ff8fa283          	lw	t0,-8(t6)
80000a50:	ffcfa683          	lw	a3,-4(t6)
measure_cpu_freq():
C:\Users\zzh\NucleiStudio_workspace\nice_ddr200\Debug/../hbird_sdk/SoC/hbirdv2/Common/Source/hbirdv2_common.c:22
        delta_mtime = (uint32_t)SysTimer_GetLoadValue() - start_mtime;
80000a54:	41d28433          	sub	s0,t0,t4
C:\Users\zzh\NucleiStudio_workspace\nice_ddr200\Debug/../hbird_sdk/SoC/hbirdv2/Common/Source/hbirdv2_common.c:23
        delta_mcycle = __RV_CSR_READ(CSR_MCYCLE) - start_mcycle;
80000a58:	b00024f3          	csrr	s1,mcycle
C:\Users\zzh\NucleiStudio_workspace\nice_ddr200\Debug/../hbird_sdk/SoC/hbirdv2/Common/Source/hbirdv2_common.c:24
    } while (delta_mtime < n);
80000a5c:	04876063          	bltu	a4,s0,80000a9c <get_cpu_freq+0x254>
SysTimer_GetLoadValue():
C:\Users\zzh\NucleiStudio_workspace\nice_ddr200\hbird_sdk\NMSIS\Core\Include/core_feature_timer.h:106
80000a60:	ff8fa503          	lw	a0,-8(t6)
80000a64:	ffcfa683          	lw	a3,-4(t6)
measure_cpu_freq():
C:\Users\zzh\NucleiStudio_workspace\nice_ddr200\Debug/../hbird_sdk/SoC/hbirdv2/Common/Source/hbirdv2_common.c:22
        delta_mtime = (uint32_t)SysTimer_GetLoadValue() - start_mtime;
80000a68:	41d50433          	sub	s0,a0,t4
C:\Users\zzh\NucleiStudio_workspace\nice_ddr200\Debug/../hbird_sdk/SoC/hbirdv2/Common/Source/hbirdv2_common.c:23
        delta_mcycle = __RV_CSR_READ(CSR_MCYCLE) - start_mcycle;
80000a6c:	b00024f3          	csrr	s1,mcycle
C:\Users\zzh\NucleiStudio_workspace\nice_ddr200\Debug/../hbird_sdk/SoC/hbirdv2/Common/Source/hbirdv2_common.c:24
    } while (delta_mtime < n);
80000a70:	02876663          	bltu	a4,s0,80000a9c <get_cpu_freq+0x254>
SysTimer_GetLoadValue():
C:\Users\zzh\NucleiStudio_workspace\nice_ddr200\hbird_sdk\NMSIS\Core\Include/core_feature_timer.h:106
80000a74:	ff8fa303          	lw	t1,-8(t6)
80000a78:	ffcfa683          	lw	a3,-4(t6)
measure_cpu_freq():
C:\Users\zzh\NucleiStudio_workspace\nice_ddr200\Debug/../hbird_sdk/SoC/hbirdv2/Common/Source/hbirdv2_common.c:22
        delta_mtime = (uint32_t)SysTimer_GetLoadValue() - start_mtime;
80000a7c:	41d30433          	sub	s0,t1,t4
C:\Users\zzh\NucleiStudio_workspace\nice_ddr200\Debug/../hbird_sdk/SoC/hbirdv2/Common/Source/hbirdv2_common.c:23
        delta_mcycle = __RV_CSR_READ(CSR_MCYCLE) - start_mcycle;
80000a80:	b00024f3          	csrr	s1,mcycle
C:\Users\zzh\NucleiStudio_workspace\nice_ddr200\Debug/../hbird_sdk/SoC/hbirdv2/Common/Source/hbirdv2_common.c:24
    } while (delta_mtime < n);
80000a84:	00876c63          	bltu	a4,s0,80000a9c <get_cpu_freq+0x254>
SysTimer_GetLoadValue():
C:\Users\zzh\NucleiStudio_workspace\nice_ddr200\hbird_sdk\NMSIS\Core\Include/core_feature_timer.h:106
80000a88:	ff8fa383          	lw	t2,-8(t6)
80000a8c:	ffcfa683          	lw	a3,-4(t6)
measure_cpu_freq():
C:\Users\zzh\NucleiStudio_workspace\nice_ddr200\Debug/../hbird_sdk/SoC/hbirdv2/Common/Source/hbirdv2_common.c:22
        delta_mtime = (uint32_t)SysTimer_GetLoadValue() - start_mtime;
80000a90:	41d38433          	sub	s0,t2,t4
C:\Users\zzh\NucleiStudio_workspace\nice_ddr200\Debug/../hbird_sdk/SoC/hbirdv2/Common/Source/hbirdv2_common.c:23
        delta_mcycle = __RV_CSR_READ(CSR_MCYCLE) - start_mcycle;
80000a94:	b00024f3          	csrr	s1,mcycle
C:\Users\zzh\NucleiStudio_workspace\nice_ddr200\Debug/../hbird_sdk/SoC/hbirdv2/Common/Source/hbirdv2_common.c:24
    } while (delta_mtime < n);
80000a98:	f68772e3          	bgeu	a4,s0,800009fc <get_cpu_freq+0x1b4>
C:\Users\zzh\NucleiStudio_workspace\nice_ddr200\Debug/../hbird_sdk/SoC/hbirdv2/Common/Source/hbirdv2_common.c:23
        delta_mcycle = __RV_CSR_READ(CSR_MCYCLE) - start_mcycle;
80000a9c:	41e484b3          	sub	s1,s1,t5
C:\Users\zzh\NucleiStudio_workspace\nice_ddr200\Debug/../hbird_sdk/SoC/hbirdv2/Common/Source/hbirdv2_common.c:27
           + ((delta_mcycle % delta_mtime) * mtime_freq) / delta_mtime;
80000aa0:	0284f8b3          	remu	a7,s1,s0
80000aa4:	8622                	mv	a2,s0
80000aa6:	4681                	li	a3,0
80000aa8:	00f89513          	slli	a0,a7,0xf
80000aac:	0118d593          	srli	a1,a7,0x11
80000ab0:	24c010ef          	jal	ra,80001cfc <__udivdi3>
C:\Users\zzh\NucleiStudio_workspace\nice_ddr200\Debug/../hbird_sdk/SoC/hbirdv2/Common/Source/hbirdv2_common.c:26
    return (delta_mcycle / delta_mtime) * mtime_freq
80000ab4:	0284d6b3          	divu	a3,s1,s0
get_cpu_freq():
C:\Users\zzh\NucleiStudio_workspace\nice_ddr200\Debug/../hbird_sdk/SoC/hbirdv2/Common/Source/hbirdv2_common.c:40
    measure_cpu_freq(1);
    // measure for real
    cpu_freq = measure_cpu_freq(100);

    return cpu_freq;
}
80000ab8:	40b2                	lw	ra,12(sp)
80000aba:	4422                	lw	s0,8(sp)
80000abc:	4492                	lw	s1,4(sp)
80000abe:	0141                	addi	sp,sp,16
measure_cpu_freq():
C:\Users\zzh\NucleiStudio_workspace\nice_ddr200\Debug/../hbird_sdk/SoC/hbirdv2/Common/Source/hbirdv2_common.c:27
           + ((delta_mcycle % delta_mtime) * mtime_freq) / delta_mtime;
80000ac0:	00f69593          	slli	a1,a3,0xf
get_cpu_freq():
C:\Users\zzh\NucleiStudio_workspace\nice_ddr200\Debug/../hbird_sdk/SoC/hbirdv2/Common/Source/hbirdv2_common.c:40
}
80000ac4:	952e                	add	a0,a0,a1
80000ac6:	8082                	ret
80000ac8:	0000                	unimp
	...

80000acc <system_default_exception_handler>:
system_default_exception_handler():
C:\Users\zzh\NucleiStudio_workspace\nice_ddr200\Debug/../hbird_sdk/SoC/hbirdv2/Common/Source/system_hbirdv2.c:168
 * \details
 * This function provided a default exception handling code for all exception ids.
 * By default, It will just print some information for debug, Vendor can customize it according to its requirements.
 */
static void system_default_exception_handler(unsigned long mcause, unsigned long sp)
{
80000acc:	1141                	addi	sp,sp,-16
80000ace:	c422                	sw	s0,8(sp)
80000ad0:	842a                	mv	s0,a0
C:\Users\zzh\NucleiStudio_workspace\nice_ddr200\Debug/../hbird_sdk/SoC/hbirdv2/Common/Source/system_hbirdv2.c:170
    /* TODO: Uncomment this if you have implement printf function */
    printf("Trap in Exception\r\n");
80000ad2:	00006517          	auipc	a0,0x6
80000ad6:	3ee50513          	addi	a0,a0,1006 # 80006ec0 <__clzsi2+0x42>
C:\Users\zzh\NucleiStudio_workspace\nice_ddr200\Debug/../hbird_sdk/SoC/hbirdv2/Common/Source/system_hbirdv2.c:168
{
80000ada:	c606                	sw	ra,12(sp)
C:\Users\zzh\NucleiStudio_workspace\nice_ddr200\Debug/../hbird_sdk/SoC/hbirdv2/Common/Source/system_hbirdv2.c:170
    printf("Trap in Exception\r\n");
80000adc:	146020ef          	jal	ra,80002c22 <puts>
C:\Users\zzh\NucleiStudio_workspace\nice_ddr200\Debug/../hbird_sdk/SoC/hbirdv2/Common/Source/system_hbirdv2.c:171
    printf("MCAUSE: 0x%lx\r\n", mcause);
80000ae0:	85a2                	mv	a1,s0
80000ae2:	00006517          	auipc	a0,0x6
80000ae6:	3f250513          	addi	a0,a0,1010 # 80006ed4 <__clzsi2+0x56>
80000aea:	7ed010ef          	jal	ra,80002ad6 <iprintf>
C:\Users\zzh\NucleiStudio_workspace\nice_ddr200\Debug/../hbird_sdk/SoC/hbirdv2/Common/Source/system_hbirdv2.c:172
    printf("MEPC  : 0x%lx\r\n", __RV_CSR_READ(CSR_MEPC));
80000aee:	341025f3          	csrr	a1,mepc
80000af2:	00006517          	auipc	a0,0x6
80000af6:	3f250513          	addi	a0,a0,1010 # 80006ee4 <__clzsi2+0x66>
80000afa:	7dd010ef          	jal	ra,80002ad6 <iprintf>
C:\Users\zzh\NucleiStudio_workspace\nice_ddr200\Debug/../hbird_sdk/SoC/hbirdv2/Common/Source/system_hbirdv2.c:173
    printf("MTVAL : 0x%lx\r\n", __RV_CSR_READ(CSR_MBADADDR));
80000afe:	343025f3          	csrr	a1,mtval
80000b02:	00006517          	auipc	a0,0x6
80000b06:	3f250513          	addi	a0,a0,1010 # 80006ef4 <__clzsi2+0x76>
80000b0a:	7cd010ef          	jal	ra,80002ad6 <iprintf>
80000b0e:	a001                	j	80000b0e <system_default_exception_handler+0x42>
80000b10:	0000                	unimp
	...

80000b14 <system_default_interrupt_handler>:
system_default_interrupt_handler():
C:\Users\zzh\NucleiStudio_workspace\nice_ddr200\Debug/../hbird_sdk/SoC/hbirdv2/Common/Source/system_hbirdv2.c:183
 * \brief      System Default Interrupt Handler
 * \details
 * This function provided a default interrupt handling code for all interrupt ids.
 */
static void system_default_interrupt_handler(unsigned long mcause, unsigned long sp)
{
80000b14:	1141                	addi	sp,sp,-16
80000b16:	c422                	sw	s0,8(sp)
80000b18:	842a                	mv	s0,a0
C:\Users\zzh\NucleiStudio_workspace\nice_ddr200\Debug/../hbird_sdk/SoC/hbirdv2/Common/Source/system_hbirdv2.c:185
    /* TODO: Uncomment this if you have implement printf function */
    printf("Trap in Interrupt\r\n");
80000b1a:	00006517          	auipc	a0,0x6
80000b1e:	3ea50513          	addi	a0,a0,1002 # 80006f04 <__clzsi2+0x86>
C:\Users\zzh\NucleiStudio_workspace\nice_ddr200\Debug/../hbird_sdk/SoC/hbirdv2/Common/Source/system_hbirdv2.c:183
{
80000b22:	c606                	sw	ra,12(sp)
C:\Users\zzh\NucleiStudio_workspace\nice_ddr200\Debug/../hbird_sdk/SoC/hbirdv2/Common/Source/system_hbirdv2.c:185
    printf("Trap in Interrupt\r\n");
80000b24:	0fe020ef          	jal	ra,80002c22 <puts>
C:\Users\zzh\NucleiStudio_workspace\nice_ddr200\Debug/../hbird_sdk/SoC/hbirdv2/Common/Source/system_hbirdv2.c:186
    printf("MCAUSE: 0x%lx\r\n", mcause);
80000b28:	85a2                	mv	a1,s0
80000b2a:	00006517          	auipc	a0,0x6
80000b2e:	3aa50513          	addi	a0,a0,938 # 80006ed4 <__clzsi2+0x56>
80000b32:	7a5010ef          	jal	ra,80002ad6 <iprintf>
C:\Users\zzh\NucleiStudio_workspace\nice_ddr200\Debug/../hbird_sdk/SoC/hbirdv2/Common/Source/system_hbirdv2.c:187
    printf("MEPC  : 0x%lx\r\n", __RV_CSR_READ(CSR_MEPC));
80000b36:	341025f3          	csrr	a1,mepc
80000b3a:	00006517          	auipc	a0,0x6
80000b3e:	3aa50513          	addi	a0,a0,938 # 80006ee4 <__clzsi2+0x66>
80000b42:	795010ef          	jal	ra,80002ad6 <iprintf>
C:\Users\zzh\NucleiStudio_workspace\nice_ddr200\Debug/../hbird_sdk/SoC/hbirdv2/Common/Source/system_hbirdv2.c:188
    printf("MTVAL : 0x%lx\r\n", __RV_CSR_READ(CSR_MBADADDR));
80000b46:	343025f3          	csrr	a1,mtval
C:\Users\zzh\NucleiStudio_workspace\nice_ddr200\Debug/../hbird_sdk/SoC/hbirdv2/Common/Source/system_hbirdv2.c:189
}
80000b4a:	4422                	lw	s0,8(sp)
80000b4c:	40b2                	lw	ra,12(sp)
C:\Users\zzh\NucleiStudio_workspace\nice_ddr200\Debug/../hbird_sdk/SoC/hbirdv2/Common/Source/system_hbirdv2.c:188
    printf("MTVAL : 0x%lx\r\n", __RV_CSR_READ(CSR_MBADADDR));
80000b4e:	00006517          	auipc	a0,0x6
80000b52:	3a650513          	addi	a0,a0,934 # 80006ef4 <__clzsi2+0x76>
C:\Users\zzh\NucleiStudio_workspace\nice_ddr200\Debug/../hbird_sdk/SoC/hbirdv2/Common/Source/system_hbirdv2.c:189
}
80000b56:	0141                	addi	sp,sp,16
C:\Users\zzh\NucleiStudio_workspace\nice_ddr200\Debug/../hbird_sdk/SoC/hbirdv2/Common/Source/system_hbirdv2.c:188
    printf("MTVAL : 0x%lx\r\n", __RV_CSR_READ(CSR_MBADADDR));
80000b58:	77f0106f          	j	80002ad6 <iprintf>
80000b5c:	0000                	unimp
	...

80000b60 <SystemInit>:
SystemInit():
C:\Users\zzh\NucleiStudio_workspace\nice_ddr200\Debug/../hbird_sdk/SoC/hbirdv2/Common/Source/system_hbirdv2.c:125
    SystemCoreClock = SYSTEM_CLOCK;
80000b60:	04c4b7b7          	lui	a5,0x4c4b
80000b64:	40078293          	addi	t0,a5,1024 # 4c4b400 <__stack_size+0x4c4ac00>
80000b68:	0ffff717          	auipc	a4,0xffff
80000b6c:	66572623          	sw	t0,1644(a4) # 900001d4 <SystemCoreClock>
C:\Users\zzh\NucleiStudio_workspace\nice_ddr200\Debug/../hbird_sdk/SoC/hbirdv2/Common/Source/system_hbirdv2.c:126
}
80000b70:	8082                	ret
	...

80000b74 <core_trap_handler>:
core_trap_handler():
C:\Users\zzh\NucleiStudio_workspace\nice_ddr200\Debug/../hbird_sdk/SoC/hbirdv2/Common/Source/system_hbirdv2.c:322
 * - If you want to register core exception handler, please use \ref Exception_Register_EXC
 * - If you want to register core interrupt handler, please use \ref Interrupt_Register_CoreIRQ
 * - If you want to register external interrupt handler, please use \ref Interrupt_Register_ExtIRQ
 */
uint32_t core_trap_handler(unsigned long mcause, unsigned long sp)
{
80000b74:	1141                	addi	sp,sp,-16
80000b76:	c606                	sw	ra,12(sp)
80000b78:	c422                	sw	s0,8(sp)
80000b7a:	87aa                	mv	a5,a0
C:\Users\zzh\NucleiStudio_workspace\nice_ddr200\Debug/../hbird_sdk/SoC/hbirdv2/Common/Source/system_hbirdv2.c:323
    if (mcause & MCAUSE_INTERRUPT) {
80000b7c:	02055863          	bgez	a0,80000bac <core_trap_handler+0x38>
C:\Users\zzh\NucleiStudio_workspace\nice_ddr200\Debug/../hbird_sdk/SoC/hbirdv2/Common/Source/system_hbirdv2.c:325
        INT_HANDLER int_handler = NULL;
        uint32_t irqn = (uint32_t)(mcause & 0X00000fff);
80000b80:	01451813          	slli	a6,a0,0x14
80000b84:	01485893          	srli	a7,a6,0x14
C:\Users\zzh\NucleiStudio_workspace\nice_ddr200\Debug/../hbird_sdk/SoC/hbirdv2/Common/Source/system_hbirdv2.c:326
        if (irqn == IRQ_M_EXT) {
80000b88:	4e2d                	li	t3,11
80000b8a:	07c88363          	beq	a7,t3,80000bf0 <core_trap_handler+0x7c>
C:\Users\zzh\NucleiStudio_workspace\nice_ddr200\Debug/../hbird_sdk/SoC/hbirdv2/Common/Source/system_hbirdv2.c:338
                }
                PLIC_CompleteInterrupt(irqn);
            }
#endif
        } else {
            int_handler = (INT_HANDLER)(SystemCoreInterruptHandlers[irqn]);
80000b8e:	00289e93          	slli	t4,a7,0x2
80000b92:	87418f13          	addi	t5,gp,-1932 # 90000244 <SystemCoreInterruptHandlers>
80000b96:	01df0fb3          	add	t6,t5,t4
80000b9a:	000fa783          	lw	a5,0(t6)
C:\Users\zzh\NucleiStudio_workspace\nice_ddr200\Debug/../hbird_sdk/SoC/hbirdv2/Common/Source/system_hbirdv2.c:339
            if (int_handler != NULL) {
80000b9e:	c391                	beqz	a5,80000ba2 <core_trap_handler+0x2e>
C:\Users\zzh\NucleiStudio_workspace\nice_ddr200\Debug/../hbird_sdk/SoC/hbirdv2/Common/Source/system_hbirdv2.c:340
                int_handler(mcause, sp);
80000ba0:	9782                	jalr	a5
C:\Users\zzh\NucleiStudio_workspace\nice_ddr200\Debug/../hbird_sdk/SoC/hbirdv2/Common/Source/system_hbirdv2.c:347
        }
        return 0;
    } else {
        return core_exception_handler(mcause, sp);
    }
}
80000ba2:	40b2                	lw	ra,12(sp)
80000ba4:	4422                	lw	s0,8(sp)
80000ba6:	4501                	li	a0,0
80000ba8:	0141                	addi	sp,sp,16
80000baa:	8082                	ret
core_exception_handler():
C:\Users\zzh\NucleiStudio_workspace\nice_ddr200\Debug/../hbird_sdk/SoC/hbirdv2/Common/Source/system_hbirdv2.c:362
 * - For the core_exception_handler template, we provided exception register function \ref Exception_Register_EXC
 *   which can help developer to register your exception handler for specific exception number.
 */
static uint32_t core_exception_handler(unsigned long mcause, unsigned long sp)
{
    uint32_t EXCn = (uint32_t)(mcause & 0X00000fff);
80000bac:	01451693          	slli	a3,a0,0x14
80000bb0:	0146d093          	srli	ra,a3,0x14
C:\Users\zzh\NucleiStudio_workspace\nice_ddr200\Debug/../hbird_sdk/SoC/hbirdv2/Common/Source/system_hbirdv2.c:365
    EXC_HANDLER exc_handler;

    if ((EXCn < MAX_SYSTEM_EXCEPTION_NUM) && (EXCn >= 0)) {
80000bb4:	4629                	li	a2,10
80000bb6:	872e                	mv	a4,a1
80000bb8:	02166463          	bltu	a2,ra,80000be0 <core_trap_handler+0x6c>
C:\Users\zzh\NucleiStudio_workspace\nice_ddr200\Debug/../hbird_sdk/SoC/hbirdv2/Common/Source/system_hbirdv2.c:366
        exc_handler = (EXC_HANDLER)SystemExceptionHandlers[EXCn];
80000bbc:	00209293          	slli	t0,ra,0x2
80000bc0:	89c18393          	addi	t2,gp,-1892 # 9000026c <SystemExceptionHandlers>
80000bc4:	00538433          	add	s0,t2,t0
80000bc8:	00042303          	lw	t1,0(s0)
C:\Users\zzh\NucleiStudio_workspace\nice_ddr200\Debug/../hbird_sdk/SoC/hbirdv2/Common/Source/system_hbirdv2.c:370
    } else {
        exc_handler = (EXC_HANDLER)system_default_exception_handler;
    }
    if (exc_handler != NULL) {
80000bcc:	fc030be3          	beqz	t1,80000ba2 <core_trap_handler+0x2e>
C:\Users\zzh\NucleiStudio_workspace\nice_ddr200\Debug/../hbird_sdk/SoC/hbirdv2/Common/Source/system_hbirdv2.c:371
        exc_handler(mcause, sp);
80000bd0:	85ba                	mv	a1,a4
80000bd2:	853e                	mv	a0,a5
80000bd4:	9302                	jalr	t1
core_trap_handler():
C:\Users\zzh\NucleiStudio_workspace\nice_ddr200\Debug/../hbird_sdk/SoC/hbirdv2/Common/Source/system_hbirdv2.c:347
}
80000bd6:	40b2                	lw	ra,12(sp)
80000bd8:	4422                	lw	s0,8(sp)
80000bda:	4501                	li	a0,0
80000bdc:	0141                	addi	sp,sp,16
80000bde:	8082                	ret
core_exception_handler():
C:\Users\zzh\NucleiStudio_workspace\nice_ddr200\Debug/../hbird_sdk/SoC/hbirdv2/Common/Source/system_hbirdv2.c:368
        exc_handler = (EXC_HANDLER)system_default_exception_handler;
80000be0:	00000317          	auipc	t1,0x0
80000be4:	eec30313          	addi	t1,t1,-276 # 80000acc <system_default_exception_handler>
C:\Users\zzh\NucleiStudio_workspace\nice_ddr200\Debug/../hbird_sdk/SoC/hbirdv2/Common/Source/system_hbirdv2.c:371
        exc_handler(mcause, sp);
80000be8:	85ba                	mv	a1,a4
80000bea:	853e                	mv	a0,a5
80000bec:	9302                	jalr	t1
80000bee:	b7e5                	j	80000bd6 <core_trap_handler+0x62>
PLIC_ClaimInterrupt():
C:\Users\zzh\NucleiStudio_workspace\nice_ddr200\hbird_sdk\NMSIS\Core\Include/core_feature_plic.h:273
 * \sa
 * - \ref PLIC_CompleteInterrupt
 */
__STATIC_FORCEINLINE uint32_t PLIC_ClaimInterrupt(void)
{
    uint32_t hartid = __RV_CSR_READ(CSR_MHARTID);
80000bf0:	f1402773          	csrr	a4,mhartid
C:\Users\zzh\NucleiStudio_workspace\nice_ddr200\hbird_sdk\NMSIS\Core\Include/core_feature_plic.h:274
    volatile uint32_t *claim_reg = (uint32_t *)((PLIC_BASE) + PLIC_CLAIM_OFFSET + \
80000bf4:	0c2000b7          	lui	ra,0xc200
C:\Users\zzh\NucleiStudio_workspace\nice_ddr200\hbird_sdk\NMSIS\Core\Include/core_feature_plic.h:275
                    + (hartid << PLIC_CLAIM_SHIFT_PER_TARGET));
80000bf8:	00c71693          	slli	a3,a4,0xc
C:\Users\zzh\NucleiStudio_workspace\nice_ddr200\hbird_sdk\NMSIS\Core\Include/core_feature_plic.h:274
    volatile uint32_t *claim_reg = (uint32_t *)((PLIC_BASE) + PLIC_CLAIM_OFFSET + \
80000bfc:	00408613          	addi	a2,ra,4 # c200004 <__stack_size+0xc1ff804>
80000c00:	00c68333          	add	t1,a3,a2
C:\Users\zzh\NucleiStudio_workspace\nice_ddr200\hbird_sdk\NMSIS\Core\Include/core_feature_plic.h:277

    return (*claim_reg);
80000c04:	00032403          	lw	s0,0(t1)
core_trap_handler():
C:\Users\zzh\NucleiStudio_workspace\nice_ddr200\Debug/../hbird_sdk/SoC/hbirdv2/Common/Source/system_hbirdv2.c:329
            if (irqn < __PLIC_INTNUM) {
80000c08:	42c1                	li	t0,16
80000c0a:	f882ece3          	bltu	t0,s0,80000ba2 <core_trap_handler+0x2e>
C:\Users\zzh\NucleiStudio_workspace\nice_ddr200\Debug/../hbird_sdk/SoC/hbirdv2/Common/Source/system_hbirdv2.c:330
                int_handler = (INT_HANDLER)(SystemExtInterruptHandlers[irqn]);
80000c0e:	00241393          	slli	t2,s0,0x2
80000c12:	8c818813          	addi	a6,gp,-1848 # 90000298 <SystemExtInterruptHandlers>
80000c16:	007808b3          	add	a7,a6,t2
80000c1a:	0008ae03          	lw	t3,0(a7)
C:\Users\zzh\NucleiStudio_workspace\nice_ddr200\Debug/../hbird_sdk/SoC/hbirdv2/Common/Source/system_hbirdv2.c:331
                if (int_handler != NULL) {
80000c1e:	000e0363          	beqz	t3,80000c24 <core_trap_handler+0xb0>
C:\Users\zzh\NucleiStudio_workspace\nice_ddr200\Debug/../hbird_sdk/SoC/hbirdv2/Common/Source/system_hbirdv2.c:332
                    int_handler(mcause, sp);
80000c22:	9e02                	jalr	t3
PLIC_CompleteInterrupt():
C:\Users\zzh\NucleiStudio_workspace\nice_ddr200\hbird_sdk\NMSIS\Core\Include/core_feature_plic.h:298
 * \sa
 * - \ref PLIC_ClaimInterrupt
 */
__STATIC_FORCEINLINE void PLIC_CompleteInterrupt(uint32_t source)
{
    uint32_t hartid = __RV_CSR_READ(CSR_MHARTID);
80000c24:	f1402573          	csrr	a0,mhartid
C:\Users\zzh\NucleiStudio_workspace\nice_ddr200\hbird_sdk\NMSIS\Core\Include/core_feature_plic.h:299
    volatile uint32_t *complete_reg = (uint32_t *)((PLIC_BASE) + PLIC_CLAIM_OFFSET + \
80000c28:	0c200eb7          	lui	t4,0xc200
C:\Users\zzh\NucleiStudio_workspace\nice_ddr200\hbird_sdk\NMSIS\Core\Include/core_feature_plic.h:300
                    + (hartid << PLIC_CLAIM_SHIFT_PER_TARGET));
80000c2c:	00c51593          	slli	a1,a0,0xc
C:\Users\zzh\NucleiStudio_workspace\nice_ddr200\hbird_sdk\NMSIS\Core\Include/core_feature_plic.h:299
    volatile uint32_t *complete_reg = (uint32_t *)((PLIC_BASE) + PLIC_CLAIM_OFFSET + \
80000c30:	004e8f13          	addi	t5,t4,4 # c200004 <__stack_size+0xc1ff804>
80000c34:	01e58fb3          	add	t6,a1,t5
C:\Users\zzh\NucleiStudio_workspace\nice_ddr200\hbird_sdk\NMSIS\Core\Include/core_feature_plic.h:302

    *complete_reg = source;
80000c38:	008fa023          	sw	s0,0(t6)
C:\Users\zzh\NucleiStudio_workspace\nice_ddr200\hbird_sdk\NMSIS\Core\Include/core_feature_plic.h:303
}
80000c3c:	b79d                	j	80000ba2 <core_trap_handler+0x2e>
	...

80000c40 <_premain_init>:
_premain_init():
C:\Users\zzh\NucleiStudio_workspace\nice_ddr200\Debug/../hbird_sdk/SoC/hbirdv2/Common/Source/system_hbirdv2.c:464
 * For RISC-V gnu toolchain, _init function might not be called
 * by __libc_init_array function, so we defined a new function
 * to do initialization
 */
void _premain_init(void)
{
80000c40:	1141                	addi	sp,sp,-16
80000c42:	c606                	sw	ra,12(sp)
80000c44:	c422                	sw	s0,8(sp)
C:\Users\zzh\NucleiStudio_workspace\nice_ddr200\Debug/../hbird_sdk/SoC/hbirdv2/Common/Source/system_hbirdv2.c:466
    /* TODO: Add your own initialization code here, called before main */
    SystemCoreClock = get_cpu_freq();
80000c46:	3109                	jal	80000848 <get_cpu_freq>
80000c48:	87aa                	mv	a5,a0
80000c4a:	0ffff417          	auipc	s0,0xffff
80000c4e:	58a40413          	addi	s0,s0,1418 # 900001d4 <SystemCoreClock>
C:\Users\zzh\NucleiStudio_workspace\nice_ddr200\Debug/../hbird_sdk/SoC/hbirdv2/Common/Source/system_hbirdv2.c:468
#if ! defined(SIMULATION_SPIKE) && ! defined(SIMULATION_XLSPIKE)
    gpio_iof_config(GPIOA, IOF_UART_MASK);
80000c52:	000305b7          	lui	a1,0x30
80000c56:	10012537          	lui	a0,0x10012
C:\Users\zzh\NucleiStudio_workspace\nice_ddr200\Debug/../hbird_sdk/SoC/hbirdv2/Common/Source/system_hbirdv2.c:466
    SystemCoreClock = get_cpu_freq();
80000c5a:	c01c                	sw	a5,0(s0)
C:\Users\zzh\NucleiStudio_workspace\nice_ddr200\Debug/../hbird_sdk/SoC/hbirdv2/Common/Source/system_hbirdv2.c:468
    gpio_iof_config(GPIOA, IOF_UART_MASK);
80000c5c:	34c1                	jal	8000071c <gpio_iof_config>
C:\Users\zzh\NucleiStudio_workspace\nice_ddr200\Debug/../hbird_sdk/SoC/hbirdv2/Common/Source/system_hbirdv2.c:469
    uart_init(SOC_DEBUG_UART, 115200);
80000c5e:	65f1                	lui	a1,0x1c
80000c60:	20058593          	addi	a1,a1,512 # 1c200 <__stack_size+0x1ba00>
80000c64:	10013537          	lui	a0,0x10013
80000c68:	34f1                	jal	80000734 <uart_init>
SystemBannerPrint():
C:\Users\zzh\NucleiStudio_workspace\nice_ddr200\Debug/../hbird_sdk/SoC/hbirdv2/Common/Source/system_hbirdv2.c:381
    printf("HummingBird SDK Build Time: %s, %s\r\n", __DATE__, __TIME__);
80000c6a:	00006617          	auipc	a2,0x6
80000c6e:	2ae60613          	addi	a2,a2,686 # 80006f18 <__clzsi2+0x9a>
80000c72:	00006597          	auipc	a1,0x6
80000c76:	2b258593          	addi	a1,a1,690 # 80006f24 <__clzsi2+0xa6>
80000c7a:	00006517          	auipc	a0,0x6
80000c7e:	2b650513          	addi	a0,a0,694 # 80006f30 <__clzsi2+0xb2>
80000c82:	655010ef          	jal	ra,80002ad6 <iprintf>
C:\Users\zzh\NucleiStudio_workspace\nice_ddr200\Debug/../hbird_sdk/SoC/hbirdv2/Common/Source/system_hbirdv2.c:383
    printf("Download Mode: %s\r\n", DOWNLOAD_MODE_STRING);
80000c86:	00006597          	auipc	a1,0x6
80000c8a:	2d258593          	addi	a1,a1,722 # 80006f58 <__clzsi2+0xda>
80000c8e:	00006517          	auipc	a0,0x6
80000c92:	2ce50513          	addi	a0,a0,718 # 80006f5c <__clzsi2+0xde>
80000c96:	641010ef          	jal	ra,80002ad6 <iprintf>
C:\Users\zzh\NucleiStudio_workspace\nice_ddr200\Debug/../hbird_sdk/SoC/hbirdv2/Common/Source/system_hbirdv2.c:385
    printf("CPU Frequency %lu Hz\r\n", SystemCoreClock);
80000c9a:	400c                	lw	a1,0(s0)
80000c9c:	00006517          	auipc	a0,0x6
80000ca0:	2d450513          	addi	a0,a0,724 # 80006f70 <__clzsi2+0xf2>
80000ca4:	633010ef          	jal	ra,80002ad6 <iprintf>
Interrupt_Init():
C:\Users\zzh\NucleiStudio_workspace\nice_ddr200\Debug/../hbird_sdk/SoC/hbirdv2/Common/Source/system_hbirdv2.c:216
        SystemExtInterruptHandlers[i] = (unsigned long)system_default_interrupt_handler;
80000ca8:	00000297          	auipc	t0,0x0
80000cac:	e6c28293          	addi	t0,t0,-404 # 80000b14 <system_default_interrupt_handler>
80000cb0:	8c818713          	addi	a4,gp,-1848 # 90000298 <SystemExtInterruptHandlers>
Exception_Init():
C:\Users\zzh\NucleiStudio_workspace\nice_ddr200\Debug/../hbird_sdk/SoC/hbirdv2/Common/Source/system_hbirdv2.c:201
        SystemExceptionHandlers[i] = (unsigned long)system_default_exception_handler;
80000cb4:	00000617          	auipc	a2,0x0
80000cb8:	e1860613          	addi	a2,a2,-488 # 80000acc <system_default_exception_handler>
80000cbc:	89c18693          	addi	a3,gp,-1892 # 9000026c <SystemExceptionHandlers>
Interrupt_Init():
C:\Users\zzh\NucleiStudio_workspace\nice_ddr200\Debug/../hbird_sdk/SoC/hbirdv2/Common/Source/system_hbirdv2.c:219
        SystemCoreInterruptHandlers[i] = (unsigned long)system_default_interrupt_handler;
80000cc0:	87418313          	addi	t1,gp,-1932 # 90000244 <SystemCoreInterruptHandlers>
Exception_Init():
C:\Users\zzh\NucleiStudio_workspace\nice_ddr200\Debug/../hbird_sdk/SoC/hbirdv2/Common/Source/system_hbirdv2.c:201
        SystemExceptionHandlers[i] = (unsigned long)system_default_exception_handler;
80000cc4:	c290                	sw	a2,0(a3)
80000cc6:	c2d0                	sw	a2,4(a3)
80000cc8:	c690                	sw	a2,8(a3)
80000cca:	c6d0                	sw	a2,12(a3)
80000ccc:	ca90                	sw	a2,16(a3)
80000cce:	cad0                	sw	a2,20(a3)
80000cd0:	ce90                	sw	a2,24(a3)
80000cd2:	ced0                	sw	a2,28(a3)
80000cd4:	d290                	sw	a2,32(a3)
80000cd6:	d2d0                	sw	a2,36(a3)
80000cd8:	d690                	sw	a2,40(a3)
Interrupt_Init():
C:\Users\zzh\NucleiStudio_workspace\nice_ddr200\Debug/../hbird_sdk/SoC/hbirdv2/Common/Source/system_hbirdv2.c:216
        SystemExtInterruptHandlers[i] = (unsigned long)system_default_interrupt_handler;
80000cda:	00572023          	sw	t0,0(a4)
80000cde:	00572223          	sw	t0,4(a4)
80000ce2:	00572423          	sw	t0,8(a4)
80000ce6:	00572623          	sw	t0,12(a4)
80000cea:	00572823          	sw	t0,16(a4)
80000cee:	00572a23          	sw	t0,20(a4)
80000cf2:	00572c23          	sw	t0,24(a4)
80000cf6:	00572e23          	sw	t0,28(a4)
80000cfa:	02572023          	sw	t0,32(a4)
80000cfe:	02572223          	sw	t0,36(a4)
80000d02:	02572423          	sw	t0,40(a4)
80000d06:	02572623          	sw	t0,44(a4)
80000d0a:	02572823          	sw	t0,48(a4)
80000d0e:	02572a23          	sw	t0,52(a4)
80000d12:	02572c23          	sw	t0,56(a4)
80000d16:	02572e23          	sw	t0,60(a4)
80000d1a:	04572023          	sw	t0,64(a4)
C:\Users\zzh\NucleiStudio_workspace\nice_ddr200\Debug/../hbird_sdk/SoC/hbirdv2/Common/Source/system_hbirdv2.c:219
        SystemCoreInterruptHandlers[i] = (unsigned long)system_default_interrupt_handler;
80000d1e:	00532023          	sw	t0,0(t1)
80000d22:	00532223          	sw	t0,4(t1)
80000d26:	00532423          	sw	t0,8(t1)
80000d2a:	00532623          	sw	t0,12(t1)
80000d2e:	00532823          	sw	t0,16(t1)
80000d32:	00532a23          	sw	t0,20(t1)
80000d36:	00532c23          	sw	t0,24(t1)
80000d3a:	00532e23          	sw	t0,28(t1)
80000d3e:	02532023          	sw	t0,32(t1)
80000d42:	02532223          	sw	t0,36(t1)
PLIC_DisableInterrupt():
C:\Users\zzh\NucleiStudio_workspace\nice_ddr200\hbird_sdk\NMSIS\Core\Include/core_feature_plic.h:191
    uint32_t hartid = __RV_CSR_READ(CSR_MHARTID);
80000d46:	f14023f3          	csrr	t2,mhartid
C:\Users\zzh\NucleiStudio_workspace\nice_ddr200\hbird_sdk\NMSIS\Core\Include/core_feature_plic.h:193
                    (hartid << PLIC_ENABLE_SHIFT_PER_TARGET) + (source >> 5) * 4);
80000d4a:	0c002837          	lui	a6,0xc002
80000d4e:	00739513          	slli	a0,t2,0x7
80000d52:	010508b3          	add	a7,a0,a6
C:\Users\zzh\NucleiStudio_workspace\nice_ddr200\hbird_sdk\NMSIS\Core\Include/core_feature_plic.h:195
    uint32_t current = *enable_reg;
80000d56:	0008ae03          	lw	t3,0(a7)
PLIC_SetPriority():
C:\Users\zzh\NucleiStudio_workspace\nice_ddr200\hbird_sdk\NMSIS\Core\Include/core_feature_plic.h:237
    *priority_reg = priority;
80000d5a:	0c000eb7          	lui	t4,0xc000
PLIC_DisableInterrupt():
C:\Users\zzh\NucleiStudio_workspace\nice_ddr200\hbird_sdk\NMSIS\Core\Include/core_feature_plic.h:196
    current = current & (~(1<<(source&0x1F)));
80000d5e:	ffee7f13          	andi	t5,t3,-2
C:\Users\zzh\NucleiStudio_workspace\nice_ddr200\hbird_sdk\NMSIS\Core\Include/core_feature_plic.h:197
    *enable_reg = current;
80000d62:	01e8a023          	sw	t5,0(a7)
PLIC_SetPriority():
C:\Users\zzh\NucleiStudio_workspace\nice_ddr200\hbird_sdk\NMSIS\Core\Include/core_feature_plic.h:237
    *priority_reg = priority;
80000d66:	000ea023          	sw	zero,0(t4) # c000000 <__stack_size+0xbfff800>
PLIC_DisableInterrupt():
C:\Users\zzh\NucleiStudio_workspace\nice_ddr200\hbird_sdk\NMSIS\Core\Include/core_feature_plic.h:191
    uint32_t hartid = __RV_CSR_READ(CSR_MHARTID);
80000d6a:	f1402ff3          	csrr	t6,mhartid
C:\Users\zzh\NucleiStudio_workspace\nice_ddr200\hbird_sdk\NMSIS\Core\Include/core_feature_plic.h:193
                    (hartid << PLIC_ENABLE_SHIFT_PER_TARGET) + (source >> 5) * 4);
80000d6e:	007f9793          	slli	a5,t6,0x7
80000d72:	01078433          	add	s0,a5,a6
C:\Users\zzh\NucleiStudio_workspace\nice_ddr200\hbird_sdk\NMSIS\Core\Include/core_feature_plic.h:195
    uint32_t current = *enable_reg;
80000d76:	400c                	lw	a1,0(s0)
C:\Users\zzh\NucleiStudio_workspace\nice_ddr200\hbird_sdk\NMSIS\Core\Include/core_feature_plic.h:196
    current = current & (~(1<<(source&0x1F)));
80000d78:	ffd5f613          	andi	a2,a1,-3
C:\Users\zzh\NucleiStudio_workspace\nice_ddr200\hbird_sdk\NMSIS\Core\Include/core_feature_plic.h:197
    *enable_reg = current;
80000d7c:	c010                	sw	a2,0(s0)
PLIC_SetPriority():
C:\Users\zzh\NucleiStudio_workspace\nice_ddr200\hbird_sdk\NMSIS\Core\Include/core_feature_plic.h:237
    *priority_reg = priority;
80000d7e:	000ea223          	sw	zero,4(t4)
PLIC_DisableInterrupt():
C:\Users\zzh\NucleiStudio_workspace\nice_ddr200\hbird_sdk\NMSIS\Core\Include/core_feature_plic.h:191
    uint32_t hartid = __RV_CSR_READ(CSR_MHARTID);
80000d82:	f14026f3          	csrr	a3,mhartid
C:\Users\zzh\NucleiStudio_workspace\nice_ddr200\hbird_sdk\NMSIS\Core\Include/core_feature_plic.h:193
                    (hartid << PLIC_ENABLE_SHIFT_PER_TARGET) + (source >> 5) * 4);
80000d86:	00769293          	slli	t0,a3,0x7
80000d8a:	01028733          	add	a4,t0,a6
C:\Users\zzh\NucleiStudio_workspace\nice_ddr200\hbird_sdk\NMSIS\Core\Include/core_feature_plic.h:195
    uint32_t current = *enable_reg;
80000d8e:	00072303          	lw	t1,0(a4)
C:\Users\zzh\NucleiStudio_workspace\nice_ddr200\hbird_sdk\NMSIS\Core\Include/core_feature_plic.h:196
    current = current & (~(1<<(source&0x1F)));
80000d92:	ffb37393          	andi	t2,t1,-5
C:\Users\zzh\NucleiStudio_workspace\nice_ddr200\hbird_sdk\NMSIS\Core\Include/core_feature_plic.h:197
    *enable_reg = current;
80000d96:	00772023          	sw	t2,0(a4)
PLIC_SetPriority():
C:\Users\zzh\NucleiStudio_workspace\nice_ddr200\hbird_sdk\NMSIS\Core\Include/core_feature_plic.h:237
    *priority_reg = priority;
80000d9a:	000ea423          	sw	zero,8(t4)
PLIC_DisableInterrupt():
C:\Users\zzh\NucleiStudio_workspace\nice_ddr200\hbird_sdk\NMSIS\Core\Include/core_feature_plic.h:191
    uint32_t hartid = __RV_CSR_READ(CSR_MHARTID);
80000d9e:	f1402573          	csrr	a0,mhartid
C:\Users\zzh\NucleiStudio_workspace\nice_ddr200\hbird_sdk\NMSIS\Core\Include/core_feature_plic.h:193
                    (hartid << PLIC_ENABLE_SHIFT_PER_TARGET) + (source >> 5) * 4);
80000da2:	00751893          	slli	a7,a0,0x7
80000da6:	01088e33          	add	t3,a7,a6
C:\Users\zzh\NucleiStudio_workspace\nice_ddr200\hbird_sdk\NMSIS\Core\Include/core_feature_plic.h:195
    uint32_t current = *enable_reg;
80000daa:	000e2f03          	lw	t5,0(t3)
C:\Users\zzh\NucleiStudio_workspace\nice_ddr200\hbird_sdk\NMSIS\Core\Include/core_feature_plic.h:196
    current = current & (~(1<<(source&0x1F)));
80000dae:	ff7f7f93          	andi	t6,t5,-9
C:\Users\zzh\NucleiStudio_workspace\nice_ddr200\hbird_sdk\NMSIS\Core\Include/core_feature_plic.h:197
    *enable_reg = current;
80000db2:	01fe2023          	sw	t6,0(t3)
PLIC_SetPriority():
C:\Users\zzh\NucleiStudio_workspace\nice_ddr200\hbird_sdk\NMSIS\Core\Include/core_feature_plic.h:237
    *priority_reg = priority;
80000db6:	000ea623          	sw	zero,12(t4)
PLIC_DisableInterrupt():
C:\Users\zzh\NucleiStudio_workspace\nice_ddr200\hbird_sdk\NMSIS\Core\Include/core_feature_plic.h:191
    uint32_t hartid = __RV_CSR_READ(CSR_MHARTID);
80000dba:	f14027f3          	csrr	a5,mhartid
C:\Users\zzh\NucleiStudio_workspace\nice_ddr200\hbird_sdk\NMSIS\Core\Include/core_feature_plic.h:193
                    (hartid << PLIC_ENABLE_SHIFT_PER_TARGET) + (source >> 5) * 4);
80000dbe:	00779413          	slli	s0,a5,0x7
80000dc2:	010405b3          	add	a1,s0,a6
C:\Users\zzh\NucleiStudio_workspace\nice_ddr200\hbird_sdk\NMSIS\Core\Include/core_feature_plic.h:195
    uint32_t current = *enable_reg;
80000dc6:	4190                	lw	a2,0(a1)
C:\Users\zzh\NucleiStudio_workspace\nice_ddr200\hbird_sdk\NMSIS\Core\Include/core_feature_plic.h:196
    current = current & (~(1<<(source&0x1F)));
80000dc8:	fef67693          	andi	a3,a2,-17
C:\Users\zzh\NucleiStudio_workspace\nice_ddr200\hbird_sdk\NMSIS\Core\Include/core_feature_plic.h:197
    *enable_reg = current;
80000dcc:	c194                	sw	a3,0(a1)
PLIC_SetPriority():
C:\Users\zzh\NucleiStudio_workspace\nice_ddr200\hbird_sdk\NMSIS\Core\Include/core_feature_plic.h:237
    *priority_reg = priority;
80000dce:	000ea823          	sw	zero,16(t4)
PLIC_DisableInterrupt():
C:\Users\zzh\NucleiStudio_workspace\nice_ddr200\hbird_sdk\NMSIS\Core\Include/core_feature_plic.h:191
    uint32_t hartid = __RV_CSR_READ(CSR_MHARTID);
80000dd2:	f14022f3          	csrr	t0,mhartid
C:\Users\zzh\NucleiStudio_workspace\nice_ddr200\hbird_sdk\NMSIS\Core\Include/core_feature_plic.h:193
                    (hartid << PLIC_ENABLE_SHIFT_PER_TARGET) + (source >> 5) * 4);
80000dd6:	00729713          	slli	a4,t0,0x7
80000dda:	01070333          	add	t1,a4,a6
C:\Users\zzh\NucleiStudio_workspace\nice_ddr200\hbird_sdk\NMSIS\Core\Include/core_feature_plic.h:195
    uint32_t current = *enable_reg;
80000dde:	00032383          	lw	t2,0(t1)
C:\Users\zzh\NucleiStudio_workspace\nice_ddr200\hbird_sdk\NMSIS\Core\Include/core_feature_plic.h:196
    current = current & (~(1<<(source&0x1F)));
80000de2:	fdf3f513          	andi	a0,t2,-33
C:\Users\zzh\NucleiStudio_workspace\nice_ddr200\hbird_sdk\NMSIS\Core\Include/core_feature_plic.h:197
    *enable_reg = current;
80000de6:	00a32023          	sw	a0,0(t1)
PLIC_SetPriority():
C:\Users\zzh\NucleiStudio_workspace\nice_ddr200\hbird_sdk\NMSIS\Core\Include/core_feature_plic.h:237
    *priority_reg = priority;
80000dea:	000eaa23          	sw	zero,20(t4)
PLIC_DisableInterrupt():
C:\Users\zzh\NucleiStudio_workspace\nice_ddr200\hbird_sdk\NMSIS\Core\Include/core_feature_plic.h:191
    uint32_t hartid = __RV_CSR_READ(CSR_MHARTID);
80000dee:	f14028f3          	csrr	a7,mhartid
C:\Users\zzh\NucleiStudio_workspace\nice_ddr200\hbird_sdk\NMSIS\Core\Include/core_feature_plic.h:193
                    (hartid << PLIC_ENABLE_SHIFT_PER_TARGET) + (source >> 5) * 4);
80000df2:	00789e13          	slli	t3,a7,0x7
80000df6:	010e0f33          	add	t5,t3,a6
C:\Users\zzh\NucleiStudio_workspace\nice_ddr200\hbird_sdk\NMSIS\Core\Include/core_feature_plic.h:195
    uint32_t current = *enable_reg;
80000dfa:	000f2f83          	lw	t6,0(t5)
C:\Users\zzh\NucleiStudio_workspace\nice_ddr200\hbird_sdk\NMSIS\Core\Include/core_feature_plic.h:196
    current = current & (~(1<<(source&0x1F)));
80000dfe:	fbfff793          	andi	a5,t6,-65
C:\Users\zzh\NucleiStudio_workspace\nice_ddr200\hbird_sdk\NMSIS\Core\Include/core_feature_plic.h:197
    *enable_reg = current;
80000e02:	00ff2023          	sw	a5,0(t5)
PLIC_SetPriority():
C:\Users\zzh\NucleiStudio_workspace\nice_ddr200\hbird_sdk\NMSIS\Core\Include/core_feature_plic.h:237
    *priority_reg = priority;
80000e06:	000eac23          	sw	zero,24(t4)
PLIC_DisableInterrupt():
C:\Users\zzh\NucleiStudio_workspace\nice_ddr200\hbird_sdk\NMSIS\Core\Include/core_feature_plic.h:191
    uint32_t hartid = __RV_CSR_READ(CSR_MHARTID);
80000e0a:	f1402473          	csrr	s0,mhartid
C:\Users\zzh\NucleiStudio_workspace\nice_ddr200\hbird_sdk\NMSIS\Core\Include/core_feature_plic.h:193
                    (hartid << PLIC_ENABLE_SHIFT_PER_TARGET) + (source >> 5) * 4);
80000e0e:	00741593          	slli	a1,s0,0x7
80000e12:	010586b3          	add	a3,a1,a6
C:\Users\zzh\NucleiStudio_workspace\nice_ddr200\hbird_sdk\NMSIS\Core\Include/core_feature_plic.h:195
    uint32_t current = *enable_reg;
80000e16:	4290                	lw	a2,0(a3)
C:\Users\zzh\NucleiStudio_workspace\nice_ddr200\hbird_sdk\NMSIS\Core\Include/core_feature_plic.h:196
    current = current & (~(1<<(source&0x1F)));
80000e18:	f7f67293          	andi	t0,a2,-129
C:\Users\zzh\NucleiStudio_workspace\nice_ddr200\hbird_sdk\NMSIS\Core\Include/core_feature_plic.h:197
    *enable_reg = current;
80000e1c:	0056a023          	sw	t0,0(a3)
PLIC_SetPriority():
C:\Users\zzh\NucleiStudio_workspace\nice_ddr200\hbird_sdk\NMSIS\Core\Include/core_feature_plic.h:237
    *priority_reg = priority;
80000e20:	000eae23          	sw	zero,28(t4)
PLIC_DisableInterrupt():
C:\Users\zzh\NucleiStudio_workspace\nice_ddr200\hbird_sdk\NMSIS\Core\Include/core_feature_plic.h:191
    uint32_t hartid = __RV_CSR_READ(CSR_MHARTID);
80000e24:	f1402773          	csrr	a4,mhartid
C:\Users\zzh\NucleiStudio_workspace\nice_ddr200\hbird_sdk\NMSIS\Core\Include/core_feature_plic.h:193
                    (hartid << PLIC_ENABLE_SHIFT_PER_TARGET) + (source >> 5) * 4);
80000e28:	00771313          	slli	t1,a4,0x7
80000e2c:	010303b3          	add	t2,t1,a6
C:\Users\zzh\NucleiStudio_workspace\nice_ddr200\hbird_sdk\NMSIS\Core\Include/core_feature_plic.h:195
    uint32_t current = *enable_reg;
80000e30:	0003a503          	lw	a0,0(t2)
C:\Users\zzh\NucleiStudio_workspace\nice_ddr200\hbird_sdk\NMSIS\Core\Include/core_feature_plic.h:196
    current = current & (~(1<<(source&0x1F)));
80000e34:	eff57893          	andi	a7,a0,-257
C:\Users\zzh\NucleiStudio_workspace\nice_ddr200\hbird_sdk\NMSIS\Core\Include/core_feature_plic.h:197
    *enable_reg = current;
80000e38:	0113a023          	sw	a7,0(t2)
PLIC_SetPriority():
C:\Users\zzh\NucleiStudio_workspace\nice_ddr200\hbird_sdk\NMSIS\Core\Include/core_feature_plic.h:237
    *priority_reg = priority;
80000e3c:	020ea023          	sw	zero,32(t4)
PLIC_DisableInterrupt():
C:\Users\zzh\NucleiStudio_workspace\nice_ddr200\hbird_sdk\NMSIS\Core\Include/core_feature_plic.h:191
    uint32_t hartid = __RV_CSR_READ(CSR_MHARTID);
80000e40:	f1402e73          	csrr	t3,mhartid
C:\Users\zzh\NucleiStudio_workspace\nice_ddr200\hbird_sdk\NMSIS\Core\Include/core_feature_plic.h:193
                    (hartid << PLIC_ENABLE_SHIFT_PER_TARGET) + (source >> 5) * 4);
80000e44:	007e1f13          	slli	t5,t3,0x7
80000e48:	010f0fb3          	add	t6,t5,a6
C:\Users\zzh\NucleiStudio_workspace\nice_ddr200\hbird_sdk\NMSIS\Core\Include/core_feature_plic.h:195
    uint32_t current = *enable_reg;
80000e4c:	000fa783          	lw	a5,0(t6)
C:\Users\zzh\NucleiStudio_workspace\nice_ddr200\hbird_sdk\NMSIS\Core\Include/core_feature_plic.h:196
    current = current & (~(1<<(source&0x1F)));
80000e50:	dff7f413          	andi	s0,a5,-513
C:\Users\zzh\NucleiStudio_workspace\nice_ddr200\hbird_sdk\NMSIS\Core\Include/core_feature_plic.h:197
    *enable_reg = current;
80000e54:	008fa023          	sw	s0,0(t6)
PLIC_SetPriority():
C:\Users\zzh\NucleiStudio_workspace\nice_ddr200\hbird_sdk\NMSIS\Core\Include/core_feature_plic.h:237
    *priority_reg = priority;
80000e58:	020ea223          	sw	zero,36(t4)
PLIC_DisableInterrupt():
C:\Users\zzh\NucleiStudio_workspace\nice_ddr200\hbird_sdk\NMSIS\Core\Include/core_feature_plic.h:191
    uint32_t hartid = __RV_CSR_READ(CSR_MHARTID);
80000e5c:	f14025f3          	csrr	a1,mhartid
C:\Users\zzh\NucleiStudio_workspace\nice_ddr200\hbird_sdk\NMSIS\Core\Include/core_feature_plic.h:193
                    (hartid << PLIC_ENABLE_SHIFT_PER_TARGET) + (source >> 5) * 4);
80000e60:	00759693          	slli	a3,a1,0x7
80000e64:	010682b3          	add	t0,a3,a6
C:\Users\zzh\NucleiStudio_workspace\nice_ddr200\hbird_sdk\NMSIS\Core\Include/core_feature_plic.h:195
    uint32_t current = *enable_reg;
80000e68:	0002a603          	lw	a2,0(t0)
C:\Users\zzh\NucleiStudio_workspace\nice_ddr200\hbird_sdk\NMSIS\Core\Include/core_feature_plic.h:196
    current = current & (~(1<<(source&0x1F)));
80000e6c:	bff67713          	andi	a4,a2,-1025
C:\Users\zzh\NucleiStudio_workspace\nice_ddr200\hbird_sdk\NMSIS\Core\Include/core_feature_plic.h:197
    *enable_reg = current;
80000e70:	00e2a023          	sw	a4,0(t0)
PLIC_SetPriority():
C:\Users\zzh\NucleiStudio_workspace\nice_ddr200\hbird_sdk\NMSIS\Core\Include/core_feature_plic.h:237
    *priority_reg = priority;
80000e74:	020ea423          	sw	zero,40(t4)
PLIC_DisableInterrupt():
C:\Users\zzh\NucleiStudio_workspace\nice_ddr200\hbird_sdk\NMSIS\Core\Include/core_feature_plic.h:191
    uint32_t hartid = __RV_CSR_READ(CSR_MHARTID);
80000e78:	f1402373          	csrr	t1,mhartid
C:\Users\zzh\NucleiStudio_workspace\nice_ddr200\hbird_sdk\NMSIS\Core\Include/core_feature_plic.h:193
                    (hartid << PLIC_ENABLE_SHIFT_PER_TARGET) + (source >> 5) * 4);
80000e7c:	00731393          	slli	t2,t1,0x7
80000e80:	010388b3          	add	a7,t2,a6
C:\Users\zzh\NucleiStudio_workspace\nice_ddr200\hbird_sdk\NMSIS\Core\Include/core_feature_plic.h:195
    uint32_t current = *enable_reg;
80000e84:	0008ae03          	lw	t3,0(a7)
C:\Users\zzh\NucleiStudio_workspace\nice_ddr200\hbird_sdk\NMSIS\Core\Include/core_feature_plic.h:196
    current = current & (~(1<<(source&0x1F)));
80000e88:	7f7d                	lui	t5,0xfffff
80000e8a:	7fff0513          	addi	a0,t5,2047 # fffff7ff <_sp+0x6ffef7ff>
80000e8e:	00ae7fb3          	and	t6,t3,a0
C:\Users\zzh\NucleiStudio_workspace\nice_ddr200\hbird_sdk\NMSIS\Core\Include/core_feature_plic.h:197
    *enable_reg = current;
80000e92:	01f8a023          	sw	t6,0(a7)
PLIC_SetPriority():
C:\Users\zzh\NucleiStudio_workspace\nice_ddr200\hbird_sdk\NMSIS\Core\Include/core_feature_plic.h:237
    *priority_reg = priority;
80000e96:	020ea623          	sw	zero,44(t4)
PLIC_DisableInterrupt():
C:\Users\zzh\NucleiStudio_workspace\nice_ddr200\hbird_sdk\NMSIS\Core\Include/core_feature_plic.h:191
    uint32_t hartid = __RV_CSR_READ(CSR_MHARTID);
80000e9a:	f14027f3          	csrr	a5,mhartid
C:\Users\zzh\NucleiStudio_workspace\nice_ddr200\hbird_sdk\NMSIS\Core\Include/core_feature_plic.h:193
                    (hartid << PLIC_ENABLE_SHIFT_PER_TARGET) + (source >> 5) * 4);
80000e9e:	00779413          	slli	s0,a5,0x7
80000ea2:	010406b3          	add	a3,s0,a6
C:\Users\zzh\NucleiStudio_workspace\nice_ddr200\hbird_sdk\NMSIS\Core\Include/core_feature_plic.h:195
    uint32_t current = *enable_reg;
80000ea6:	428c                	lw	a1,0(a3)
C:\Users\zzh\NucleiStudio_workspace\nice_ddr200\hbird_sdk\NMSIS\Core\Include/core_feature_plic.h:196
    current = current & (~(1<<(source&0x1F)));
80000ea8:	ffff0293          	addi	t0,t5,-1
80000eac:	0055f633          	and	a2,a1,t0
C:\Users\zzh\NucleiStudio_workspace\nice_ddr200\hbird_sdk\NMSIS\Core\Include/core_feature_plic.h:197
    *enable_reg = current;
80000eb0:	c290                	sw	a2,0(a3)
PLIC_SetPriority():
C:\Users\zzh\NucleiStudio_workspace\nice_ddr200\hbird_sdk\NMSIS\Core\Include/core_feature_plic.h:237
    *priority_reg = priority;
80000eb2:	020ea823          	sw	zero,48(t4)
PLIC_DisableInterrupt():
C:\Users\zzh\NucleiStudio_workspace\nice_ddr200\hbird_sdk\NMSIS\Core\Include/core_feature_plic.h:191
    uint32_t hartid = __RV_CSR_READ(CSR_MHARTID);
80000eb6:	f1402773          	csrr	a4,mhartid
C:\Users\zzh\NucleiStudio_workspace\nice_ddr200\hbird_sdk\NMSIS\Core\Include/core_feature_plic.h:193
                    (hartid << PLIC_ENABLE_SHIFT_PER_TARGET) + (source >> 5) * 4);
80000eba:	00771313          	slli	t1,a4,0x7
80000ebe:	010303b3          	add	t2,t1,a6
C:\Users\zzh\NucleiStudio_workspace\nice_ddr200\hbird_sdk\NMSIS\Core\Include/core_feature_plic.h:195
    uint32_t current = *enable_reg;
80000ec2:	0003a883          	lw	a7,0(t2)
C:\Users\zzh\NucleiStudio_workspace\nice_ddr200\hbird_sdk\NMSIS\Core\Include/core_feature_plic.h:196
    current = current & (~(1<<(source&0x1F)));
80000ec6:	7e79                	lui	t3,0xffffe
80000ec8:	fffe0f13          	addi	t5,t3,-1 # ffffdfff <_sp+0x6ffedfff>
80000ecc:	01e8f533          	and	a0,a7,t5
C:\Users\zzh\NucleiStudio_workspace\nice_ddr200\hbird_sdk\NMSIS\Core\Include/core_feature_plic.h:197
    *enable_reg = current;
80000ed0:	00a3a023          	sw	a0,0(t2)
PLIC_SetPriority():
C:\Users\zzh\NucleiStudio_workspace\nice_ddr200\hbird_sdk\NMSIS\Core\Include/core_feature_plic.h:237
    *priority_reg = priority;
80000ed4:	020eaa23          	sw	zero,52(t4)
PLIC_DisableInterrupt():
C:\Users\zzh\NucleiStudio_workspace\nice_ddr200\hbird_sdk\NMSIS\Core\Include/core_feature_plic.h:191
    uint32_t hartid = __RV_CSR_READ(CSR_MHARTID);
80000ed8:	f1402ff3          	csrr	t6,mhartid
C:\Users\zzh\NucleiStudio_workspace\nice_ddr200\hbird_sdk\NMSIS\Core\Include/core_feature_plic.h:193
                    (hartid << PLIC_ENABLE_SHIFT_PER_TARGET) + (source >> 5) * 4);
80000edc:	007f9793          	slli	a5,t6,0x7
80000ee0:	01078433          	add	s0,a5,a6
C:\Users\zzh\NucleiStudio_workspace\nice_ddr200\hbird_sdk\NMSIS\Core\Include/core_feature_plic.h:195
    uint32_t current = *enable_reg;
80000ee4:	4014                	lw	a3,0(s0)
C:\Users\zzh\NucleiStudio_workspace\nice_ddr200\hbird_sdk\NMSIS\Core\Include/core_feature_plic.h:196
    current = current & (~(1<<(source&0x1F)));
80000ee6:	75f1                	lui	a1,0xffffc
80000ee8:	fff58293          	addi	t0,a1,-1 # ffffbfff <_sp+0x6ffebfff>
80000eec:	0056f633          	and	a2,a3,t0
C:\Users\zzh\NucleiStudio_workspace\nice_ddr200\hbird_sdk\NMSIS\Core\Include/core_feature_plic.h:197
    *enable_reg = current;
80000ef0:	c010                	sw	a2,0(s0)
PLIC_SetPriority():
C:\Users\zzh\NucleiStudio_workspace\nice_ddr200\hbird_sdk\NMSIS\Core\Include/core_feature_plic.h:237
    *priority_reg = priority;
80000ef2:	020eac23          	sw	zero,56(t4)
PLIC_DisableInterrupt():
C:\Users\zzh\NucleiStudio_workspace\nice_ddr200\hbird_sdk\NMSIS\Core\Include/core_feature_plic.h:191
    uint32_t hartid = __RV_CSR_READ(CSR_MHARTID);
80000ef6:	f1402773          	csrr	a4,mhartid
C:\Users\zzh\NucleiStudio_workspace\nice_ddr200\hbird_sdk\NMSIS\Core\Include/core_feature_plic.h:193
                    (hartid << PLIC_ENABLE_SHIFT_PER_TARGET) + (source >> 5) * 4);
80000efa:	00771313          	slli	t1,a4,0x7
80000efe:	010303b3          	add	t2,t1,a6
C:\Users\zzh\NucleiStudio_workspace\nice_ddr200\hbird_sdk\NMSIS\Core\Include/core_feature_plic.h:195
    uint32_t current = *enable_reg;
80000f02:	0003a883          	lw	a7,0(t2)
C:\Users\zzh\NucleiStudio_workspace\nice_ddr200\hbird_sdk\NMSIS\Core\Include/core_feature_plic.h:196
    current = current & (~(1<<(source&0x1F)));
80000f06:	7e61                	lui	t3,0xffff8
80000f08:	fffe0f13          	addi	t5,t3,-1 # ffff7fff <_sp+0x6ffe7fff>
80000f0c:	01e8f533          	and	a0,a7,t5
C:\Users\zzh\NucleiStudio_workspace\nice_ddr200\hbird_sdk\NMSIS\Core\Include/core_feature_plic.h:197
    *enable_reg = current;
80000f10:	00a3a023          	sw	a0,0(t2)
PLIC_SetPriority():
C:\Users\zzh\NucleiStudio_workspace\nice_ddr200\hbird_sdk\NMSIS\Core\Include/core_feature_plic.h:237
    *priority_reg = priority;
80000f14:	020eae23          	sw	zero,60(t4)
PLIC_DisableInterrupt():
C:\Users\zzh\NucleiStudio_workspace\nice_ddr200\hbird_sdk\NMSIS\Core\Include/core_feature_plic.h:191
    uint32_t hartid = __RV_CSR_READ(CSR_MHARTID);
80000f18:	f1402ff3          	csrr	t6,mhartid
C:\Users\zzh\NucleiStudio_workspace\nice_ddr200\hbird_sdk\NMSIS\Core\Include/core_feature_plic.h:193
                    (hartid << PLIC_ENABLE_SHIFT_PER_TARGET) + (source >> 5) * 4);
80000f1c:	007f9793          	slli	a5,t6,0x7
80000f20:	983e                	add	a6,a6,a5
C:\Users\zzh\NucleiStudio_workspace\nice_ddr200\hbird_sdk\NMSIS\Core\Include/core_feature_plic.h:195
    uint32_t current = *enable_reg;
80000f22:	00082403          	lw	s0,0(a6) # c002000 <__stack_size+0xc001800>
C:\Users\zzh\NucleiStudio_workspace\nice_ddr200\hbird_sdk\NMSIS\Core\Include/core_feature_plic.h:196
    current = current & (~(1<<(source&0x1F)));
80000f26:	76c1                	lui	a3,0xffff0
80000f28:	fff68593          	addi	a1,a3,-1 # fffeffff <_sp+0x6ffdffff>
80000f2c:	00b472b3          	and	t0,s0,a1
C:\Users\zzh\NucleiStudio_workspace\nice_ddr200\hbird_sdk\NMSIS\Core\Include/core_feature_plic.h:197
    *enable_reg = current;
80000f30:	00582023          	sw	t0,0(a6)
PLIC_SetPriority():
C:\Users\zzh\NucleiStudio_workspace\nice_ddr200\hbird_sdk\NMSIS\Core\Include/core_feature_plic.h:237
    *priority_reg = priority;
80000f34:	040ea023          	sw	zero,64(t4)
PLIC_SetThreshold():
C:\Users\zzh\NucleiStudio_workspace\nice_ddr200\hbird_sdk\NMSIS\Core\Include/core_feature_plic.h:135
    uint32_t hartid = __RV_CSR_READ(CSR_MHARTID);
80000f38:	f1402ef3          	csrr	t4,mhartid
C:\Users\zzh\NucleiStudio_workspace\nice_ddr200\hbird_sdk\NMSIS\Core\Include/core_feature_plic.h:137
                    PLIC_THRESHOLD_OFFSET + (hartid << PLIC_THRESHOLD_SHIFT_PER_TARGET));
80000f3c:	0c200737          	lui	a4,0xc200
_premain_init():
C:\Users\zzh\NucleiStudio_workspace\nice_ddr200\Debug/../hbird_sdk/SoC/hbirdv2/Common/Source/system_hbirdv2.c:481
    Interrupt_Init();
#if defined(__PLIC_PRESENT) && __PLIC_PRESENT == 1
    /* PLIC initilization */
    PLIC_Init(__PLIC_INTNUM);
#endif
}
80000f40:	40b2                	lw	ra,12(sp)
80000f42:	4422                	lw	s0,8(sp)
PLIC_SetThreshold():
C:\Users\zzh\NucleiStudio_workspace\nice_ddr200\hbird_sdk\NMSIS\Core\Include/core_feature_plic.h:137
80000f44:	00ce9613          	slli	a2,t4,0xc
80000f48:	00e60333          	add	t1,a2,a4
C:\Users\zzh\NucleiStudio_workspace\nice_ddr200\hbird_sdk\NMSIS\Core\Include/core_feature_plic.h:139
    *thresh_reg = thresh;
80000f4c:	00032023          	sw	zero,0(t1)
_premain_init():
C:\Users\zzh\NucleiStudio_workspace\nice_ddr200\Debug/../hbird_sdk/SoC/hbirdv2/Common/Source/system_hbirdv2.c:481
80000f50:	0141                	addi	sp,sp,16
80000f52:	8082                	ret

80000f54 <_postmain_fini>:
_postmain_fini():
C:\Users\zzh\NucleiStudio_workspace\nice_ddr200\Debug/../hbird_sdk/SoC/hbirdv2/Common/Source/system_hbirdv2.c:507
#ifdef SIMULATION_RTL
extern void rtlsim_exit(int status);
    rtlsim_exit(status);
#endif

}
80000f54:	8082                	ret
	...

80000f58 <_init>:
_init():
C:\Users\zzh\NucleiStudio_workspace\nice_ddr200\Debug/../hbird_sdk/SoC/hbirdv2/Common/Source/system_hbirdv2.c:521
 * Please use \ref _premain_init function now
 */
void _init(void)
{
    /* Don't put any code here, please use _premain_init now */
}
80000f58:	8082                	ret
	...

80000f5c <_fini>:
_fini():
80000f5c:	8082                	ret
	...

80000f60 <normal_case>:
normal_case():
C:\Users\zzh\NucleiStudio_workspace\nice_ddr200\Debug/../application/insn.c:7
#include <stdio.h>


// normal test case without NICE accelerator.
int normal_case(unsigned int array[ROW_LEN][COL_LEN])
{
80000f60:	7179                	addi	sp,sp,-48
C:\Users\zzh\NucleiStudio_workspace\nice_ddr200\Debug/../application/insn.c:8
  volatile unsigned char i=0, j=0;
80000f62:	00010123          	sb	zero,2(sp)
80000f66:	000101a3          	sb	zero,3(sp)
C:\Users\zzh\NucleiStudio_workspace\nice_ddr200\Debug/../application/insn.c:9
  volatile unsigned int col_sum[COL_LEN]={0};
80000f6a:	c402                	sw	zero,8(sp)
80000f6c:	c602                	sw	zero,12(sp)
80000f6e:	c802                	sw	zero,16(sp)
C:\Users\zzh\NucleiStudio_workspace\nice_ddr200\Debug/../application/insn.c:10
  volatile unsigned int row_sum[ROW_LEN]={0};
80000f70:	ca02                	sw	zero,20(sp)
80000f72:	cc02                	sw	zero,24(sp)
80000f74:	ce02                	sw	zero,28(sp)
C:\Users\zzh\NucleiStudio_workspace\nice_ddr200\Debug/../application/insn.c:11
  volatile unsigned int tmp=0;
80000f76:	c202                	sw	zero,4(sp)
C:\Users\zzh\NucleiStudio_workspace\nice_ddr200\Debug/../application/insn.c:12
  for (i = 0; i < ROW_LEN; i++)
80000f78:	00010123          	sb	zero,2(sp)
80000f7c:	00214783          	lbu	a5,2(sp)
C:\Users\zzh\NucleiStudio_workspace\nice_ddr200\Debug/../application/insn.c:7
{
80000f80:	d606                	sw	ra,44(sp)
80000f82:	d422                	sw	s0,40(sp)
80000f84:	d226                	sw	s1,36(sp)
80000f86:	d04a                	sw	s2,32(sp)
C:\Users\zzh\NucleiStudio_workspace\nice_ddr200\Debug/../application/insn.c:12
  for (i = 0; i < ROW_LEN; i++)
80000f88:	4709                	li	a4,2
80000f8a:	0ff7f093          	zext.b	ra,a5
C:\Users\zzh\NucleiStudio_workspace\nice_ddr200\Debug/../application/insn.c:7
{
80000f8e:	842a                	mv	s0,a0
C:\Users\zzh\NucleiStudio_workspace\nice_ddr200\Debug/../application/insn.c:12
  for (i = 0; i < ROW_LEN; i++)
80000f90:	18176263          	bltu	a4,ra,80001114 <normal_case+0x1b4>
C:\Users\zzh\NucleiStudio_workspace\nice_ddr200\Debug/../application/insn.c:15
  {
    tmp = 0;
    for (j = 0; j < COL_LEN; j++)
80000f94:	4689                	li	a3,2
80000f96:	0001                	nop
C:\Users\zzh\NucleiStudio_workspace\nice_ddr200\Debug/../application/insn.c:14
    tmp = 0;
80000f98:	c202                	sw	zero,4(sp)
C:\Users\zzh\NucleiStudio_workspace\nice_ddr200\Debug/../application/insn.c:15
    for (j = 0; j < COL_LEN; j++)
80000f9a:	000101a3          	sb	zero,3(sp)
80000f9e:	00314283          	lbu	t0,3(sp)
80000fa2:	0ff2f313          	zext.b	t1,t0
80000fa6:	1266ec63          	bltu	a3,t1,800010de <normal_case+0x17e>
C:\Users\zzh\NucleiStudio_workspace\nice_ddr200\Debug/../application/insn.c:17 (discriminator 3)
    {
      col_sum[j] += array[i][j];
80000faa:	00214383          	lbu	t2,2(sp)
80000fae:	00314603          	lbu	a2,3(sp)
80000fb2:	00314483          	lbu	s1,3(sp)
80000fb6:	0ff3f593          	zext.b	a1,t2
80000fba:	00159513          	slli	a0,a1,0x1
80000fbe:	00b50833          	add	a6,a0,a1
80000fc2:	0ff67893          	zext.b	a7,a2
80000fc6:	0ff4f913          	zext.b	s2,s1
80000fca:	00281e13          	slli	t3,a6,0x2
80000fce:	00291e93          	slli	t4,s2,0x2
80000fd2:	01c40f33          	add	t5,s0,t3
80000fd6:	00289f93          	slli	t6,a7,0x2
80000fda:	101c                	addi	a5,sp,32
80000fdc:	01d78733          	add	a4,a5,t4
80000fe0:	01ff00b3          	add	ra,t5,t6
80000fe4:	fe872283          	lw	t0,-24(a4) # c1fffe8 <__stack_size+0xc1ff7e8>
80000fe8:	0000a303          	lw	t1,0(ra)
80000fec:	006283b3          	add	t2,t0,t1
80000ff0:	fe772423          	sw	t2,-24(a4)
C:\Users\zzh\NucleiStudio_workspace\nice_ddr200\Debug/../application/insn.c:18 (discriminator 3)
      tmp += array[i][j];
80000ff4:	00214603          	lbu	a2,2(sp)
80000ff8:	00314483          	lbu	s1,3(sp)
80000ffc:	4592                	lw	a1,4(sp)
80000ffe:	0ff67513          	zext.b	a0,a2
80001002:	00151813          	slli	a6,a0,0x1
80001006:	00a808b3          	add	a7,a6,a0
8000100a:	0ff4f913          	zext.b	s2,s1
8000100e:	00289e13          	slli	t3,a7,0x2
80001012:	01c40eb3          	add	t4,s0,t3
80001016:	00291f13          	slli	t5,s2,0x2
8000101a:	01ee8fb3          	add	t6,t4,t5
8000101e:	000fa783          	lw	a5,0(t6)
80001022:	00f58733          	add	a4,a1,a5
80001026:	c23a                	sw	a4,4(sp)
C:\Users\zzh\NucleiStudio_workspace\nice_ddr200\Debug/../application/insn.c:15 (discriminator 3)
    for (j = 0; j < COL_LEN; j++)
80001028:	00314083          	lbu	ra,3(sp)
8000102c:	00108293          	addi	t0,ra,1
80001030:	0ff2f313          	zext.b	t1,t0
80001034:	006101a3          	sb	t1,3(sp)
80001038:	00314383          	lbu	t2,3(sp)
8000103c:	0ff3f613          	zext.b	a2,t2
80001040:	08c6ef63          	bltu	a3,a2,800010de <normal_case+0x17e>
C:\Users\zzh\NucleiStudio_workspace\nice_ddr200\Debug/../application/insn.c:17
      col_sum[j] += array[i][j];
80001044:	00214483          	lbu	s1,2(sp)
80001048:	00314503          	lbu	a0,3(sp)
8000104c:	00314803          	lbu	a6,3(sp)
80001050:	0ff4f593          	zext.b	a1,s1
80001054:	00159893          	slli	a7,a1,0x1
80001058:	00b88933          	add	s2,a7,a1
8000105c:	0ff57e13          	zext.b	t3,a0
80001060:	0ff87e93          	zext.b	t4,a6
80001064:	00291f13          	slli	t5,s2,0x2
80001068:	002e9f93          	slli	t6,t4,0x2
8000106c:	01e407b3          	add	a5,s0,t5
80001070:	002e1093          	slli	ra,t3,0x2
80001074:	1018                	addi	a4,sp,32
80001076:	01f702b3          	add	t0,a4,t6
8000107a:	00178333          	add	t1,a5,ra
8000107e:	fe82a383          	lw	t2,-24(t0)
80001082:	00032603          	lw	a2,0(t1)
80001086:	00c384b3          	add	s1,t2,a2
8000108a:	fe92a423          	sw	s1,-24(t0)
C:\Users\zzh\NucleiStudio_workspace\nice_ddr200\Debug/../application/insn.c:18
      tmp += array[i][j];
8000108e:	00214503          	lbu	a0,2(sp)
80001092:	00314803          	lbu	a6,3(sp)
80001096:	4592                	lw	a1,4(sp)
80001098:	0ff57893          	zext.b	a7,a0
8000109c:	00189913          	slli	s2,a7,0x1
800010a0:	01190e33          	add	t3,s2,a7
800010a4:	0ff87e93          	zext.b	t4,a6
800010a8:	002e1f13          	slli	t5,t3,0x2
800010ac:	01e40fb3          	add	t6,s0,t5
800010b0:	002e9793          	slli	a5,t4,0x2
800010b4:	00ff80b3          	add	ra,t6,a5
800010b8:	0000a703          	lw	a4,0(ra)
800010bc:	00e582b3          	add	t0,a1,a4
800010c0:	c216                	sw	t0,4(sp)
C:\Users\zzh\NucleiStudio_workspace\nice_ddr200\Debug/../application/insn.c:15
    for (j = 0; j < COL_LEN; j++)
800010c2:	00314303          	lbu	t1,3(sp)
800010c6:	00130393          	addi	t2,t1,1
800010ca:	0ff3f613          	zext.b	a2,t2
800010ce:	00c101a3          	sb	a2,3(sp)
800010d2:	00314483          	lbu	s1,3(sp)
800010d6:	0ff4f513          	zext.b	a0,s1
800010da:	eca6f8e3          	bgeu	a3,a0,80000faa <normal_case+0x4a>
C:\Users\zzh\NucleiStudio_workspace\nice_ddr200\Debug/../application/insn.c:20
    }
    row_sum[i] = tmp;
800010de:	00214803          	lbu	a6,2(sp)
800010e2:	4592                	lw	a1,4(sp)
800010e4:	02010e13          	addi	t3,sp,32
800010e8:	0ff87893          	zext.b	a7,a6
800010ec:	00289913          	slli	s2,a7,0x2
800010f0:	012e0eb3          	add	t4,t3,s2
800010f4:	febeaa23          	sw	a1,-12(t4)
C:\Users\zzh\NucleiStudio_workspace\nice_ddr200\Debug/../application/insn.c:12
  for (i = 0; i < ROW_LEN; i++)
800010f8:	00214f03          	lbu	t5,2(sp)
800010fc:	001f0f93          	addi	t6,t5,1
80001100:	0ffff793          	zext.b	a5,t6
80001104:	00f10123          	sb	a5,2(sp)
80001108:	00214083          	lbu	ra,2(sp)
8000110c:	0ff0f713          	zext.b	a4,ra
80001110:	e8e6f4e3          	bgeu	a3,a4,80000f98 <normal_case+0x38>
C:\Users\zzh\NucleiStudio_workspace\nice_ddr200\Debug/../application/insn.c:23
  }
#ifdef _DEBUG_INFO_
  printf ("the element of array is :\n\t");
80001114:	00006517          	auipc	a0,0x6
80001118:	15050513          	addi	a0,a0,336 # 80007264 <__clzsi2+0x3e6>
8000111c:	1bb010ef          	jal	ra,80002ad6 <iprintf>
C:\Users\zzh\NucleiStudio_workspace\nice_ddr200\Debug/../application/insn.c:24
  for (i = 0; i < ROW_LEN; i++) printf("%d\t", array[0][i]); printf("\n\t");
80001120:	00010123          	sb	zero,2(sp)
80001124:	00214683          	lbu	a3,2(sp)
80001128:	4289                	li	t0,2
8000112a:	0ff6f313          	zext.b	t1,a3
8000112e:	0e62e163          	bltu	t0,t1,80001210 <normal_case+0x2b0>
80001132:	00006497          	auipc	s1,0x6
80001136:	14e48493          	addi	s1,s1,334 # 80007280 <__clzsi2+0x402>
8000113a:	4909                	li	s2,2
C:\Users\zzh\NucleiStudio_workspace\nice_ddr200\Debug/../application/insn.c:24 (discriminator 3)
8000113c:	00214383          	lbu	t2,2(sp)
80001140:	8526                	mv	a0,s1
80001142:	0ff3f613          	zext.b	a2,t2
80001146:	00261813          	slli	a6,a2,0x2
8000114a:	010405b3          	add	a1,s0,a6
8000114e:	418c                	lw	a1,0(a1)
80001150:	187010ef          	jal	ra,80002ad6 <iprintf>
80001154:	00214883          	lbu	a7,2(sp)
80001158:	8526                	mv	a0,s1
8000115a:	00188e13          	addi	t3,a7,1
8000115e:	0ffe7e93          	zext.b	t4,t3
80001162:	01d10123          	sb	t4,2(sp)
80001166:	00214f03          	lbu	t5,2(sp)
8000116a:	0fff7f93          	zext.b	t6,t5
8000116e:	0bf96163          	bltu	s2,t6,80001210 <normal_case+0x2b0>
C:\Users\zzh\NucleiStudio_workspace\nice_ddr200\Debug/../application/insn.c:24
80001172:	00214783          	lbu	a5,2(sp)
80001176:	0ff7f093          	zext.b	ra,a5
8000117a:	00209713          	slli	a4,ra,0x2
8000117e:	00e406b3          	add	a3,s0,a4
80001182:	428c                	lw	a1,0(a3)
80001184:	153010ef          	jal	ra,80002ad6 <iprintf>
80001188:	00214283          	lbu	t0,2(sp)
8000118c:	8526                	mv	a0,s1
8000118e:	00128313          	addi	t1,t0,1
80001192:	0ff37393          	zext.b	t2,t1
80001196:	00710123          	sb	t2,2(sp)
8000119a:	00214603          	lbu	a2,2(sp)
8000119e:	0ff67813          	zext.b	a6,a2
800011a2:	07096763          	bltu	s2,a6,80001210 <normal_case+0x2b0>
800011a6:	00214583          	lbu	a1,2(sp)
800011aa:	0ff5f893          	zext.b	a7,a1
800011ae:	00289e13          	slli	t3,a7,0x2
800011b2:	01c40eb3          	add	t4,s0,t3
800011b6:	000ea583          	lw	a1,0(t4)
800011ba:	11d010ef          	jal	ra,80002ad6 <iprintf>
800011be:	00214f03          	lbu	t5,2(sp)
800011c2:	8526                	mv	a0,s1
800011c4:	001f0f93          	addi	t6,t5,1
800011c8:	0ffff793          	zext.b	a5,t6
800011cc:	00f10123          	sb	a5,2(sp)
800011d0:	00214703          	lbu	a4,2(sp)
800011d4:	0ff77693          	zext.b	a3,a4
800011d8:	02d96c63          	bltu	s2,a3,80001210 <normal_case+0x2b0>
800011dc:	00214083          	lbu	ra,2(sp)
800011e0:	0ff0f293          	zext.b	t0,ra
800011e4:	00229313          	slli	t1,t0,0x2
800011e8:	006403b3          	add	t2,s0,t1
800011ec:	0003a583          	lw	a1,0(t2)
800011f0:	0e7010ef          	jal	ra,80002ad6 <iprintf>
800011f4:	00214503          	lbu	a0,2(sp)
800011f8:	00150613          	addi	a2,a0,1
800011fc:	0ff67813          	zext.b	a6,a2
80001200:	01010123          	sb	a6,2(sp)
80001204:	00214583          	lbu	a1,2(sp)
80001208:	0ff5f893          	zext.b	a7,a1
8000120c:	f31978e3          	bgeu	s2,a7,8000113c <normal_case+0x1dc>
80001210:	00006517          	auipc	a0,0x6
80001214:	07450513          	addi	a0,a0,116 # 80007284 <__clzsi2+0x406>
80001218:	0bf010ef          	jal	ra,80002ad6 <iprintf>
C:\Users\zzh\NucleiStudio_workspace\nice_ddr200\Debug/../application/insn.c:25
  for (i = 0; i < ROW_LEN; i++) printf("%d\t", array[1][i]); printf("\n\t");
8000121c:	00010123          	sb	zero,2(sp)
80001220:	00214483          	lbu	s1,2(sp)
80001224:	4909                	li	s2,2
80001226:	0ff4fe13          	zext.b	t3,s1
8000122a:	0fc96163          	bltu	s2,t3,8000130c <normal_case+0x3ac>
8000122e:	00006497          	auipc	s1,0x6
80001232:	05248493          	addi	s1,s1,82 # 80007280 <__clzsi2+0x402>
80001236:	4909                	li	s2,2
C:\Users\zzh\NucleiStudio_workspace\nice_ddr200\Debug/../application/insn.c:25 (discriminator 3)
80001238:	00214e83          	lbu	t4,2(sp)
8000123c:	8526                	mv	a0,s1
8000123e:	0ffeff13          	zext.b	t5,t4
80001242:	002f1f93          	slli	t6,t5,0x2
80001246:	01f407b3          	add	a5,s0,t6
8000124a:	47cc                	lw	a1,12(a5)
8000124c:	08b010ef          	jal	ra,80002ad6 <iprintf>
80001250:	00214703          	lbu	a4,2(sp)
80001254:	8526                	mv	a0,s1
80001256:	00170693          	addi	a3,a4,1
8000125a:	0ff6f293          	zext.b	t0,a3
8000125e:	00510123          	sb	t0,2(sp)
80001262:	00214303          	lbu	t1,2(sp)
80001266:	0ff37393          	zext.b	t2,t1
8000126a:	0a796163          	bltu	s2,t2,8000130c <normal_case+0x3ac>
C:\Users\zzh\NucleiStudio_workspace\nice_ddr200\Debug/../application/insn.c:25
8000126e:	00214083          	lbu	ra,2(sp)
80001272:	0ff0f613          	zext.b	a2,ra
80001276:	00261813          	slli	a6,a2,0x2
8000127a:	010405b3          	add	a1,s0,a6
8000127e:	45cc                	lw	a1,12(a1)
80001280:	057010ef          	jal	ra,80002ad6 <iprintf>
80001284:	00214883          	lbu	a7,2(sp)
80001288:	8526                	mv	a0,s1
8000128a:	00188e13          	addi	t3,a7,1
8000128e:	0ffe7e93          	zext.b	t4,t3
80001292:	01d10123          	sb	t4,2(sp)
80001296:	00214f03          	lbu	t5,2(sp)
8000129a:	0fff7f93          	zext.b	t6,t5
8000129e:	07f96763          	bltu	s2,t6,8000130c <normal_case+0x3ac>
800012a2:	00214783          	lbu	a5,2(sp)
800012a6:	0ff7f713          	zext.b	a4,a5
800012aa:	00271693          	slli	a3,a4,0x2
800012ae:	00d402b3          	add	t0,s0,a3
800012b2:	00c2a583          	lw	a1,12(t0)
800012b6:	021010ef          	jal	ra,80002ad6 <iprintf>
800012ba:	00214303          	lbu	t1,2(sp)
800012be:	8526                	mv	a0,s1
800012c0:	00130393          	addi	t2,t1,1
800012c4:	0ff3f613          	zext.b	a2,t2
800012c8:	00c10123          	sb	a2,2(sp)
800012cc:	00214803          	lbu	a6,2(sp)
800012d0:	0ff87593          	zext.b	a1,a6
800012d4:	02b96c63          	bltu	s2,a1,8000130c <normal_case+0x3ac>
800012d8:	00214083          	lbu	ra,2(sp)
800012dc:	0ff0f893          	zext.b	a7,ra
800012e0:	00289e13          	slli	t3,a7,0x2
800012e4:	01c40eb3          	add	t4,s0,t3
800012e8:	00cea583          	lw	a1,12(t4)
800012ec:	7ea010ef          	jal	ra,80002ad6 <iprintf>
800012f0:	00214503          	lbu	a0,2(sp)
800012f4:	00150f13          	addi	t5,a0,1
800012f8:	0fff7f93          	zext.b	t6,t5
800012fc:	01f10123          	sb	t6,2(sp)
80001300:	00214783          	lbu	a5,2(sp)
80001304:	0ff7f713          	zext.b	a4,a5
80001308:	f2e978e3          	bgeu	s2,a4,80001238 <normal_case+0x2d8>
8000130c:	00006517          	auipc	a0,0x6
80001310:	f7850513          	addi	a0,a0,-136 # 80007284 <__clzsi2+0x406>
80001314:	7c2010ef          	jal	ra,80002ad6 <iprintf>
C:\Users\zzh\NucleiStudio_workspace\nice_ddr200\Debug/../application/insn.c:26
  for (i = 0; i < ROW_LEN; i++) printf("%d\t", array[2][i]); printf("\n\n");
80001318:	00010123          	sb	zero,2(sp)
8000131c:	00214483          	lbu	s1,2(sp)
80001320:	4909                	li	s2,2
80001322:	0ff4f693          	zext.b	a3,s1
80001326:	0ed96163          	bltu	s2,a3,80001408 <normal_case+0x4a8>
8000132a:	00006497          	auipc	s1,0x6
8000132e:	f5648493          	addi	s1,s1,-170 # 80007280 <__clzsi2+0x402>
80001332:	4909                	li	s2,2
C:\Users\zzh\NucleiStudio_workspace\nice_ddr200\Debug/../application/insn.c:26 (discriminator 3)
80001334:	00214283          	lbu	t0,2(sp)
80001338:	8526                	mv	a0,s1
8000133a:	0ff2f313          	zext.b	t1,t0
8000133e:	00231393          	slli	t2,t1,0x2
80001342:	00740633          	add	a2,s0,t2
80001346:	4e0c                	lw	a1,24(a2)
80001348:	78e010ef          	jal	ra,80002ad6 <iprintf>
8000134c:	00214803          	lbu	a6,2(sp)
80001350:	8526                	mv	a0,s1
80001352:	00180593          	addi	a1,a6,1
80001356:	0ff5f893          	zext.b	a7,a1
8000135a:	01110123          	sb	a7,2(sp)
8000135e:	00214e03          	lbu	t3,2(sp)
80001362:	0ffe7e93          	zext.b	t4,t3
80001366:	0bd96163          	bltu	s2,t4,80001408 <normal_case+0x4a8>
C:\Users\zzh\NucleiStudio_workspace\nice_ddr200\Debug/../application/insn.c:26
8000136a:	00214083          	lbu	ra,2(sp)
8000136e:	0ff0ff13          	zext.b	t5,ra
80001372:	002f1f93          	slli	t6,t5,0x2
80001376:	01f407b3          	add	a5,s0,t6
8000137a:	4f8c                	lw	a1,24(a5)
8000137c:	75a010ef          	jal	ra,80002ad6 <iprintf>
80001380:	00214703          	lbu	a4,2(sp)
80001384:	8526                	mv	a0,s1
80001386:	00170693          	addi	a3,a4,1
8000138a:	0ff6f293          	zext.b	t0,a3
8000138e:	00510123          	sb	t0,2(sp)
80001392:	00214303          	lbu	t1,2(sp)
80001396:	0ff37393          	zext.b	t2,t1
8000139a:	06796763          	bltu	s2,t2,80001408 <normal_case+0x4a8>
8000139e:	00214603          	lbu	a2,2(sp)
800013a2:	0ff67813          	zext.b	a6,a2
800013a6:	00281593          	slli	a1,a6,0x2
800013aa:	00b408b3          	add	a7,s0,a1
800013ae:	0188a583          	lw	a1,24(a7)
800013b2:	724010ef          	jal	ra,80002ad6 <iprintf>
800013b6:	00214e03          	lbu	t3,2(sp)
800013ba:	8526                	mv	a0,s1
800013bc:	001e0e93          	addi	t4,t3,1
800013c0:	0ffeff13          	zext.b	t5,t4
800013c4:	01e10123          	sb	t5,2(sp)
800013c8:	00214f83          	lbu	t6,2(sp)
800013cc:	0ffff793          	zext.b	a5,t6
800013d0:	02f96c63          	bltu	s2,a5,80001408 <normal_case+0x4a8>
800013d4:	00214083          	lbu	ra,2(sp)
800013d8:	0ff0f713          	zext.b	a4,ra
800013dc:	00271693          	slli	a3,a4,0x2
800013e0:	00d402b3          	add	t0,s0,a3
800013e4:	0182a583          	lw	a1,24(t0)
800013e8:	6ee010ef          	jal	ra,80002ad6 <iprintf>
800013ec:	00214503          	lbu	a0,2(sp)
800013f0:	00150313          	addi	t1,a0,1
800013f4:	0ff37393          	zext.b	t2,t1
800013f8:	00710123          	sb	t2,2(sp)
800013fc:	00214603          	lbu	a2,2(sp)
80001400:	0ff67813          	zext.b	a6,a2
80001404:	f30978e3          	bgeu	s2,a6,80001334 <normal_case+0x3d4>
80001408:	00006517          	auipc	a0,0x6
8000140c:	be450513          	addi	a0,a0,-1052 # 80006fec <__clzsi2+0x16e>
80001410:	013010ef          	jal	ra,80002c22 <puts>
C:\Users\zzh\NucleiStudio_workspace\nice_ddr200\Debug/../application/insn.c:27
  printf ("the sum of each row is :\n\t\t");
80001414:	00006517          	auipc	a0,0x6
80001418:	e7450513          	addi	a0,a0,-396 # 80007288 <__clzsi2+0x40a>
8000141c:	6ba010ef          	jal	ra,80002ad6 <iprintf>
C:\Users\zzh\NucleiStudio_workspace\nice_ddr200\Debug/../application/insn.c:28
  for (i = 0; i < ROW_LEN; i++) printf("%d\t", row_sum[i]); printf("\n");
80001420:	00010123          	sb	zero,2(sp)
80001424:	00214403          	lbu	s0,2(sp)
80001428:	4489                	li	s1,2
8000142a:	0ff47913          	zext.b	s2,s0
8000142e:	0f24e963          	bltu	s1,s2,80001520 <normal_case+0x5c0>
80001432:	00006417          	auipc	s0,0x6
80001436:	e4e40413          	addi	s0,s0,-434 # 80007280 <__clzsi2+0x402>
8000143a:	4489                	li	s1,2
C:\Users\zzh\NucleiStudio_workspace\nice_ddr200\Debug/../application/insn.c:28 (discriminator 3)
8000143c:	00214583          	lbu	a1,2(sp)
80001440:	02010e93          	addi	t4,sp,32
80001444:	8522                	mv	a0,s0
80001446:	0ff5f893          	zext.b	a7,a1
8000144a:	00289e13          	slli	t3,a7,0x2
8000144e:	01ce8f33          	add	t5,t4,t3
80001452:	ff4f2583          	lw	a1,-12(t5)
80001456:	680010ef          	jal	ra,80002ad6 <iprintf>
8000145a:	00214f83          	lbu	t6,2(sp)
8000145e:	8522                	mv	a0,s0
80001460:	001f8793          	addi	a5,t6,1
80001464:	0ff7f713          	zext.b	a4,a5
80001468:	00e10123          	sb	a4,2(sp)
8000146c:	00214683          	lbu	a3,2(sp)
80001470:	0ff6f293          	zext.b	t0,a3
80001474:	0a54e663          	bltu	s1,t0,80001520 <normal_case+0x5c0>
C:\Users\zzh\NucleiStudio_workspace\nice_ddr200\Debug/../application/insn.c:28
80001478:	00214083          	lbu	ra,2(sp)
8000147c:	1010                	addi	a2,sp,32
8000147e:	0ff0f313          	zext.b	t1,ra
80001482:	00231393          	slli	t2,t1,0x2
80001486:	00760833          	add	a6,a2,t2
8000148a:	ff482583          	lw	a1,-12(a6)
8000148e:	648010ef          	jal	ra,80002ad6 <iprintf>
80001492:	00214903          	lbu	s2,2(sp)
80001496:	8522                	mv	a0,s0
80001498:	00190593          	addi	a1,s2,1
8000149c:	0ff5f893          	zext.b	a7,a1
800014a0:	01110123          	sb	a7,2(sp)
800014a4:	00214e03          	lbu	t3,2(sp)
800014a8:	0ffe7e93          	zext.b	t4,t3
800014ac:	07d4ea63          	bltu	s1,t4,80001520 <normal_case+0x5c0>
800014b0:	00214f03          	lbu	t5,2(sp)
800014b4:	1018                	addi	a4,sp,32
800014b6:	0fff7f93          	zext.b	t6,t5
800014ba:	002f9793          	slli	a5,t6,0x2
800014be:	00f706b3          	add	a3,a4,a5
800014c2:	ff46a583          	lw	a1,-12(a3)
800014c6:	610010ef          	jal	ra,80002ad6 <iprintf>
800014ca:	00214283          	lbu	t0,2(sp)
800014ce:	8522                	mv	a0,s0
800014d0:	00128313          	addi	t1,t0,1
800014d4:	0ff37393          	zext.b	t2,t1
800014d8:	00710123          	sb	t2,2(sp)
800014dc:	00214603          	lbu	a2,2(sp)
800014e0:	0ff67813          	zext.b	a6,a2
800014e4:	0304ee63          	bltu	s1,a6,80001520 <normal_case+0x5c0>
800014e8:	00214083          	lbu	ra,2(sp)
800014ec:	02010893          	addi	a7,sp,32
800014f0:	0ff0f913          	zext.b	s2,ra
800014f4:	00291593          	slli	a1,s2,0x2
800014f8:	00b88e33          	add	t3,a7,a1
800014fc:	ff4e2583          	lw	a1,-12(t3)
80001500:	5d6010ef          	jal	ra,80002ad6 <iprintf>
80001504:	00214503          	lbu	a0,2(sp)
80001508:	00150e93          	addi	t4,a0,1
8000150c:	0ffeff13          	zext.b	t5,t4
80001510:	01e10123          	sb	t5,2(sp)
80001514:	00214f83          	lbu	t6,2(sp)
80001518:	0ffff793          	zext.b	a5,t6
8000151c:	f2f4f0e3          	bgeu	s1,a5,8000143c <normal_case+0x4dc>
80001520:	4529                	li	a0,10
80001522:	5f4010ef          	jal	ra,80002b16 <putchar>
C:\Users\zzh\NucleiStudio_workspace\nice_ddr200\Debug/../application/insn.c:29
  printf ("the sum of each col is :\n\t\t");
80001526:	00006517          	auipc	a0,0x6
8000152a:	d7e50513          	addi	a0,a0,-642 # 800072a4 <__clzsi2+0x426>
8000152e:	5a8010ef          	jal	ra,80002ad6 <iprintf>
C:\Users\zzh\NucleiStudio_workspace\nice_ddr200\Debug/../application/insn.c:30
  for (j = 0; j < COL_LEN; j++) printf("%d\t", col_sum[j]); printf("\n");
80001532:	000101a3          	sb	zero,3(sp)
80001536:	00314403          	lbu	s0,3(sp)
8000153a:	4489                	li	s1,2
8000153c:	0ff47713          	zext.b	a4,s0
80001540:	0ee4ea63          	bltu	s1,a4,80001634 <normal_case+0x6d4>
80001544:	00006917          	auipc	s2,0x6
80001548:	d3c90913          	addi	s2,s2,-708 # 80007280 <__clzsi2+0x402>
8000154c:	4409                	li	s0,2
C:\Users\zzh\NucleiStudio_workspace\nice_ddr200\Debug/../application/insn.c:30 (discriminator 3)
8000154e:	00314683          	lbu	a3,3(sp)
80001552:	02010393          	addi	t2,sp,32
80001556:	854a                	mv	a0,s2
80001558:	0ff6f293          	zext.b	t0,a3
8000155c:	00229313          	slli	t1,t0,0x2
80001560:	00638633          	add	a2,t2,t1
80001564:	fe862583          	lw	a1,-24(a2)
80001568:	56e010ef          	jal	ra,80002ad6 <iprintf>
8000156c:	00314803          	lbu	a6,3(sp)
80001570:	854a                	mv	a0,s2
80001572:	00180593          	addi	a1,a6,1
80001576:	0ff5f893          	zext.b	a7,a1
8000157a:	011101a3          	sb	a7,3(sp)
8000157e:	00314e03          	lbu	t3,3(sp)
80001582:	0ffe7e93          	zext.b	t4,t3
80001586:	0bd46763          	bltu	s0,t4,80001634 <normal_case+0x6d4>
C:\Users\zzh\NucleiStudio_workspace\nice_ddr200\Debug/../application/insn.c:30
8000158a:	00314083          	lbu	ra,3(sp)
8000158e:	101c                	addi	a5,sp,32
80001590:	0ff0ff13          	zext.b	t5,ra
80001594:	002f1f93          	slli	t6,t5,0x2
80001598:	01f784b3          	add	s1,a5,t6
8000159c:	fe84a583          	lw	a1,-24(s1)
800015a0:	536010ef          	jal	ra,80002ad6 <iprintf>
800015a4:	00314703          	lbu	a4,3(sp)
800015a8:	854a                	mv	a0,s2
800015aa:	00170693          	addi	a3,a4,1
800015ae:	0ff6f293          	zext.b	t0,a3
800015b2:	005101a3          	sb	t0,3(sp)
800015b6:	00314303          	lbu	t1,3(sp)
800015ba:	0ff37393          	zext.b	t2,t1
800015be:	06746b63          	bltu	s0,t2,80001634 <normal_case+0x6d4>
800015c2:	00314603          	lbu	a2,3(sp)
800015c6:	02010893          	addi	a7,sp,32
800015ca:	0ff67813          	zext.b	a6,a2
800015ce:	00281593          	slli	a1,a6,0x2
800015d2:	00b88e33          	add	t3,a7,a1
800015d6:	fe8e2583          	lw	a1,-24(t3)
800015da:	4fc010ef          	jal	ra,80002ad6 <iprintf>
800015de:	00314e83          	lbu	t4,3(sp)
800015e2:	854a                	mv	a0,s2
800015e4:	001e8f13          	addi	t5,t4,1
800015e8:	0fff7f93          	zext.b	t6,t5
800015ec:	01f101a3          	sb	t6,3(sp)
800015f0:	00314783          	lbu	a5,3(sp)
800015f4:	0ff7f493          	zext.b	s1,a5
800015f8:	02946e63          	bltu	s0,s1,80001634 <normal_case+0x6d4>
800015fc:	00314083          	lbu	ra,3(sp)
80001600:	02010293          	addi	t0,sp,32
80001604:	0ff0f713          	zext.b	a4,ra
80001608:	00271693          	slli	a3,a4,0x2
8000160c:	00d28333          	add	t1,t0,a3
80001610:	fe832583          	lw	a1,-24(t1)
80001614:	4c2010ef          	jal	ra,80002ad6 <iprintf>
80001618:	00314503          	lbu	a0,3(sp)
8000161c:	00150393          	addi	t2,a0,1
80001620:	0ff3f613          	zext.b	a2,t2
80001624:	00c101a3          	sb	a2,3(sp)
80001628:	00314803          	lbu	a6,3(sp)
8000162c:	0ff87593          	zext.b	a1,a6
80001630:	f0b47fe3          	bgeu	s0,a1,8000154e <normal_case+0x5ee>
80001634:	4529                	li	a0,10
80001636:	4e0010ef          	jal	ra,80002b16 <putchar>
C:\Users\zzh\NucleiStudio_workspace\nice_ddr200\Debug/../application/insn.c:33
#endif
  return 0;
}
8000163a:	50b2                	lw	ra,44(sp)
8000163c:	5422                	lw	s0,40(sp)
8000163e:	5492                	lw	s1,36(sp)
80001640:	5902                	lw	s2,32(sp)
80001642:	4501                	li	a0,0
80001644:	6145                	addi	sp,sp,48
80001646:	8082                	ret
80001648:	0000                	unimp
	...

8000164c <nice_case>:
nice_case():
C:\Users\zzh\NucleiStudio_workspace\nice_ddr200\Debug/../application/insn.c:38


// test case using NICE accelerator.
int nice_case(unsigned int array[ROW_LEN][COL_LEN])
{
8000164c:	7139                	addi	sp,sp,-64
C:\Users\zzh\NucleiStudio_workspace\nice_ddr200\Debug/../application/insn.c:40
  volatile unsigned char i, j;
  volatile unsigned int col_sum[COL_LEN]={0};
8000164e:	c602                	sw	zero,12(sp)
80001650:	c802                	sw	zero,16(sp)
80001652:	ca02                	sw	zero,20(sp)
C:\Users\zzh\NucleiStudio_workspace\nice_ddr200\Debug/../application/insn.c:41
  volatile unsigned int row_sum[ROW_LEN]={0};
80001654:	cc02                	sw	zero,24(sp)
80001656:	ce02                	sw	zero,28(sp)
80001658:	d002                	sw	zero,32(sp)
C:\Users\zzh\NucleiStudio_workspace\nice_ddr200\Debug/../application/insn.c:42
  volatile unsigned int init_buf[3]={0};
8000165a:	d202                	sw	zero,36(sp)
8000165c:	d402                	sw	zero,40(sp)
C:\Users\zzh\NucleiStudio_workspace\nice_ddr200\Debug/../application/insn.c:38
{
8000165e:	dc22                	sw	s0,56(sp)
80001660:	de06                	sw	ra,60(sp)
80001662:	da26                	sw	s1,52(sp)
80001664:	d84a                	sw	s2,48(sp)
80001666:	842a                	mv	s0,a0
C:\Users\zzh\NucleiStudio_workspace\nice_ddr200\Debug/../application/insn.c:42
  volatile unsigned int init_buf[3]={0};
80001668:	d602                	sw	zero,44(sp)
C:\Users\zzh\NucleiStudio_workspace\nice_ddr200\Debug/../application/insn.c:44

  custom_lbuf((int)init_buf);
8000166a:	105c                	addi	a5,sp,36
custom_lbuf():
C:\Users\zzh\NucleiStudio_workspace\nice_ddr200\Debug/../application/insn.h:29
// custom lbuf 
__STATIC_FORCEINLINE void custom_lbuf(int addr)
{
    int zero = 0;
    
    asm volatile (
8000166c:	0207a07b          	0x207a07b
nice_case():
C:\Users\zzh\NucleiStudio_workspace\nice_ddr200\Debug/../application/insn.c:45
  for (i = 0; i < ROW_LEN; i++)
80001670:	00010523          	sb	zero,10(sp)
80001674:	00a14083          	lbu	ra,10(sp)
80001678:	4709                	li	a4,2
8000167a:	0ff0f293          	zext.b	t0,ra
8000167e:	12576f63          	bltu	a4,t0,800017bc <nice_case+0x170>
80001682:	4689                	li	a3,2
C:\Users\zzh\NucleiStudio_workspace\nice_ddr200\Debug/../application/insn.c:47 (discriminator 3)
  {
    row_sum[i] = custom_rowsum((int)array[i]);
80001684:	00a14303          	lbu	t1,10(sp)
80001688:	0ff37393          	zext.b	t2,t1
8000168c:	00139493          	slli	s1,t2,0x1
80001690:	00748533          	add	a0,s1,t2
80001694:	00251593          	slli	a1,a0,0x2
80001698:	00b40633          	add	a2,s0,a1
custom_rowsum():
C:\Users\zzh\NucleiStudio_workspace\nice_ddr200\Debug/../application/insn.h:54 (discriminator 3)
// custom rowsum 
__STATIC_FORCEINLINE int custom_rowsum(int addr)
{
    int rowsum;
    
    asm volatile (
8000169c:	0c06687b          	0xc06687b
nice_case():
C:\Users\zzh\NucleiStudio_workspace\nice_ddr200\Debug/../application/insn.c:47 (discriminator 3)
800016a0:	00a14883          	lbu	a7,10(sp)
800016a4:	03010e93          	addi	t4,sp,48
800016a8:	0ff8f913          	zext.b	s2,a7
800016ac:	00291e13          	slli	t3,s2,0x2
800016b0:	01ce8f33          	add	t5,t4,t3
800016b4:	ff0f2423          	sw	a6,-24(t5)
C:\Users\zzh\NucleiStudio_workspace\nice_ddr200\Debug/../application/insn.c:45 (discriminator 3)
  for (i = 0; i < ROW_LEN; i++)
800016b8:	00a14f83          	lbu	t6,10(sp)
800016bc:	001f8793          	addi	a5,t6,1
800016c0:	0ff7f093          	zext.b	ra,a5
800016c4:	00110523          	sb	ra,10(sp)
800016c8:	00a14703          	lbu	a4,10(sp)
800016cc:	0ff77293          	zext.b	t0,a4
800016d0:	0e56e663          	bltu	a3,t0,800017bc <nice_case+0x170>
C:\Users\zzh\NucleiStudio_workspace\nice_ddr200\Debug/../application/insn.c:47
    row_sum[i] = custom_rowsum((int)array[i]);
800016d4:	00a14303          	lbu	t1,10(sp)
800016d8:	0ff37393          	zext.b	t2,t1
800016dc:	00139493          	slli	s1,t2,0x1
800016e0:	00748533          	add	a0,s1,t2
800016e4:	00251593          	slli	a1,a0,0x2
800016e8:	00b40633          	add	a2,s0,a1
custom_rowsum():
C:\Users\zzh\NucleiStudio_workspace\nice_ddr200\Debug/../application/insn.h:54
800016ec:	0c06687b          	0xc06687b
nice_case():
C:\Users\zzh\NucleiStudio_workspace\nice_ddr200\Debug/../application/insn.c:47
800016f0:	00a14883          	lbu	a7,10(sp)
800016f4:	03010e93          	addi	t4,sp,48
800016f8:	0ff8f913          	zext.b	s2,a7
800016fc:	00291e13          	slli	t3,s2,0x2
80001700:	01ce8f33          	add	t5,t4,t3
80001704:	ff0f2423          	sw	a6,-24(t5)
C:\Users\zzh\NucleiStudio_workspace\nice_ddr200\Debug/../application/insn.c:45
  for (i = 0; i < ROW_LEN; i++)
80001708:	00a14f83          	lbu	t6,10(sp)
8000170c:	001f8793          	addi	a5,t6,1
80001710:	0ff7f093          	zext.b	ra,a5
80001714:	00110523          	sb	ra,10(sp)
80001718:	00a14703          	lbu	a4,10(sp)
8000171c:	0ff77293          	zext.b	t0,a4
80001720:	0856ee63          	bltu	a3,t0,800017bc <nice_case+0x170>
C:\Users\zzh\NucleiStudio_workspace\nice_ddr200\Debug/../application/insn.c:47
    row_sum[i] = custom_rowsum((int)array[i]);
80001724:	00a14303          	lbu	t1,10(sp)
80001728:	0ff37393          	zext.b	t2,t1
8000172c:	00139493          	slli	s1,t2,0x1
80001730:	00748533          	add	a0,s1,t2
80001734:	00251593          	slli	a1,a0,0x2
80001738:	00b40633          	add	a2,s0,a1
custom_rowsum():
C:\Users\zzh\NucleiStudio_workspace\nice_ddr200\Debug/../application/insn.h:54
8000173c:	0c06687b          	0xc06687b
nice_case():
C:\Users\zzh\NucleiStudio_workspace\nice_ddr200\Debug/../application/insn.c:47
80001740:	00a14883          	lbu	a7,10(sp)
80001744:	0ff8f913          	zext.b	s2,a7
80001748:	00291e13          	slli	t3,s2,0x2
8000174c:	01ce8f33          	add	t5,t4,t3
80001750:	ff0f2423          	sw	a6,-24(t5)
C:\Users\zzh\NucleiStudio_workspace\nice_ddr200\Debug/../application/insn.c:45
  for (i = 0; i < ROW_LEN; i++)
80001754:	00a14f83          	lbu	t6,10(sp)
80001758:	001f8793          	addi	a5,t6,1
8000175c:	0ff7f093          	zext.b	ra,a5
80001760:	00110523          	sb	ra,10(sp)
80001764:	00a14703          	lbu	a4,10(sp)
80001768:	0ff77293          	zext.b	t0,a4
8000176c:	0456e863          	bltu	a3,t0,800017bc <nice_case+0x170>
C:\Users\zzh\NucleiStudio_workspace\nice_ddr200\Debug/../application/insn.c:47
    row_sum[i] = custom_rowsum((int)array[i]);
80001770:	00a14303          	lbu	t1,10(sp)
80001774:	0ff37393          	zext.b	t2,t1
80001778:	00139493          	slli	s1,t2,0x1
8000177c:	00748533          	add	a0,s1,t2
80001780:	00251593          	slli	a1,a0,0x2
80001784:	00b40633          	add	a2,s0,a1
custom_rowsum():
C:\Users\zzh\NucleiStudio_workspace\nice_ddr200\Debug/../application/insn.h:54
80001788:	0c06687b          	0xc06687b
nice_case():
C:\Users\zzh\NucleiStudio_workspace\nice_ddr200\Debug/../application/insn.c:47
8000178c:	00a14883          	lbu	a7,10(sp)
80001790:	0ff8f913          	zext.b	s2,a7
80001794:	00291e13          	slli	t3,s2,0x2
80001798:	9ef2                	add	t4,t4,t3
8000179a:	ff0ea423          	sw	a6,-24(t4)
C:\Users\zzh\NucleiStudio_workspace\nice_ddr200\Debug/../application/insn.c:45
  for (i = 0; i < ROW_LEN; i++)
8000179e:	00a14f03          	lbu	t5,10(sp)
800017a2:	001f0f93          	addi	t6,t5,1
800017a6:	0ffff793          	zext.b	a5,t6
800017aa:	00f10523          	sb	a5,10(sp)
800017ae:	00a14083          	lbu	ra,10(sp)
800017b2:	0ff0f713          	zext.b	a4,ra
800017b6:	ece6f7e3          	bgeu	a3,a4,80001684 <nice_case+0x38>
800017ba:	0001                	nop
C:\Users\zzh\NucleiStudio_workspace\nice_ddr200\Debug/../application/insn.c:49
  }
  custom_sbuf((int)col_sum);
800017bc:	0074                	addi	a3,sp,12
custom_sbuf():
C:\Users\zzh\NucleiStudio_workspace\nice_ddr200\Debug/../application/insn.h:41
    asm volatile (
800017be:	0406a07b          	0x406a07b
nice_case():
C:\Users\zzh\NucleiStudio_workspace\nice_ddr200\Debug/../application/insn.c:51
#ifdef _DEBUG_INFO_
  printf ("the element of array is :\n\t");
800017c2:	00006517          	auipc	a0,0x6
800017c6:	aa250513          	addi	a0,a0,-1374 # 80007264 <__clzsi2+0x3e6>
800017ca:	30c010ef          	jal	ra,80002ad6 <iprintf>
C:\Users\zzh\NucleiStudio_workspace\nice_ddr200\Debug/../application/insn.c:52
  for (i = 0; i < ROW_LEN; i++) printf("%d\t", array[0][i]); printf("\n\t");
800017ce:	00010523          	sb	zero,10(sp)
800017d2:	00a14283          	lbu	t0,10(sp)
800017d6:	4309                	li	t1,2
800017d8:	0ff2f393          	zext.b	t2,t0
800017dc:	0e736263          	bltu	t1,t2,800018c0 <nice_case+0x274>
800017e0:	00006497          	auipc	s1,0x6
800017e4:	aa048493          	addi	s1,s1,-1376 # 80007280 <__clzsi2+0x402>
800017e8:	4909                	li	s2,2
C:\Users\zzh\NucleiStudio_workspace\nice_ddr200\Debug/../application/insn.c:52 (discriminator 3)
800017ea:	00a14583          	lbu	a1,10(sp)
800017ee:	8526                	mv	a0,s1
800017f0:	0ff5f613          	zext.b	a2,a1
800017f4:	00261813          	slli	a6,a2,0x2
800017f8:	010408b3          	add	a7,s0,a6
800017fc:	0008a583          	lw	a1,0(a7)
80001800:	2d6010ef          	jal	ra,80002ad6 <iprintf>
80001804:	00a14e03          	lbu	t3,10(sp)
80001808:	8526                	mv	a0,s1
8000180a:	001e0e93          	addi	t4,t3,1
8000180e:	0ffeff13          	zext.b	t5,t4
80001812:	01e10523          	sb	t5,10(sp)
80001816:	00a14f83          	lbu	t6,10(sp)
8000181a:	0ffff793          	zext.b	a5,t6
8000181e:	0af96163          	bltu	s2,a5,800018c0 <nice_case+0x274>
C:\Users\zzh\NucleiStudio_workspace\nice_ddr200\Debug/../application/insn.c:52
80001822:	00a14083          	lbu	ra,10(sp)
80001826:	0ff0f713          	zext.b	a4,ra
8000182a:	00271693          	slli	a3,a4,0x2
8000182e:	00d402b3          	add	t0,s0,a3
80001832:	0002a583          	lw	a1,0(t0)
80001836:	2a0010ef          	jal	ra,80002ad6 <iprintf>
8000183a:	00a14303          	lbu	t1,10(sp)
8000183e:	8526                	mv	a0,s1
80001840:	00130393          	addi	t2,t1,1
80001844:	0ff3f593          	zext.b	a1,t2
80001848:	00b10523          	sb	a1,10(sp)
8000184c:	00a14603          	lbu	a2,10(sp)
80001850:	0ff67813          	zext.b	a6,a2
80001854:	07096663          	bltu	s2,a6,800018c0 <nice_case+0x274>
80001858:	00a14883          	lbu	a7,10(sp)
8000185c:	0ff8fe13          	zext.b	t3,a7
80001860:	002e1e93          	slli	t4,t3,0x2
80001864:	01d40f33          	add	t5,s0,t4
80001868:	000f2583          	lw	a1,0(t5)
8000186c:	26a010ef          	jal	ra,80002ad6 <iprintf>
80001870:	00a14f83          	lbu	t6,10(sp)
80001874:	8526                	mv	a0,s1
80001876:	001f8793          	addi	a5,t6,1
8000187a:	0ff7f713          	zext.b	a4,a5
8000187e:	00e10523          	sb	a4,10(sp)
80001882:	00a14683          	lbu	a3,10(sp)
80001886:	0ff6f293          	zext.b	t0,a3
8000188a:	02596b63          	bltu	s2,t0,800018c0 <nice_case+0x274>
8000188e:	00a14083          	lbu	ra,10(sp)
80001892:	0ff0f313          	zext.b	t1,ra
80001896:	00231393          	slli	t2,t1,0x2
8000189a:	007405b3          	add	a1,s0,t2
8000189e:	418c                	lw	a1,0(a1)
800018a0:	236010ef          	jal	ra,80002ad6 <iprintf>
800018a4:	00a14503          	lbu	a0,10(sp)
800018a8:	00150613          	addi	a2,a0,1
800018ac:	0ff67813          	zext.b	a6,a2
800018b0:	01010523          	sb	a6,10(sp)
800018b4:	00a14883          	lbu	a7,10(sp)
800018b8:	0ff8fe13          	zext.b	t3,a7
800018bc:	f3c977e3          	bgeu	s2,t3,800017ea <nice_case+0x19e>
800018c0:	00006517          	auipc	a0,0x6
800018c4:	9c450513          	addi	a0,a0,-1596 # 80007284 <__clzsi2+0x406>
800018c8:	20e010ef          	jal	ra,80002ad6 <iprintf>
C:\Users\zzh\NucleiStudio_workspace\nice_ddr200\Debug/../application/insn.c:53
  for (i = 0; i < ROW_LEN; i++) printf("%d\t", array[1][i]); printf("\n\t");
800018cc:	00010523          	sb	zero,10(sp)
800018d0:	00a14483          	lbu	s1,10(sp)
800018d4:	4909                	li	s2,2
800018d6:	0ff4fe93          	zext.b	t4,s1
800018da:	0fd96363          	bltu	s2,t4,800019c0 <nice_case+0x374>
800018de:	00006497          	auipc	s1,0x6
800018e2:	9a248493          	addi	s1,s1,-1630 # 80007280 <__clzsi2+0x402>
800018e6:	4909                	li	s2,2
C:\Users\zzh\NucleiStudio_workspace\nice_ddr200\Debug/../application/insn.c:53 (discriminator 3)
800018e8:	00a14f03          	lbu	t5,10(sp)
800018ec:	8526                	mv	a0,s1
800018ee:	0fff7f93          	zext.b	t6,t5
800018f2:	002f9793          	slli	a5,t6,0x2
800018f6:	00f40733          	add	a4,s0,a5
800018fa:	474c                	lw	a1,12(a4)
800018fc:	1da010ef          	jal	ra,80002ad6 <iprintf>
80001900:	00a14683          	lbu	a3,10(sp)
80001904:	8526                	mv	a0,s1
80001906:	00168293          	addi	t0,a3,1
8000190a:	0ff2f313          	zext.b	t1,t0
8000190e:	00610523          	sb	t1,10(sp)
80001912:	00a14383          	lbu	t2,10(sp)
80001916:	0ff3f593          	zext.b	a1,t2
8000191a:	0ab96363          	bltu	s2,a1,800019c0 <nice_case+0x374>
C:\Users\zzh\NucleiStudio_workspace\nice_ddr200\Debug/../application/insn.c:53
8000191e:	00a14083          	lbu	ra,10(sp)
80001922:	0ff0f613          	zext.b	a2,ra
80001926:	00261813          	slli	a6,a2,0x2
8000192a:	010408b3          	add	a7,s0,a6
8000192e:	00c8a583          	lw	a1,12(a7)
80001932:	1a4010ef          	jal	ra,80002ad6 <iprintf>
80001936:	00a14e03          	lbu	t3,10(sp)
8000193a:	8526                	mv	a0,s1
8000193c:	001e0e93          	addi	t4,t3,1
80001940:	0ffeff13          	zext.b	t5,t4
80001944:	01e10523          	sb	t5,10(sp)
80001948:	00a14f83          	lbu	t6,10(sp)
8000194c:	0ffff793          	zext.b	a5,t6
80001950:	06f96863          	bltu	s2,a5,800019c0 <nice_case+0x374>
80001954:	00a14703          	lbu	a4,10(sp)
80001958:	0ff77693          	zext.b	a3,a4
8000195c:	00269293          	slli	t0,a3,0x2
80001960:	00540333          	add	t1,s0,t0
80001964:	00c32583          	lw	a1,12(t1)
80001968:	16e010ef          	jal	ra,80002ad6 <iprintf>
8000196c:	00a14383          	lbu	t2,10(sp)
80001970:	8526                	mv	a0,s1
80001972:	00138593          	addi	a1,t2,1
80001976:	0ff5f613          	zext.b	a2,a1
8000197a:	00c10523          	sb	a2,10(sp)
8000197e:	00a14803          	lbu	a6,10(sp)
80001982:	0ff87893          	zext.b	a7,a6
80001986:	03196d63          	bltu	s2,a7,800019c0 <nice_case+0x374>
8000198a:	00a14083          	lbu	ra,10(sp)
8000198e:	0ff0fe13          	zext.b	t3,ra
80001992:	002e1e93          	slli	t4,t3,0x2
80001996:	01d40f33          	add	t5,s0,t4
8000199a:	00cf2583          	lw	a1,12(t5)
8000199e:	138010ef          	jal	ra,80002ad6 <iprintf>
800019a2:	00a14503          	lbu	a0,10(sp)
800019a6:	00150f93          	addi	t6,a0,1
800019aa:	0ffff793          	zext.b	a5,t6
800019ae:	00f10523          	sb	a5,10(sp)
800019b2:	00a14703          	lbu	a4,10(sp)
800019b6:	0ff77693          	zext.b	a3,a4
800019ba:	f2d977e3          	bgeu	s2,a3,800018e8 <nice_case+0x29c>
800019be:	0001                	nop
800019c0:	00006517          	auipc	a0,0x6
800019c4:	8c450513          	addi	a0,a0,-1852 # 80007284 <__clzsi2+0x406>
800019c8:	10e010ef          	jal	ra,80002ad6 <iprintf>
C:\Users\zzh\NucleiStudio_workspace\nice_ddr200\Debug/../application/insn.c:54
  for (i = 0; i < ROW_LEN; i++) printf("%d\t", array[2][i]); printf("\n\n");
800019cc:	00010523          	sb	zero,10(sp)
800019d0:	00a14483          	lbu	s1,10(sp)
800019d4:	4909                	li	s2,2
800019d6:	0ff4f293          	zext.b	t0,s1
800019da:	0e596163          	bltu	s2,t0,80001abc <nice_case+0x470>
800019de:	00006497          	auipc	s1,0x6
800019e2:	8a248493          	addi	s1,s1,-1886 # 80007280 <__clzsi2+0x402>
800019e6:	4909                	li	s2,2
C:\Users\zzh\NucleiStudio_workspace\nice_ddr200\Debug/../application/insn.c:54 (discriminator 3)
800019e8:	00a14303          	lbu	t1,10(sp)
800019ec:	8526                	mv	a0,s1
800019ee:	0ff37393          	zext.b	t2,t1
800019f2:	00239593          	slli	a1,t2,0x2
800019f6:	00b40633          	add	a2,s0,a1
800019fa:	4e0c                	lw	a1,24(a2)
800019fc:	0da010ef          	jal	ra,80002ad6 <iprintf>
80001a00:	00a14803          	lbu	a6,10(sp)
80001a04:	8526                	mv	a0,s1
80001a06:	00180893          	addi	a7,a6,1
80001a0a:	0ff8fe13          	zext.b	t3,a7
80001a0e:	01c10523          	sb	t3,10(sp)
80001a12:	00a14e83          	lbu	t4,10(sp)
80001a16:	0ffeff13          	zext.b	t5,t4
80001a1a:	0be96163          	bltu	s2,t5,80001abc <nice_case+0x470>
C:\Users\zzh\NucleiStudio_workspace\nice_ddr200\Debug/../application/insn.c:54
80001a1e:	00a14083          	lbu	ra,10(sp)
80001a22:	0ff0ff93          	zext.b	t6,ra
80001a26:	002f9793          	slli	a5,t6,0x2
80001a2a:	00f40733          	add	a4,s0,a5
80001a2e:	4f0c                	lw	a1,24(a4)
80001a30:	0a6010ef          	jal	ra,80002ad6 <iprintf>
80001a34:	00a14683          	lbu	a3,10(sp)
80001a38:	8526                	mv	a0,s1
80001a3a:	00168293          	addi	t0,a3,1
80001a3e:	0ff2f313          	zext.b	t1,t0
80001a42:	00610523          	sb	t1,10(sp)
80001a46:	00a14383          	lbu	t2,10(sp)
80001a4a:	0ff3f593          	zext.b	a1,t2
80001a4e:	06b96763          	bltu	s2,a1,80001abc <nice_case+0x470>
80001a52:	00a14603          	lbu	a2,10(sp)
80001a56:	0ff67813          	zext.b	a6,a2
80001a5a:	00281893          	slli	a7,a6,0x2
80001a5e:	01140e33          	add	t3,s0,a7
80001a62:	018e2583          	lw	a1,24(t3)
80001a66:	070010ef          	jal	ra,80002ad6 <iprintf>
80001a6a:	00a14e83          	lbu	t4,10(sp)
80001a6e:	8526                	mv	a0,s1
80001a70:	001e8f13          	addi	t5,t4,1
80001a74:	0fff7f93          	zext.b	t6,t5
80001a78:	01f10523          	sb	t6,10(sp)
80001a7c:	00a14783          	lbu	a5,10(sp)
80001a80:	0ff7f713          	zext.b	a4,a5
80001a84:	02e96c63          	bltu	s2,a4,80001abc <nice_case+0x470>
80001a88:	00a14083          	lbu	ra,10(sp)
80001a8c:	0ff0f693          	zext.b	a3,ra
80001a90:	00269293          	slli	t0,a3,0x2
80001a94:	00540333          	add	t1,s0,t0
80001a98:	01832583          	lw	a1,24(t1)
80001a9c:	03a010ef          	jal	ra,80002ad6 <iprintf>
80001aa0:	00a14503          	lbu	a0,10(sp)
80001aa4:	00150393          	addi	t2,a0,1
80001aa8:	0ff3f593          	zext.b	a1,t2
80001aac:	00b10523          	sb	a1,10(sp)
80001ab0:	00a14603          	lbu	a2,10(sp)
80001ab4:	0ff67813          	zext.b	a6,a2
80001ab8:	f30978e3          	bgeu	s2,a6,800019e8 <nice_case+0x39c>
80001abc:	00005517          	auipc	a0,0x5
80001ac0:	53050513          	addi	a0,a0,1328 # 80006fec <__clzsi2+0x16e>
80001ac4:	15e010ef          	jal	ra,80002c22 <puts>
C:\Users\zzh\NucleiStudio_workspace\nice_ddr200\Debug/../application/insn.c:55
  printf ("the sum of each row is :\n\t\t");
80001ac8:	00005517          	auipc	a0,0x5
80001acc:	7c050513          	addi	a0,a0,1984 # 80007288 <__clzsi2+0x40a>
80001ad0:	006010ef          	jal	ra,80002ad6 <iprintf>
C:\Users\zzh\NucleiStudio_workspace\nice_ddr200\Debug/../application/insn.c:56
  for (i = 0; i < ROW_LEN; i++) printf("%d\t", row_sum[i]); printf("\n");
80001ad4:	00010523          	sb	zero,10(sp)
80001ad8:	00a14403          	lbu	s0,10(sp)
80001adc:	4489                	li	s1,2
80001ade:	0ff47913          	zext.b	s2,s0
80001ae2:	0f24e963          	bltu	s1,s2,80001bd4 <nice_case+0x588>
80001ae6:	00005417          	auipc	s0,0x5
80001aea:	79a40413          	addi	s0,s0,1946 # 80007280 <__clzsi2+0x402>
80001aee:	4489                	li	s1,2
C:\Users\zzh\NucleiStudio_workspace\nice_ddr200\Debug/../application/insn.c:56 (discriminator 3)
80001af0:	00a14883          	lbu	a7,10(sp)
80001af4:	03010f13          	addi	t5,sp,48
80001af8:	8522                	mv	a0,s0
80001afa:	0ff8fe13          	zext.b	t3,a7
80001afe:	002e1e93          	slli	t4,t3,0x2
80001b02:	01df0fb3          	add	t6,t5,t4
80001b06:	fe8fa583          	lw	a1,-24(t6)
80001b0a:	7cd000ef          	jal	ra,80002ad6 <iprintf>
80001b0e:	00a14783          	lbu	a5,10(sp)
80001b12:	8522                	mv	a0,s0
80001b14:	00178713          	addi	a4,a5,1
80001b18:	0ff77693          	zext.b	a3,a4
80001b1c:	00d10523          	sb	a3,10(sp)
80001b20:	00a14283          	lbu	t0,10(sp)
80001b24:	0ff2f313          	zext.b	t1,t0
80001b28:	0a64e663          	bltu	s1,t1,80001bd4 <nice_case+0x588>
C:\Users\zzh\NucleiStudio_workspace\nice_ddr200\Debug/../application/insn.c:56
80001b2c:	00a14083          	lbu	ra,10(sp)
80001b30:	1810                	addi	a2,sp,48
80001b32:	0ff0f393          	zext.b	t2,ra
80001b36:	00239593          	slli	a1,t2,0x2
80001b3a:	00b60833          	add	a6,a2,a1
80001b3e:	fe882583          	lw	a1,-24(a6)
80001b42:	795000ef          	jal	ra,80002ad6 <iprintf>
80001b46:	00a14903          	lbu	s2,10(sp)
80001b4a:	8522                	mv	a0,s0
80001b4c:	00190893          	addi	a7,s2,1
80001b50:	0ff8fe13          	zext.b	t3,a7
80001b54:	01c10523          	sb	t3,10(sp)
80001b58:	00a14e83          	lbu	t4,10(sp)
80001b5c:	0ffeff13          	zext.b	t5,t4
80001b60:	07e4ea63          	bltu	s1,t5,80001bd4 <nice_case+0x588>
80001b64:	00a14f83          	lbu	t6,10(sp)
80001b68:	1818                	addi	a4,sp,48
80001b6a:	0ffff793          	zext.b	a5,t6
80001b6e:	00279693          	slli	a3,a5,0x2
80001b72:	00d702b3          	add	t0,a4,a3
80001b76:	fe82a583          	lw	a1,-24(t0)
80001b7a:	75d000ef          	jal	ra,80002ad6 <iprintf>
80001b7e:	00a14303          	lbu	t1,10(sp)
80001b82:	8522                	mv	a0,s0
80001b84:	00130393          	addi	t2,t1,1
80001b88:	0ff3f593          	zext.b	a1,t2
80001b8c:	00b10523          	sb	a1,10(sp)
80001b90:	00a14603          	lbu	a2,10(sp)
80001b94:	0ff67813          	zext.b	a6,a2
80001b98:	0304ee63          	bltu	s1,a6,80001bd4 <nice_case+0x588>
80001b9c:	00a14083          	lbu	ra,10(sp)
80001ba0:	03010e13          	addi	t3,sp,48
80001ba4:	0ff0f913          	zext.b	s2,ra
80001ba8:	00291893          	slli	a7,s2,0x2
80001bac:	011e0eb3          	add	t4,t3,a7
80001bb0:	fe8ea583          	lw	a1,-24(t4)
80001bb4:	723000ef          	jal	ra,80002ad6 <iprintf>
80001bb8:	00a14503          	lbu	a0,10(sp)
80001bbc:	00150f13          	addi	t5,a0,1
80001bc0:	0fff7f93          	zext.b	t6,t5
80001bc4:	01f10523          	sb	t6,10(sp)
80001bc8:	00a14783          	lbu	a5,10(sp)
80001bcc:	0ff7f693          	zext.b	a3,a5
80001bd0:	f2d4f0e3          	bgeu	s1,a3,80001af0 <nice_case+0x4a4>
80001bd4:	4529                	li	a0,10
80001bd6:	741000ef          	jal	ra,80002b16 <putchar>
C:\Users\zzh\NucleiStudio_workspace\nice_ddr200\Debug/../application/insn.c:57
  printf ("the sum of each col is :\n\t\t");
80001bda:	00005517          	auipc	a0,0x5
80001bde:	6ca50513          	addi	a0,a0,1738 # 800072a4 <__clzsi2+0x426>
80001be2:	6f5000ef          	jal	ra,80002ad6 <iprintf>
C:\Users\zzh\NucleiStudio_workspace\nice_ddr200\Debug/../application/insn.c:58
  for (j = 0; j < COL_LEN; j++) printf("%d\t", col_sum[j]); printf("\n");
80001be6:	000105a3          	sb	zero,11(sp)
80001bea:	00b14403          	lbu	s0,11(sp)
80001bee:	4489                	li	s1,2
80001bf0:	0ff47713          	zext.b	a4,s0
80001bf4:	0ee4e963          	bltu	s1,a4,80001ce6 <nice_case+0x69a>
80001bf8:	00005917          	auipc	s2,0x5
80001bfc:	68890913          	addi	s2,s2,1672 # 80007280 <__clzsi2+0x402>
80001c00:	4409                	li	s0,2
C:\Users\zzh\NucleiStudio_workspace\nice_ddr200\Debug/../application/insn.c:58 (discriminator 3)
80001c02:	00b14283          	lbu	t0,11(sp)
80001c06:	180c                	addi	a1,sp,48
80001c08:	854a                	mv	a0,s2
80001c0a:	0ff2f313          	zext.b	t1,t0
80001c0e:	00231393          	slli	t2,t1,0x2
80001c12:	00758633          	add	a2,a1,t2
80001c16:	fdc62583          	lw	a1,-36(a2)
80001c1a:	6bd000ef          	jal	ra,80002ad6 <iprintf>
80001c1e:	00b14803          	lbu	a6,11(sp)
80001c22:	854a                	mv	a0,s2
80001c24:	00180893          	addi	a7,a6,1
80001c28:	0ff8fe13          	zext.b	t3,a7
80001c2c:	01c105a3          	sb	t3,11(sp)
80001c30:	00b14e83          	lbu	t4,11(sp)
80001c34:	0ffeff13          	zext.b	t5,t4
80001c38:	0be46763          	bltu	s0,t5,80001ce6 <nice_case+0x69a>
C:\Users\zzh\NucleiStudio_workspace\nice_ddr200\Debug/../application/insn.c:58
80001c3c:	00b14083          	lbu	ra,11(sp)
80001c40:	1814                	addi	a3,sp,48
80001c42:	0ff0ff93          	zext.b	t6,ra
80001c46:	002f9793          	slli	a5,t6,0x2
80001c4a:	00f684b3          	add	s1,a3,a5
80001c4e:	fdc4a583          	lw	a1,-36(s1)
80001c52:	685000ef          	jal	ra,80002ad6 <iprintf>
80001c56:	00b14703          	lbu	a4,11(sp)
80001c5a:	854a                	mv	a0,s2
80001c5c:	00170293          	addi	t0,a4,1
80001c60:	0ff2f313          	zext.b	t1,t0
80001c64:	006105a3          	sb	t1,11(sp)
80001c68:	00b14383          	lbu	t2,11(sp)
80001c6c:	0ff3f593          	zext.b	a1,t2
80001c70:	06b46b63          	bltu	s0,a1,80001ce6 <nice_case+0x69a>
80001c74:	00b14603          	lbu	a2,11(sp)
80001c78:	03010e13          	addi	t3,sp,48
80001c7c:	0ff67813          	zext.b	a6,a2
80001c80:	00281893          	slli	a7,a6,0x2
80001c84:	011e0eb3          	add	t4,t3,a7
80001c88:	fdcea583          	lw	a1,-36(t4)
80001c8c:	64b000ef          	jal	ra,80002ad6 <iprintf>
80001c90:	00b14f03          	lbu	t5,11(sp)
80001c94:	854a                	mv	a0,s2
80001c96:	001f0f93          	addi	t6,t5,1
80001c9a:	0ffff793          	zext.b	a5,t6
80001c9e:	00f105a3          	sb	a5,11(sp)
80001ca2:	00b14683          	lbu	a3,11(sp)
80001ca6:	0ff6f493          	zext.b	s1,a3
80001caa:	02946e63          	bltu	s0,s1,80001ce6 <nice_case+0x69a>
80001cae:	00b14083          	lbu	ra,11(sp)
80001cb2:	03010313          	addi	t1,sp,48
80001cb6:	0ff0f713          	zext.b	a4,ra
80001cba:	00271293          	slli	t0,a4,0x2
80001cbe:	005303b3          	add	t2,t1,t0
80001cc2:	fdc3a583          	lw	a1,-36(t2)
80001cc6:	611000ef          	jal	ra,80002ad6 <iprintf>
80001cca:	00b14503          	lbu	a0,11(sp)
80001cce:	00150593          	addi	a1,a0,1
80001cd2:	0ff5f613          	zext.b	a2,a1
80001cd6:	00c105a3          	sb	a2,11(sp)
80001cda:	00b14803          	lbu	a6,11(sp)
80001cde:	0ff87893          	zext.b	a7,a6
80001ce2:	f31470e3          	bgeu	s0,a7,80001c02 <nice_case+0x5b6>
80001ce6:	4529                	li	a0,10
80001ce8:	62f000ef          	jal	ra,80002b16 <putchar>
C:\Users\zzh\NucleiStudio_workspace\nice_ddr200\Debug/../application/insn.c:61
#endif
  return 0;
}
80001cec:	50f2                	lw	ra,60(sp)
80001cee:	5462                	lw	s0,56(sp)
80001cf0:	54d2                	lw	s1,52(sp)
80001cf2:	5942                	lw	s2,48(sp)
80001cf4:	4501                	li	a0,0
80001cf6:	6121                	addi	sp,sp,64
80001cf8:	8082                	ret
	...

80001cfc <__udivdi3>:
__udivdi3():
/home/xl_ci/toolchain/riscv-gnu-toolchain/riscv-gcc/libgcc/libgcc2.c:1319
80001cfc:	88aa                	mv	a7,a0
80001cfe:	87ae                	mv	a5,a1
__udivmoddi4():
/home/xl_ci/toolchain/riscv-gnu-toolchain/riscv-gcc/libgcc/libgcc2.c:1024
80001d00:	8832                	mv	a6,a2
/home/xl_ci/toolchain/riscv-gnu-toolchain/riscv-gcc/libgcc/libgcc2.c:1025
80001d02:	8536                	mv	a0,a3
/home/xl_ci/toolchain/riscv-gnu-toolchain/riscv-gcc/libgcc/libgcc2.c:1026
80001d04:	8346                	mv	t1,a7
/home/xl_ci/toolchain/riscv-gnu-toolchain/riscv-gcc/libgcc/libgcc2.c:1064
80001d06:	20069663          	bnez	a3,80001f12 <__udivdi3+0x216>
/home/xl_ci/toolchain/riscv-gnu-toolchain/riscv-gcc/libgcc/libgcc2.c:1066
80001d0a:	00005697          	auipc	a3,0x5
80001d0e:	5b668693          	addi	a3,a3,1462 # 800072c0 <__clz_tab>
80001d12:	0ac5ff63          	bgeu	a1,a2,80001dd0 <__udivdi3+0xd4>
/home/xl_ci/toolchain/riscv-gnu-toolchain/riscv-gcc/libgcc/libgcc2.c:1070
80001d16:	6741                	lui	a4,0x10
80001d18:	0ae67563          	bgeu	a2,a4,80001dc2 <__udivdi3+0xc6>
80001d1c:	0ff00713          	li	a4,255
80001d20:	00c73733          	sltu	a4,a4,a2
80001d24:	070e                	slli	a4,a4,0x3
80001d26:	00e65533          	srl	a0,a2,a4
80001d2a:	96aa                	add	a3,a3,a0
80001d2c:	0006c683          	lbu	a3,0(a3)
80001d30:	02000513          	li	a0,32
80001d34:	9736                	add	a4,a4,a3
80001d36:	40e506b3          	sub	a3,a0,a4
/home/xl_ci/toolchain/riscv-gnu-toolchain/riscv-gcc/libgcc/libgcc2.c:1072
80001d3a:	00e50b63          	beq	a0,a4,80001d50 <__udivdi3+0x54>
/home/xl_ci/toolchain/riscv-gnu-toolchain/riscv-gcc/libgcc/libgcc2.c:1078
80001d3e:	00d795b3          	sll	a1,a5,a3
80001d42:	00e8d733          	srl	a4,a7,a4
/home/xl_ci/toolchain/riscv-gnu-toolchain/riscv-gcc/libgcc/libgcc2.c:1077
80001d46:	00d61833          	sll	a6,a2,a3
/home/xl_ci/toolchain/riscv-gnu-toolchain/riscv-gcc/libgcc/libgcc2.c:1078
80001d4a:	8dd9                	or	a1,a1,a4
/home/xl_ci/toolchain/riscv-gnu-toolchain/riscv-gcc/libgcc/libgcc2.c:1079
80001d4c:	00d89333          	sll	t1,a7,a3
/home/xl_ci/toolchain/riscv-gnu-toolchain/riscv-gcc/libgcc/libgcc2.c:1082
80001d50:	01085893          	srli	a7,a6,0x10
80001d54:	0315d6b3          	divu	a3,a1,a7
80001d58:	01081613          	slli	a2,a6,0x10
80001d5c:	8241                	srli	a2,a2,0x10
80001d5e:	01035793          	srli	a5,t1,0x10
80001d62:	0315f733          	remu	a4,a1,a7
80001d66:	8536                	mv	a0,a3
80001d68:	02d605b3          	mul	a1,a2,a3
80001d6c:	0742                	slli	a4,a4,0x10
80001d6e:	8fd9                	or	a5,a5,a4
80001d70:	00b7fc63          	bgeu	a5,a1,80001d88 <__udivdi3+0x8c>
80001d74:	97c2                	add	a5,a5,a6
80001d76:	fff68513          	addi	a0,a3,-1
80001d7a:	0107e763          	bltu	a5,a6,80001d88 <__udivdi3+0x8c>
80001d7e:	00b7f563          	bgeu	a5,a1,80001d88 <__udivdi3+0x8c>
80001d82:	ffe68513          	addi	a0,a3,-2
80001d86:	97c2                	add	a5,a5,a6
80001d88:	8f8d                	sub	a5,a5,a1
80001d8a:	0317f733          	remu	a4,a5,a7
80001d8e:	0342                	slli	t1,t1,0x10
80001d90:	01035313          	srli	t1,t1,0x10
80001d94:	0317d7b3          	divu	a5,a5,a7
80001d98:	0742                	slli	a4,a4,0x10
80001d9a:	00676333          	or	t1,a4,t1
80001d9e:	02f606b3          	mul	a3,a2,a5
80001da2:	863e                	mv	a2,a5
80001da4:	00d37b63          	bgeu	t1,a3,80001dba <__udivdi3+0xbe>
80001da8:	9342                	add	t1,t1,a6
80001daa:	fff78613          	addi	a2,a5,-1
80001dae:	01036663          	bltu	t1,a6,80001dba <__udivdi3+0xbe>
80001db2:	00d37463          	bgeu	t1,a3,80001dba <__udivdi3+0xbe>
80001db6:	ffe78613          	addi	a2,a5,-2
80001dba:	0542                	slli	a0,a0,0x10
80001dbc:	8d51                	or	a0,a0,a2
/home/xl_ci/toolchain/riscv-gnu-toolchain/riscv-gcc/libgcc/libgcc2.c:1209
80001dbe:	4581                	li	a1,0
80001dc0:	a85d                	j	80001e76 <__udivdi3+0x17a>
/home/xl_ci/toolchain/riscv-gnu-toolchain/riscv-gcc/libgcc/libgcc2.c:1070
80001dc2:	01000537          	lui	a0,0x1000
80001dc6:	4741                	li	a4,16
80001dc8:	f4a66fe3          	bltu	a2,a0,80001d26 <__udivdi3+0x2a>
80001dcc:	4761                	li	a4,24
80001dce:	bfa1                	j	80001d26 <__udivdi3+0x2a>
/home/xl_ci/toolchain/riscv-gnu-toolchain/riscv-gcc/libgcc/libgcc2.c:1091
80001dd0:	e601                	bnez	a2,80001dd8 <__udivdi3+0xdc>
/home/xl_ci/toolchain/riscv-gnu-toolchain/riscv-gcc/libgcc/libgcc2.c:1092
80001dd2:	4705                	li	a4,1
80001dd4:	02c75833          	divu	a6,a4,a2
/home/xl_ci/toolchain/riscv-gnu-toolchain/riscv-gcc/libgcc/libgcc2.c:1094
80001dd8:	6741                	lui	a4,0x10
80001dda:	08e87f63          	bgeu	a6,a4,80001e78 <__udivdi3+0x17c>
80001dde:	0ff00713          	li	a4,255
80001de2:	01077363          	bgeu	a4,a6,80001de8 <__udivdi3+0xec>
80001de6:	4521                	li	a0,8
80001de8:	00a85733          	srl	a4,a6,a0
80001dec:	96ba                	add	a3,a3,a4
80001dee:	0006c703          	lbu	a4,0(a3)
80001df2:	02000613          	li	a2,32
80001df6:	972a                	add	a4,a4,a0
80001df8:	40e606b3          	sub	a3,a2,a4
/home/xl_ci/toolchain/riscv-gnu-toolchain/riscv-gcc/libgcc/libgcc2.c:1096
80001dfc:	08e61563          	bne	a2,a4,80001e86 <__udivdi3+0x18a>
/home/xl_ci/toolchain/riscv-gnu-toolchain/riscv-gcc/libgcc/libgcc2.c:1105
80001e00:	410787b3          	sub	a5,a5,a6
/home/xl_ci/toolchain/riscv-gnu-toolchain/riscv-gcc/libgcc/libgcc2.c:1106
80001e04:	4585                	li	a1,1
/home/xl_ci/toolchain/riscv-gnu-toolchain/riscv-gcc/libgcc/libgcc2.c:1124
80001e06:	01085893          	srli	a7,a6,0x10
80001e0a:	01081613          	slli	a2,a6,0x10
80001e0e:	8241                	srli	a2,a2,0x10
80001e10:	01035713          	srli	a4,t1,0x10
80001e14:	0317f6b3          	remu	a3,a5,a7
80001e18:	0317d7b3          	divu	a5,a5,a7
80001e1c:	06c2                	slli	a3,a3,0x10
80001e1e:	8f55                	or	a4,a4,a3
80001e20:	02f60e33          	mul	t3,a2,a5
80001e24:	853e                	mv	a0,a5
80001e26:	01c77c63          	bgeu	a4,t3,80001e3e <__udivdi3+0x142>
80001e2a:	9742                	add	a4,a4,a6
80001e2c:	fff78513          	addi	a0,a5,-1
80001e30:	01076763          	bltu	a4,a6,80001e3e <__udivdi3+0x142>
80001e34:	01c77563          	bgeu	a4,t3,80001e3e <__udivdi3+0x142>
80001e38:	ffe78513          	addi	a0,a5,-2
80001e3c:	9742                	add	a4,a4,a6
80001e3e:	41c70733          	sub	a4,a4,t3
80001e42:	031777b3          	remu	a5,a4,a7
80001e46:	0342                	slli	t1,t1,0x10
80001e48:	01035313          	srli	t1,t1,0x10
80001e4c:	03175733          	divu	a4,a4,a7
80001e50:	07c2                	slli	a5,a5,0x10
80001e52:	0067e333          	or	t1,a5,t1
80001e56:	02e606b3          	mul	a3,a2,a4
80001e5a:	863a                	mv	a2,a4
80001e5c:	00d37b63          	bgeu	t1,a3,80001e72 <__udivdi3+0x176>
80001e60:	9342                	add	t1,t1,a6
80001e62:	fff70613          	addi	a2,a4,-1 # ffff <__stack_size+0xf7ff>
80001e66:	01036663          	bltu	t1,a6,80001e72 <__udivdi3+0x176>
80001e6a:	00d37463          	bgeu	t1,a3,80001e72 <__udivdi3+0x176>
80001e6e:	ffe70613          	addi	a2,a4,-2
80001e72:	0542                	slli	a0,a0,0x10
80001e74:	8d51                	or	a0,a0,a2
__udivdi3():
/home/xl_ci/toolchain/riscv-gnu-toolchain/riscv-gcc/libgcc/libgcc2.c:1321
80001e76:	8082                	ret
__udivmoddi4():
/home/xl_ci/toolchain/riscv-gnu-toolchain/riscv-gcc/libgcc/libgcc2.c:1094
80001e78:	01000737          	lui	a4,0x1000
80001e7c:	4541                	li	a0,16
80001e7e:	f6e865e3          	bltu	a6,a4,80001de8 <__udivdi3+0xec>
80001e82:	4561                	li	a0,24
80001e84:	b795                	j	80001de8 <__udivdi3+0xec>
/home/xl_ci/toolchain/riscv-gnu-toolchain/riscv-gcc/libgcc/libgcc2.c:1114
80001e86:	00d81833          	sll	a6,a6,a3
/home/xl_ci/toolchain/riscv-gnu-toolchain/riscv-gcc/libgcc/libgcc2.c:1115
80001e8a:	00e7d533          	srl	a0,a5,a4
/home/xl_ci/toolchain/riscv-gnu-toolchain/riscv-gcc/libgcc/libgcc2.c:1117
80001e8e:	00d89333          	sll	t1,a7,a3
/home/xl_ci/toolchain/riscv-gnu-toolchain/riscv-gcc/libgcc/libgcc2.c:1116
80001e92:	00d797b3          	sll	a5,a5,a3
80001e96:	00e8d733          	srl	a4,a7,a4
/home/xl_ci/toolchain/riscv-gnu-toolchain/riscv-gcc/libgcc/libgcc2.c:1119
80001e9a:	01085893          	srli	a7,a6,0x10
/home/xl_ci/toolchain/riscv-gnu-toolchain/riscv-gcc/libgcc/libgcc2.c:1116
80001e9e:	00f76633          	or	a2,a4,a5
/home/xl_ci/toolchain/riscv-gnu-toolchain/riscv-gcc/libgcc/libgcc2.c:1119
80001ea2:	03157733          	remu	a4,a0,a7
80001ea6:	01081793          	slli	a5,a6,0x10
80001eaa:	83c1                	srli	a5,a5,0x10
80001eac:	01065593          	srli	a1,a2,0x10
80001eb0:	03155533          	divu	a0,a0,a7
80001eb4:	0742                	slli	a4,a4,0x10
80001eb6:	8f4d                	or	a4,a4,a1
80001eb8:	02a786b3          	mul	a3,a5,a0
80001ebc:	85aa                	mv	a1,a0
80001ebe:	00d77c63          	bgeu	a4,a3,80001ed6 <__udivdi3+0x1da>
80001ec2:	9742                	add	a4,a4,a6
80001ec4:	fff50593          	addi	a1,a0,-1 # ffffff <__stack_size+0xfff7ff>
80001ec8:	01076763          	bltu	a4,a6,80001ed6 <__udivdi3+0x1da>
80001ecc:	00d77563          	bgeu	a4,a3,80001ed6 <__udivdi3+0x1da>
80001ed0:	ffe50593          	addi	a1,a0,-2
80001ed4:	9742                	add	a4,a4,a6
80001ed6:	40d706b3          	sub	a3,a4,a3
80001eda:	0316f733          	remu	a4,a3,a7
80001ede:	0642                	slli	a2,a2,0x10
80001ee0:	8241                	srli	a2,a2,0x10
80001ee2:	0316d6b3          	divu	a3,a3,a7
80001ee6:	0742                	slli	a4,a4,0x10
80001ee8:	02d78533          	mul	a0,a5,a3
80001eec:	00c767b3          	or	a5,a4,a2
80001ef0:	8736                	mv	a4,a3
80001ef2:	00a7fc63          	bgeu	a5,a0,80001f0a <__udivdi3+0x20e>
80001ef6:	97c2                	add	a5,a5,a6
80001ef8:	fff68713          	addi	a4,a3,-1
80001efc:	0107e763          	bltu	a5,a6,80001f0a <__udivdi3+0x20e>
80001f00:	00a7f563          	bgeu	a5,a0,80001f0a <__udivdi3+0x20e>
80001f04:	ffe68713          	addi	a4,a3,-2
80001f08:	97c2                	add	a5,a5,a6
80001f0a:	05c2                	slli	a1,a1,0x10
80001f0c:	8f89                	sub	a5,a5,a0
80001f0e:	8dd9                	or	a1,a1,a4
80001f10:	bddd                	j	80001e06 <__udivdi3+0x10a>
/home/xl_ci/toolchain/riscv-gnu-toolchain/riscv-gcc/libgcc/libgcc2.c:1140
80001f12:	14d5e263          	bltu	a1,a3,80002056 <__udivdi3+0x35a>
/home/xl_ci/toolchain/riscv-gnu-toolchain/riscv-gcc/libgcc/libgcc2.c:1159
80001f16:	6741                	lui	a4,0x10
80001f18:	02e6ff63          	bgeu	a3,a4,80001f56 <__udivdi3+0x25a>
80001f1c:	0ff00713          	li	a4,255
80001f20:	00d735b3          	sltu	a1,a4,a3
80001f24:	058e                	slli	a1,a1,0x3
80001f26:	00b6d533          	srl	a0,a3,a1
80001f2a:	00005717          	auipc	a4,0x5
80001f2e:	39670713          	addi	a4,a4,918 # 800072c0 <__clz_tab>
80001f32:	972a                	add	a4,a4,a0
80001f34:	00074703          	lbu	a4,0(a4)
80001f38:	02000513          	li	a0,32
80001f3c:	972e                	add	a4,a4,a1
80001f3e:	40e505b3          	sub	a1,a0,a4
/home/xl_ci/toolchain/riscv-gnu-toolchain/riscv-gcc/libgcc/libgcc2.c:1160
80001f42:	02e51163          	bne	a0,a4,80001f64 <__udivdi3+0x268>
/home/xl_ci/toolchain/riscv-gnu-toolchain/riscv-gcc/libgcc/libgcc2.c:1172
80001f46:	4505                	li	a0,1
/home/xl_ci/toolchain/riscv-gnu-toolchain/riscv-gcc/libgcc/libgcc2.c:1170
80001f48:	f2f6e7e3          	bltu	a3,a5,80001e76 <__udivdi3+0x17a>
80001f4c:	00c8b533          	sltu	a0,a7,a2
80001f50:	00154513          	xori	a0,a0,1
80001f54:	b70d                	j	80001e76 <__udivdi3+0x17a>
/home/xl_ci/toolchain/riscv-gnu-toolchain/riscv-gcc/libgcc/libgcc2.c:1159
80001f56:	01000737          	lui	a4,0x1000
80001f5a:	45c1                	li	a1,16
80001f5c:	fce6e5e3          	bltu	a3,a4,80001f26 <__udivdi3+0x22a>
80001f60:	45e1                	li	a1,24
80001f62:	b7d1                	j	80001f26 <__udivdi3+0x22a>
/home/xl_ci/toolchain/riscv-gnu-toolchain/riscv-gcc/libgcc/libgcc2.c:1194
80001f64:	00e65833          	srl	a6,a2,a4
80001f68:	00b696b3          	sll	a3,a3,a1
80001f6c:	00d86833          	or	a6,a6,a3
/home/xl_ci/toolchain/riscv-gnu-toolchain/riscv-gcc/libgcc/libgcc2.c:1196
80001f70:	00e7d333          	srl	t1,a5,a4
/home/xl_ci/toolchain/riscv-gnu-toolchain/riscv-gcc/libgcc/libgcc2.c:1200
80001f74:	01085e93          	srli	t4,a6,0x10
80001f78:	03d376b3          	remu	a3,t1,t4
/home/xl_ci/toolchain/riscv-gnu-toolchain/riscv-gcc/libgcc/libgcc2.c:1197
80001f7c:	00b797b3          	sll	a5,a5,a1
80001f80:	00e8d733          	srl	a4,a7,a4
/home/xl_ci/toolchain/riscv-gnu-toolchain/riscv-gcc/libgcc/libgcc2.c:1195
80001f84:	00b61e33          	sll	t3,a2,a1
/home/xl_ci/toolchain/riscv-gnu-toolchain/riscv-gcc/libgcc/libgcc2.c:1197
80001f88:	00f76633          	or	a2,a4,a5
/home/xl_ci/toolchain/riscv-gnu-toolchain/riscv-gcc/libgcc/libgcc2.c:1200
80001f8c:	01081793          	slli	a5,a6,0x10
80001f90:	83c1                	srli	a5,a5,0x10
80001f92:	01065713          	srli	a4,a2,0x10
80001f96:	03d35333          	divu	t1,t1,t4
80001f9a:	06c2                	slli	a3,a3,0x10
80001f9c:	8f55                	or	a4,a4,a3
80001f9e:	02678f33          	mul	t5,a5,t1
80001fa2:	851a                	mv	a0,t1
80001fa4:	01e77c63          	bgeu	a4,t5,80001fbc <__udivdi3+0x2c0>
80001fa8:	9742                	add	a4,a4,a6
80001faa:	fff30513          	addi	a0,t1,-1
80001fae:	01076763          	bltu	a4,a6,80001fbc <__udivdi3+0x2c0>
80001fb2:	01e77563          	bgeu	a4,t5,80001fbc <__udivdi3+0x2c0>
80001fb6:	ffe30513          	addi	a0,t1,-2
80001fba:	9742                	add	a4,a4,a6
80001fbc:	41e70733          	sub	a4,a4,t5
80001fc0:	03d776b3          	remu	a3,a4,t4
80001fc4:	03d75733          	divu	a4,a4,t4
80001fc8:	06c2                	slli	a3,a3,0x10
80001fca:	02e78333          	mul	t1,a5,a4
80001fce:	01061793          	slli	a5,a2,0x10
80001fd2:	83c1                	srli	a5,a5,0x10
80001fd4:	8fd5                	or	a5,a5,a3
80001fd6:	863a                	mv	a2,a4
80001fd8:	0067fc63          	bgeu	a5,t1,80001ff0 <__udivdi3+0x2f4>
80001fdc:	97c2                	add	a5,a5,a6
80001fde:	fff70613          	addi	a2,a4,-1 # ffffff <__stack_size+0xfff7ff>
80001fe2:	0107e763          	bltu	a5,a6,80001ff0 <__udivdi3+0x2f4>
80001fe6:	0067f563          	bgeu	a5,t1,80001ff0 <__udivdi3+0x2f4>
80001fea:	ffe70613          	addi	a2,a4,-2
80001fee:	97c2                	add	a5,a5,a6
80001ff0:	0542                	slli	a0,a0,0x10
/home/xl_ci/toolchain/riscv-gnu-toolchain/riscv-gcc/libgcc/libgcc2.c:1201
80001ff2:	6ec1                	lui	t4,0x10
/home/xl_ci/toolchain/riscv-gnu-toolchain/riscv-gcc/libgcc/libgcc2.c:1200
80001ff4:	8d51                	or	a0,a0,a2
/home/xl_ci/toolchain/riscv-gnu-toolchain/riscv-gcc/libgcc/libgcc2.c:1201
80001ff6:	fffe8693          	addi	a3,t4,-1 # ffff <__stack_size+0xf7ff>
80001ffa:	010e5613          	srli	a2,t3,0x10
80001ffe:	01055813          	srli	a6,a0,0x10
/home/xl_ci/toolchain/riscv-gnu-toolchain/riscv-gcc/libgcc/libgcc2.c:1200
80002002:	406787b3          	sub	a5,a5,t1
/home/xl_ci/toolchain/riscv-gnu-toolchain/riscv-gcc/libgcc/libgcc2.c:1201
80002006:	00d57333          	and	t1,a0,a3
8000200a:	00de76b3          	and	a3,t3,a3
8000200e:	02d30e33          	mul	t3,t1,a3
80002012:	02d806b3          	mul	a3,a6,a3
80002016:	010e5713          	srli	a4,t3,0x10
8000201a:	02c30333          	mul	t1,t1,a2
8000201e:	9336                	add	t1,t1,a3
80002020:	971a                	add	a4,a4,t1
80002022:	02c80833          	mul	a6,a6,a2
80002026:	00d77363          	bgeu	a4,a3,8000202c <__udivdi3+0x330>
8000202a:	9876                	add	a6,a6,t4
8000202c:	01075693          	srli	a3,a4,0x10
80002030:	9836                	add	a6,a6,a3
/home/xl_ci/toolchain/riscv-gnu-toolchain/riscv-gcc/libgcc/libgcc2.c:1203
80002032:	0307e063          	bltu	a5,a6,80002052 <__udivdi3+0x356>
80002036:	d90794e3          	bne	a5,a6,80001dbe <__udivdi3+0xc2>
/home/xl_ci/toolchain/riscv-gnu-toolchain/riscv-gcc/libgcc/libgcc2.c:1201
8000203a:	67c1                	lui	a5,0x10
8000203c:	17fd                	addi	a5,a5,-1
8000203e:	8f7d                	and	a4,a4,a5
80002040:	0742                	slli	a4,a4,0x10
80002042:	00fe7e33          	and	t3,t3,a5
/home/xl_ci/toolchain/riscv-gnu-toolchain/riscv-gcc/libgcc/libgcc2.c:1198
80002046:	00b898b3          	sll	a7,a7,a1
/home/xl_ci/toolchain/riscv-gnu-toolchain/riscv-gcc/libgcc/libgcc2.c:1201
8000204a:	9772                	add	a4,a4,t3
/home/xl_ci/toolchain/riscv-gnu-toolchain/riscv-gcc/libgcc/libgcc2.c:1209
8000204c:	4581                	li	a1,0
/home/xl_ci/toolchain/riscv-gnu-toolchain/riscv-gcc/libgcc/libgcc2.c:1203
8000204e:	e2e8f4e3          	bgeu	a7,a4,80001e76 <__udivdi3+0x17a>
/home/xl_ci/toolchain/riscv-gnu-toolchain/riscv-gcc/libgcc/libgcc2.c:1205
80002052:	157d                	addi	a0,a0,-1
__udivdi3():
/home/xl_ci/toolchain/riscv-gnu-toolchain/riscv-gcc/libgcc/libgcc2.c:1206
80002054:	b3ad                	j	80001dbe <__udivdi3+0xc2>
__udivmoddi4():
/home/xl_ci/toolchain/riscv-gnu-toolchain/riscv-gcc/libgcc/libgcc2.c:1145
80002056:	4581                	li	a1,0
/home/xl_ci/toolchain/riscv-gnu-toolchain/riscv-gcc/libgcc/libgcc2.c:1144
80002058:	4501                	li	a0,0
8000205a:	bd31                	j	80001e76 <__udivdi3+0x17a>

8000205c <atexit>:
atexit():
8000205c:	85aa                	mv	a1,a0
8000205e:	4681                	li	a3,0
80002060:	4601                	li	a2,0
80002062:	4501                	li	a0,0
80002064:	5b70006f          	j	80002e1a <__register_exitproc>

80002068 <__libc_fini_array>:
__libc_fini_array():
80002068:	1141                	addi	sp,sp,-16
8000206a:	c422                	sw	s0,8(sp)
8000206c:	c226                	sw	s1,4(sp)
8000206e:	00006417          	auipc	s0,0x6
80002072:	80640413          	addi	s0,s0,-2042 # 80007874 <__fsymtab_end>
80002076:	00005497          	auipc	s1,0x5
8000207a:	7fe48493          	addi	s1,s1,2046 # 80007874 <__fsymtab_end>
8000207e:	8c05                	sub	s0,s0,s1
80002080:	c606                	sw	ra,12(sp)
80002082:	8409                	srai	s0,s0,0x2
80002084:	e411                	bnez	s0,80002090 <__libc_fini_array+0x28>
80002086:	40b2                	lw	ra,12(sp)
80002088:	4422                	lw	s0,8(sp)
8000208a:	4492                	lw	s1,4(sp)
8000208c:	0141                	addi	sp,sp,16
8000208e:	8082                	ret
80002090:	147d                	addi	s0,s0,-1
80002092:	00241793          	slli	a5,s0,0x2
80002096:	97a6                	add	a5,a5,s1
80002098:	439c                	lw	a5,0(a5)
8000209a:	9782                	jalr	a5
8000209c:	b7e5                	j	80002084 <__libc_fini_array+0x1c>

8000209e <__libc_init_array>:
__libc_init_array():
8000209e:	1141                	addi	sp,sp,-16
800020a0:	c422                	sw	s0,8(sp)
800020a2:	c226                	sw	s1,4(sp)
800020a4:	00005417          	auipc	s0,0x5
800020a8:	7d040413          	addi	s0,s0,2000 # 80007874 <__fsymtab_end>
800020ac:	00005497          	auipc	s1,0x5
800020b0:	7c848493          	addi	s1,s1,1992 # 80007874 <__fsymtab_end>
800020b4:	8c81                	sub	s1,s1,s0
800020b6:	c04a                	sw	s2,0(sp)
800020b8:	c606                	sw	ra,12(sp)
800020ba:	8489                	srai	s1,s1,0x2
800020bc:	4901                	li	s2,0
800020be:	02991563          	bne	s2,s1,800020e8 <__libc_init_array+0x4a>
800020c2:	00005417          	auipc	s0,0x5
800020c6:	7b240413          	addi	s0,s0,1970 # 80007874 <__fsymtab_end>
800020ca:	00005497          	auipc	s1,0x5
800020ce:	7aa48493          	addi	s1,s1,1962 # 80007874 <__fsymtab_end>
800020d2:	8c81                	sub	s1,s1,s0
800020d4:	8489                	srai	s1,s1,0x2
800020d6:	4901                	li	s2,0
800020d8:	00991d63          	bne	s2,s1,800020f2 <__libc_init_array+0x54>
800020dc:	40b2                	lw	ra,12(sp)
800020de:	4422                	lw	s0,8(sp)
800020e0:	4492                	lw	s1,4(sp)
800020e2:	4902                	lw	s2,0(sp)
800020e4:	0141                	addi	sp,sp,16
800020e6:	8082                	ret
800020e8:	401c                	lw	a5,0(s0)
800020ea:	0905                	addi	s2,s2,1
800020ec:	0411                	addi	s0,s0,4
800020ee:	9782                	jalr	a5
800020f0:	b7f9                	j	800020be <__libc_init_array+0x20>
800020f2:	401c                	lw	a5,0(s0)
800020f4:	0905                	addi	s2,s2,1
800020f6:	0411                	addi	s0,s0,4
800020f8:	9782                	jalr	a5
800020fa:	bff9                	j	800020d8 <__libc_init_array+0x3a>

800020fc <__cvt>:
__cvt():
800020fc:	7179                	addi	sp,sp,-48
800020fe:	d422                	sw	s0,40(sp)
80002100:	d04a                	sw	s2,32(sp)
80002102:	cc52                	sw	s4,24(sp)
80002104:	ca56                	sw	s5,20(sp)
80002106:	c85a                	sw	s6,16(sp)
80002108:	d606                	sw	ra,44(sp)
8000210a:	d226                	sw	s1,36(sp)
8000210c:	ce4e                	sw	s3,28(sp)
8000210e:	8b3a                	mv	s6,a4
80002110:	8a2e                	mv	s4,a1
80002112:	8432                	mv	s0,a2
80002114:	8936                	mv	s2,a3
80002116:	8ac2                	mv	s5,a6
80002118:	4701                	li	a4,0
8000211a:	00065863          	bgez	a2,8000212a <__cvt+0x2e>
8000211e:	80000737          	lui	a4,0x80000
80002122:	00c74433          	xor	s0,a4,a2
80002126:	02d00713          	li	a4,45
8000212a:	00e78023          	sb	a4,0(a5) # 10000 <__stack_size+0xf800>
8000212e:	fdf8f493          	andi	s1,a7,-33
80002132:	04600793          	li	a5,70
80002136:	468d                	li	a3,3
80002138:	00f48863          	beq	s1,a5,80002148 <__cvt+0x4c>
8000213c:	04500793          	li	a5,69
80002140:	4689                	li	a3,2
80002142:	00f49363          	bne	s1,a5,80002148 <__cvt+0x4c>
80002146:	0905                	addi	s2,s2,1
80002148:	87d6                	mv	a5,s5
8000214a:	00c10893          	addi	a7,sp,12
8000214e:	00810813          	addi	a6,sp,8
80002152:	874a                	mv	a4,s2
80002154:	85d2                	mv	a1,s4
80002156:	8622                	mv	a2,s0
80002158:	663000ef          	jal	ra,80002fba <_dtoa_r>
8000215c:	04700793          	li	a5,71
80002160:	89aa                	mv	s3,a0
80002162:	00f49563          	bne	s1,a5,8000216c <__cvt+0x70>
80002166:	001b7613          	andi	a2,s6,1
8000216a:	ca29                	beqz	a2,800021bc <__cvt+0xc0>
8000216c:	04600793          	li	a5,70
80002170:	01298b33          	add	s6,s3,s2
80002174:	02f49763          	bne	s1,a5,800021a2 <__cvt+0xa6>
80002178:	0009c703          	lbu	a4,0(s3)
8000217c:	03000793          	li	a5,48
80002180:	00f71e63          	bne	a4,a5,8000219c <__cvt+0xa0>
80002184:	4601                	li	a2,0
80002186:	4681                	li	a3,0
80002188:	8552                	mv	a0,s4
8000218a:	85a2                	mv	a1,s0
8000218c:	555030ef          	jal	ra,80005ee0 <__eqdf2>
80002190:	c511                	beqz	a0,8000219c <__cvt+0xa0>
80002192:	4605                	li	a2,1
80002194:	412606b3          	sub	a3,a2,s2
80002198:	00daa023          	sw	a3,0(s5)
8000219c:	000aa783          	lw	a5,0(s5)
800021a0:	9b3e                	add	s6,s6,a5
800021a2:	4601                	li	a2,0
800021a4:	4681                	li	a3,0
800021a6:	8552                	mv	a0,s4
800021a8:	85a2                	mv	a1,s0
800021aa:	537030ef          	jal	ra,80005ee0 <__eqdf2>
800021ae:	e111                	bnez	a0,800021b2 <__cvt+0xb6>
800021b0:	c65a                	sw	s6,12(sp)
800021b2:	03000713          	li	a4,48
800021b6:	47b2                	lw	a5,12(sp)
800021b8:	0367e263          	bltu	a5,s6,800021dc <__cvt+0xe0>
800021bc:	47b2                	lw	a5,12(sp)
800021be:	5742                	lw	a4,48(sp)
800021c0:	50b2                	lw	ra,44(sp)
800021c2:	5422                	lw	s0,40(sp)
800021c4:	413787b3          	sub	a5,a5,s3
800021c8:	c31c                	sw	a5,0(a4)
800021ca:	5492                	lw	s1,36(sp)
800021cc:	5902                	lw	s2,32(sp)
800021ce:	4a62                	lw	s4,24(sp)
800021d0:	4ad2                	lw	s5,20(sp)
800021d2:	4b42                	lw	s6,16(sp)
800021d4:	854e                	mv	a0,s3
800021d6:	49f2                	lw	s3,28(sp)
800021d8:	6145                	addi	sp,sp,48
800021da:	8082                	ret
800021dc:	00178693          	addi	a3,a5,1
800021e0:	c636                	sw	a3,12(sp)
800021e2:	00e78023          	sb	a4,0(a5)
800021e6:	bfc1                	j	800021b6 <__cvt+0xba>

800021e8 <__exponent>:
__exponent():
800021e8:	00c50023          	sb	a2,0(a0)
800021ec:	00250793          	addi	a5,a0,2
800021f0:	02b00713          	li	a4,43
800021f4:	0005d663          	bgez	a1,80002200 <__exponent+0x18>
800021f8:	40b005b3          	neg	a1,a1
800021fc:	02d00713          	li	a4,45
80002200:	00e500a3          	sb	a4,1(a0)
80002204:	4725                	li	a4,9
80002206:	06b75263          	bge	a4,a1,8000226a <__exponent+0x82>
8000220a:	1141                	addi	sp,sp,-16
8000220c:	00f10713          	addi	a4,sp,15
80002210:	883a                	mv	a6,a4
80002212:	48a9                	li	a7,10
80002214:	06300313          	li	t1,99
80002218:	0315e633          	rem	a2,a1,a7
8000221c:	86ba                	mv	a3,a4
8000221e:	177d                	addi	a4,a4,-1
80002220:	03060613          	addi	a2,a2,48
80002224:	fec68fa3          	sb	a2,-1(a3)
80002228:	862e                	mv	a2,a1
8000222a:	0315c5b3          	div	a1,a1,a7
8000222e:	fec345e3          	blt	t1,a2,80002218 <__exponent+0x30>
80002232:	ffe68893          	addi	a7,a3,-2
80002236:	03058593          	addi	a1,a1,48
8000223a:	feb70fa3          	sb	a1,-1(a4) # 7fffffff <_sp+0xeffeffff>
8000223e:	863e                	mv	a2,a5
80002240:	8746                	mv	a4,a7
80002242:	01076d63          	bltu	a4,a6,8000225c <__exponent+0x74>
80002246:	4701                	li	a4,0
80002248:	01186563          	bltu	a6,a7,80002252 <__exponent+0x6a>
8000224c:	01110713          	addi	a4,sp,17
80002250:	8f15                	sub	a4,a4,a3
80002252:	97ba                	add	a5,a5,a4
80002254:	40a78533          	sub	a0,a5,a0
80002258:	0141                	addi	sp,sp,16
8000225a:	8082                	ret
8000225c:	00074583          	lbu	a1,0(a4)
80002260:	0705                	addi	a4,a4,1
80002262:	0605                	addi	a2,a2,1
80002264:	feb60fa3          	sb	a1,-1(a2)
80002268:	bfe9                	j	80002242 <__exponent+0x5a>
8000226a:	03000793          	li	a5,48
8000226e:	00f50123          	sb	a5,2(a0)
80002272:	03058593          	addi	a1,a1,48
80002276:	00450793          	addi	a5,a0,4
8000227a:	00b501a3          	sb	a1,3(a0)
8000227e:	40a78533          	sub	a0,a5,a0
80002282:	8082                	ret

80002284 <_printf_float>:
_printf_float():
80002284:	7119                	addi	sp,sp,-128
80002286:	de86                	sw	ra,124(sp)
80002288:	dca2                	sw	s0,120(sp)
8000228a:	daa6                	sw	s1,116(sp)
8000228c:	842e                	mv	s0,a1
8000228e:	d8ca                	sw	s2,112(sp)
80002290:	d6ce                	sw	s3,108(sp)
80002292:	d4d2                	sw	s4,104(sp)
80002294:	d2d6                	sw	s5,100(sp)
80002296:	8a3a                	mv	s4,a4
80002298:	d0da                	sw	s6,96(sp)
8000229a:	cede                	sw	s7,92(sp)
8000229c:	cce2                	sw	s8,88(sp)
8000229e:	8932                	mv	s2,a2
800022a0:	89b6                	mv	s3,a3
800022a2:	cae6                	sw	s9,84(sp)
800022a4:	c8ea                	sw	s10,80(sp)
800022a6:	c6ee                	sw	s11,76(sp)
800022a8:	84aa                	mv	s1,a0
800022aa:	531010ef          	jal	ra,80003fda <_localeconv_r>
800022ae:	00052c03          	lw	s8,0(a0)
800022b2:	8562                	mv	a0,s8
800022b4:	17b000ef          	jal	ra,80002c2e <strlen>
800022b8:	00042b03          	lw	s6,0(s0)
800022bc:	dc02                	sw	zero,56(sp)
800022be:	01844a83          	lbu	s5,24(s0)
800022c2:	100b7713          	andi	a4,s6,256
800022c6:	000a2783          	lw	a5,0(s4)
800022ca:	8baa                	mv	s7,a0
800022cc:	cb79                	beqz	a4,800023a2 <_printf_float+0x11e>
800022ce:	00478713          	addi	a4,a5,4
800022d2:	00ea2023          	sw	a4,0(s4)
800022d6:	439c                	lw	a5,0(a5)
800022d8:	1008                	addi	a0,sp,32
800022da:	4398                	lw	a4,0(a5)
800022dc:	d03a                	sw	a4,32(sp)
800022de:	43d8                	lw	a4,4(a5)
800022e0:	d23a                	sw	a4,36(sp)
800022e2:	4798                	lw	a4,8(a5)
800022e4:	d43a                	sw	a4,40(sp)
800022e6:	47dc                	lw	a5,12(a5)
800022e8:	d63e                	sw	a5,44(sp)
800022ea:	159040ef          	jal	ra,80006c42 <__trunctfdf2>
800022ee:	c428                	sw	a0,72(s0)
800022f0:	c46c                	sw	a1,76(s0)
800022f2:	04c42a03          	lw	s4,76(s0)
800022f6:	0fffe717          	auipc	a4,0xfffe
800022fa:	eea70713          	addi	a4,a4,-278 # 900001e0 <_impure_ptr+0x8>
800022fe:	04842c83          	lw	s9,72(s0)
80002302:	00072d03          	lw	s10,0(a4)
80002306:	00472d83          	lw	s11,4(a4)
8000230a:	001a1793          	slli	a5,s4,0x1
8000230e:	8385                	srli	a5,a5,0x1
80002310:	866a                	mv	a2,s10
80002312:	86ee                	mv	a3,s11
80002314:	8566                	mv	a0,s9
80002316:	85be                	mv	a1,a5
80002318:	ce3e                	sw	a5,28(sp)
8000231a:	7d6040ef          	jal	ra,80006af0 <__unorddf2>
8000231e:	ed49                	bnez	a0,800023b8 <_printf_float+0x134>
80002320:	47f2                	lw	a5,28(sp)
80002322:	866a                	mv	a2,s10
80002324:	86ee                	mv	a3,s11
80002326:	8566                	mv	a0,s9
80002328:	85be                	mv	a1,a5
8000232a:	4c7030ef          	jal	ra,80005ff0 <__ledf2>
8000232e:	08a05563          	blez	a0,800023b8 <_printf_float+0x134>
80002332:	4601                	li	a2,0
80002334:	4681                	li	a3,0
80002336:	8566                	mv	a0,s9
80002338:	85d2                	mv	a1,s4
8000233a:	4b7030ef          	jal	ra,80005ff0 <__ledf2>
8000233e:	00055663          	bgez	a0,8000234a <_printf_float+0xc6>
80002342:	02d00793          	li	a5,45
80002346:	04f401a3          	sb	a5,67(s0)
8000234a:	04700793          	li	a5,71
8000234e:	00005a17          	auipc	s4,0x5
80002352:	072a0a13          	addi	s4,s4,114 # 800073c0 <__clz_tab+0x100>
80002356:	0157f663          	bgeu	a5,s5,80002362 <_printf_float+0xde>
8000235a:	00005a17          	auipc	s4,0x5
8000235e:	06aa0a13          	addi	s4,s4,106 # 800073c4 <__clz_tab+0x104>
80002362:	ffbb7b13          	andi	s6,s6,-5
80002366:	478d                	li	a5,3
80002368:	01642023          	sw	s6,0(s0)
8000236c:	c81c                	sw	a5,16(s0)
8000236e:	4b01                	li	s6,0
80002370:	874e                	mv	a4,s3
80002372:	86ca                	mv	a3,s2
80002374:	1870                	addi	a2,sp,60
80002376:	85a2                	mv	a1,s0
80002378:	8526                	mv	a0,s1
8000237a:	2ef9                	jal	80002758 <_printf_common>
8000237c:	5cfd                	li	s9,-1
8000237e:	17951363          	bne	a0,s9,800024e4 <_printf_float+0x260>
80002382:	557d                	li	a0,-1
80002384:	50f6                	lw	ra,124(sp)
80002386:	5466                	lw	s0,120(sp)
80002388:	54d6                	lw	s1,116(sp)
8000238a:	5946                	lw	s2,112(sp)
8000238c:	59b6                	lw	s3,108(sp)
8000238e:	5a26                	lw	s4,104(sp)
80002390:	5a96                	lw	s5,100(sp)
80002392:	5b06                	lw	s6,96(sp)
80002394:	4bf6                	lw	s7,92(sp)
80002396:	4c66                	lw	s8,88(sp)
80002398:	4cd6                	lw	s9,84(sp)
8000239a:	4d46                	lw	s10,80(sp)
8000239c:	4db6                	lw	s11,76(sp)
8000239e:	6109                	addi	sp,sp,128
800023a0:	8082                	ret
800023a2:	079d                	addi	a5,a5,7
800023a4:	9be1                	andi	a5,a5,-8
800023a6:	00878713          	addi	a4,a5,8
800023aa:	00ea2023          	sw	a4,0(s4)
800023ae:	4398                	lw	a4,0(a5)
800023b0:	43dc                	lw	a5,4(a5)
800023b2:	c438                	sw	a4,72(s0)
800023b4:	c47c                	sw	a5,76(s0)
800023b6:	bf35                	j	800022f2 <_printf_float+0x6e>
800023b8:	8666                	mv	a2,s9
800023ba:	86d2                	mv	a3,s4
800023bc:	8566                	mv	a0,s9
800023be:	85d2                	mv	a1,s4
800023c0:	730040ef          	jal	ra,80006af0 <__unorddf2>
800023c4:	c505                	beqz	a0,800023ec <_printf_float+0x168>
800023c6:	000a5663          	bgez	s4,800023d2 <_printf_float+0x14e>
800023ca:	02d00793          	li	a5,45
800023ce:	04f401a3          	sb	a5,67(s0)
800023d2:	04700793          	li	a5,71
800023d6:	00005a17          	auipc	s4,0x5
800023da:	ff2a0a13          	addi	s4,s4,-14 # 800073c8 <__clz_tab+0x108>
800023de:	f957f2e3          	bgeu	a5,s5,80002362 <_printf_float+0xde>
800023e2:	00005a17          	auipc	s4,0x5
800023e6:	feaa0a13          	addi	s4,s4,-22 # 800073cc <__clz_tab+0x10c>
800023ea:	bfa5                	j	80002362 <_printf_float+0xde>
800023ec:	405c                	lw	a5,4(s0)
800023ee:	577d                	li	a4,-1
800023f0:	0dfafd13          	andi	s10,s5,223
800023f4:	08e79363          	bne	a5,a4,8000247a <_printf_float+0x1f6>
800023f8:	4799                	li	a5,6
800023fa:	c05c                	sw	a5,4(s0)
800023fc:	4054                	lw	a3,4(s0)
800023fe:	400b6713          	ori	a4,s6,1024
80002402:	183c                	addi	a5,sp,56
80002404:	c03e                	sw	a5,0(sp)
80002406:	8652                	mv	a2,s4
80002408:	03310793          	addi	a5,sp,51
8000240c:	85e6                	mv	a1,s9
8000240e:	c018                	sw	a4,0(s0)
80002410:	c202                	sw	zero,4(sp)
80002412:	88d6                	mv	a7,s5
80002414:	03410813          	addi	a6,sp,52
80002418:	8526                	mv	a0,s1
8000241a:	31cd                	jal	800020fc <__cvt>
8000241c:	04700793          	li	a5,71
80002420:	55d2                	lw	a1,52(sp)
80002422:	8a2a                	mv	s4,a0
80002424:	00fd1b63          	bne	s10,a5,8000243a <_printf_float+0x1b6>
80002428:	57f5                	li	a5,-3
8000242a:	00f5c563          	blt	a1,a5,80002434 <_printf_float+0x1b0>
8000242e:	405c                	lw	a5,4(s0)
80002430:	08b7d763          	bge	a5,a1,800024be <_printf_float+0x23a>
80002434:	1af9                	addi	s5,s5,-2
80002436:	0ffafa93          	zext.b	s5,s5
8000243a:	06500793          	li	a5,101
8000243e:	0557e563          	bltu	a5,s5,80002488 <_printf_float+0x204>
80002442:	15fd                	addi	a1,a1,-1
80002444:	8656                	mv	a2,s5
80002446:	05040513          	addi	a0,s0,80
8000244a:	da2e                	sw	a1,52(sp)
8000244c:	3b71                	jal	800021e8 <__exponent>
8000244e:	5762                	lw	a4,56(sp)
80002450:	4685                	li	a3,1
80002452:	8b2a                	mv	s6,a0
80002454:	00a707b3          	add	a5,a4,a0
80002458:	c81c                	sw	a5,16(s0)
8000245a:	00e6c563          	blt	a3,a4,80002464 <_printf_float+0x1e0>
8000245e:	4018                	lw	a4,0(s0)
80002460:	8b05                	andi	a4,a4,1
80002462:	c319                	beqz	a4,80002468 <_printf_float+0x1e4>
80002464:	0785                	addi	a5,a5,1
80002466:	c81c                	sw	a5,16(s0)
80002468:	03314783          	lbu	a5,51(sp)
8000246c:	f00782e3          	beqz	a5,80002370 <_printf_float+0xec>
80002470:	02d00793          	li	a5,45
80002474:	04f401a3          	sb	a5,67(s0)
80002478:	bde5                	j	80002370 <_printf_float+0xec>
8000247a:	04700713          	li	a4,71
8000247e:	f6ed1fe3          	bne	s10,a4,800023fc <_printf_float+0x178>
80002482:	ffad                	bnez	a5,800023fc <_printf_float+0x178>
80002484:	4785                	li	a5,1
80002486:	bf95                	j	800023fa <_printf_float+0x176>
80002488:	06600793          	li	a5,102
8000248c:	02fa9b63          	bne	s5,a5,800024c2 <_printf_float+0x23e>
80002490:	405c                	lw	a5,4(s0)
80002492:	00b05b63          	blez	a1,800024a8 <_printf_float+0x224>
80002496:	c80c                	sw	a1,16(s0)
80002498:	e781                	bnez	a5,800024a0 <_printf_float+0x21c>
8000249a:	4018                	lw	a4,0(s0)
8000249c:	8b05                	andi	a4,a4,1
8000249e:	cf09                	beqz	a4,800024b8 <_printf_float+0x234>
800024a0:	0785                	addi	a5,a5,1
800024a2:	97ae                	add	a5,a5,a1
800024a4:	c81c                	sw	a5,16(s0)
800024a6:	a809                	j	800024b8 <_printf_float+0x234>
800024a8:	e789                	bnez	a5,800024b2 <_printf_float+0x22e>
800024aa:	4018                	lw	a4,0(s0)
800024ac:	4685                	li	a3,1
800024ae:	8b05                	andi	a4,a4,1
800024b0:	c319                	beqz	a4,800024b6 <_printf_float+0x232>
800024b2:	00278693          	addi	a3,a5,2
800024b6:	c814                	sw	a3,16(s0)
800024b8:	cc2c                	sw	a1,88(s0)
800024ba:	4b01                	li	s6,0
800024bc:	b775                	j	80002468 <_printf_float+0x1e4>
800024be:	06700a93          	li	s5,103
800024c2:	57e2                	lw	a5,56(sp)
800024c4:	00f5c963          	blt	a1,a5,800024d6 <_printf_float+0x252>
800024c8:	401c                	lw	a5,0(s0)
800024ca:	c80c                	sw	a1,16(s0)
800024cc:	8b85                	andi	a5,a5,1
800024ce:	d7ed                	beqz	a5,800024b8 <_printf_float+0x234>
800024d0:	00158793          	addi	a5,a1,1
800024d4:	bfc1                	j	800024a4 <_printf_float+0x220>
800024d6:	4705                	li	a4,1
800024d8:	00b04463          	bgtz	a1,800024e0 <_printf_float+0x25c>
800024dc:	4709                	li	a4,2
800024de:	8f0d                	sub	a4,a4,a1
800024e0:	97ba                	add	a5,a5,a4
800024e2:	b7c9                	j	800024a4 <_printf_float+0x220>
800024e4:	401c                	lw	a5,0(s0)
800024e6:	4007f713          	andi	a4,a5,1024
800024ea:	e315                	bnez	a4,8000250e <_printf_float+0x28a>
800024ec:	4814                	lw	a3,16(s0)
800024ee:	8652                	mv	a2,s4
800024f0:	85ca                	mv	a1,s2
800024f2:	8526                	mv	a0,s1
800024f4:	9982                	jalr	s3
800024f6:	e99506e3          	beq	a0,s9,80002382 <_printf_float+0xfe>
800024fa:	401c                	lw	a5,0(s0)
800024fc:	8b89                	andi	a5,a5,2
800024fe:	24079863          	bnez	a5,8000274e <_printf_float+0x4ca>
80002502:	57f2                	lw	a5,60(sp)
80002504:	4448                	lw	a0,12(s0)
80002506:	e6f55fe3          	bge	a0,a5,80002384 <_printf_float+0x100>
8000250a:	853e                	mv	a0,a5
8000250c:	bda5                	j	80002384 <_printf_float+0x100>
8000250e:	06500713          	li	a4,101
80002512:	19577d63          	bgeu	a4,s5,800026ac <_printf_float+0x428>
80002516:	4428                	lw	a0,72(s0)
80002518:	446c                	lw	a1,76(s0)
8000251a:	4601                	li	a2,0
8000251c:	4681                	li	a3,0
8000251e:	1c3030ef          	jal	ra,80005ee0 <__eqdf2>
80002522:	e939                	bnez	a0,80002578 <_printf_float+0x2f4>
80002524:	4685                	li	a3,1
80002526:	00005617          	auipc	a2,0x5
8000252a:	eaa60613          	addi	a2,a2,-342 # 800073d0 <__clz_tab+0x110>
8000252e:	85ca                	mv	a1,s2
80002530:	8526                	mv	a0,s1
80002532:	9982                	jalr	s3
80002534:	e59507e3          	beq	a0,s9,80002382 <_printf_float+0xfe>
80002538:	5752                	lw	a4,52(sp)
8000253a:	57e2                	lw	a5,56(sp)
8000253c:	00f74563          	blt	a4,a5,80002546 <_printf_float+0x2c2>
80002540:	401c                	lw	a5,0(s0)
80002542:	8b85                	andi	a5,a5,1
80002544:	dbdd                	beqz	a5,800024fa <_printf_float+0x276>
80002546:	86de                	mv	a3,s7
80002548:	8662                	mv	a2,s8
8000254a:	85ca                	mv	a1,s2
8000254c:	8526                	mv	a0,s1
8000254e:	9982                	jalr	s3
80002550:	57fd                	li	a5,-1
80002552:	e2f508e3          	beq	a0,a5,80002382 <_printf_float+0xfe>
80002556:	4a01                	li	s4,0
80002558:	01a40a93          	addi	s5,s0,26
8000255c:	5b7d                	li	s6,-1
8000255e:	57e2                	lw	a5,56(sp)
80002560:	17fd                	addi	a5,a5,-1
80002562:	f8fa5ce3          	bge	s4,a5,800024fa <_printf_float+0x276>
80002566:	4685                	li	a3,1
80002568:	8656                	mv	a2,s5
8000256a:	85ca                	mv	a1,s2
8000256c:	8526                	mv	a0,s1
8000256e:	9982                	jalr	s3
80002570:	e16509e3          	beq	a0,s6,80002382 <_printf_float+0xfe>
80002574:	0a05                	addi	s4,s4,1
80002576:	b7e5                	j	8000255e <_printf_float+0x2da>
80002578:	57d2                	lw	a5,52(sp)
8000257a:	06f04663          	bgtz	a5,800025e6 <_printf_float+0x362>
8000257e:	4685                	li	a3,1
80002580:	00005617          	auipc	a2,0x5
80002584:	e5060613          	addi	a2,a2,-432 # 800073d0 <__clz_tab+0x110>
80002588:	85ca                	mv	a1,s2
8000258a:	8526                	mv	a0,s1
8000258c:	9982                	jalr	s3
8000258e:	df950ae3          	beq	a0,s9,80002382 <_printf_float+0xfe>
80002592:	57d2                	lw	a5,52(sp)
80002594:	5762                	lw	a4,56(sp)
80002596:	8fd9                	or	a5,a5,a4
80002598:	e781                	bnez	a5,800025a0 <_printf_float+0x31c>
8000259a:	401c                	lw	a5,0(s0)
8000259c:	8b85                	andi	a5,a5,1
8000259e:	dfb1                	beqz	a5,800024fa <_printf_float+0x276>
800025a0:	86de                	mv	a3,s7
800025a2:	8662                	mv	a2,s8
800025a4:	85ca                	mv	a1,s2
800025a6:	8526                	mv	a0,s1
800025a8:	9982                	jalr	s3
800025aa:	57fd                	li	a5,-1
800025ac:	dcf50be3          	beq	a0,a5,80002382 <_printf_float+0xfe>
800025b0:	4a81                	li	s5,0
800025b2:	01a40b13          	addi	s6,s0,26
800025b6:	5bfd                	li	s7,-1
800025b8:	57d2                	lw	a5,52(sp)
800025ba:	40f007b3          	neg	a5,a5
800025be:	00facb63          	blt	s5,a5,800025d4 <_printf_float+0x350>
800025c2:	56e2                	lw	a3,56(sp)
800025c4:	8652                	mv	a2,s4
800025c6:	85ca                	mv	a1,s2
800025c8:	8526                	mv	a0,s1
800025ca:	9982                	jalr	s3
800025cc:	57fd                	li	a5,-1
800025ce:	f2f516e3          	bne	a0,a5,800024fa <_printf_float+0x276>
800025d2:	bb45                	j	80002382 <_printf_float+0xfe>
800025d4:	4685                	li	a3,1
800025d6:	865a                	mv	a2,s6
800025d8:	85ca                	mv	a1,s2
800025da:	8526                	mv	a0,s1
800025dc:	9982                	jalr	s3
800025de:	db7502e3          	beq	a0,s7,80002382 <_printf_float+0xfe>
800025e2:	0a85                	addi	s5,s5,1
800025e4:	bfd1                	j	800025b8 <_printf_float+0x334>
800025e6:	4c3c                	lw	a5,88(s0)
800025e8:	5ae2                	lw	s5,56(sp)
800025ea:	0157d363          	bge	a5,s5,800025f0 <_printf_float+0x36c>
800025ee:	8abe                	mv	s5,a5
800025f0:	07504963          	bgtz	s5,80002662 <_printf_float+0x3de>
800025f4:	4b01                	li	s6,0
800025f6:	01a40d13          	addi	s10,s0,26
800025fa:	5dfd                	li	s11,-1
800025fc:	05842c83          	lw	s9,88(s0)
80002600:	87d6                	mv	a5,s5
80002602:	000ad363          	bgez	s5,80002608 <_printf_float+0x384>
80002606:	4781                	li	a5,0
80002608:	40fc87b3          	sub	a5,s9,a5
8000260c:	06fb4463          	blt	s6,a5,80002674 <_printf_float+0x3f0>
80002610:	5752                	lw	a4,52(sp)
80002612:	57e2                	lw	a5,56(sp)
80002614:	06f74963          	blt	a4,a5,80002686 <_printf_float+0x402>
80002618:	401c                	lw	a5,0(s0)
8000261a:	8b85                	andi	a5,a5,1
8000261c:	e7ad                	bnez	a5,80002686 <_printf_float+0x402>
8000261e:	5ae2                	lw	s5,56(sp)
80002620:	5752                	lw	a4,52(sp)
80002622:	419a87b3          	sub	a5,s5,s9
80002626:	40ea8ab3          	sub	s5,s5,a4
8000262a:	0157d363          	bge	a5,s5,80002630 <_printf_float+0x3ac>
8000262e:	8abe                	mv	s5,a5
80002630:	07504463          	bgtz	s5,80002698 <_printf_float+0x414>
80002634:	4a01                	li	s4,0
80002636:	01a40b13          	addi	s6,s0,26
8000263a:	5bfd                	li	s7,-1
8000263c:	5752                	lw	a4,52(sp)
8000263e:	57e2                	lw	a5,56(sp)
80002640:	8f99                	sub	a5,a5,a4
80002642:	8756                	mv	a4,s5
80002644:	000ad363          	bgez	s5,8000264a <_printf_float+0x3c6>
80002648:	4701                	li	a4,0
8000264a:	8f99                	sub	a5,a5,a4
8000264c:	eafa57e3          	bge	s4,a5,800024fa <_printf_float+0x276>
80002650:	4685                	li	a3,1
80002652:	865a                	mv	a2,s6
80002654:	85ca                	mv	a1,s2
80002656:	8526                	mv	a0,s1
80002658:	9982                	jalr	s3
8000265a:	d37504e3          	beq	a0,s7,80002382 <_printf_float+0xfe>
8000265e:	0a05                	addi	s4,s4,1
80002660:	bff1                	j	8000263c <_printf_float+0x3b8>
80002662:	86d6                	mv	a3,s5
80002664:	8652                	mv	a2,s4
80002666:	85ca                	mv	a1,s2
80002668:	8526                	mv	a0,s1
8000266a:	9982                	jalr	s3
8000266c:	57fd                	li	a5,-1
8000266e:	f8f513e3          	bne	a0,a5,800025f4 <_printf_float+0x370>
80002672:	bb01                	j	80002382 <_printf_float+0xfe>
80002674:	4685                	li	a3,1
80002676:	866a                	mv	a2,s10
80002678:	85ca                	mv	a1,s2
8000267a:	8526                	mv	a0,s1
8000267c:	9982                	jalr	s3
8000267e:	d1b502e3          	beq	a0,s11,80002382 <_printf_float+0xfe>
80002682:	0b05                	addi	s6,s6,1
80002684:	bfa5                	j	800025fc <_printf_float+0x378>
80002686:	86de                	mv	a3,s7
80002688:	8662                	mv	a2,s8
8000268a:	85ca                	mv	a1,s2
8000268c:	8526                	mv	a0,s1
8000268e:	9982                	jalr	s3
80002690:	57fd                	li	a5,-1
80002692:	f8f516e3          	bne	a0,a5,8000261e <_printf_float+0x39a>
80002696:	b1f5                	j	80002382 <_printf_float+0xfe>
80002698:	86d6                	mv	a3,s5
8000269a:	019a0633          	add	a2,s4,s9
8000269e:	85ca                	mv	a1,s2
800026a0:	8526                	mv	a0,s1
800026a2:	9982                	jalr	s3
800026a4:	57fd                	li	a5,-1
800026a6:	f8f517e3          	bne	a0,a5,80002634 <_printf_float+0x3b0>
800026aa:	b9e1                	j	80002382 <_printf_float+0xfe>
800026ac:	56e2                	lw	a3,56(sp)
800026ae:	4705                	li	a4,1
800026b0:	00d74463          	blt	a4,a3,800026b8 <_printf_float+0x434>
800026b4:	8b85                	andi	a5,a5,1
800026b6:	c7b5                	beqz	a5,80002722 <_printf_float+0x49e>
800026b8:	4685                	li	a3,1
800026ba:	8652                	mv	a2,s4
800026bc:	85ca                	mv	a1,s2
800026be:	8526                	mv	a0,s1
800026c0:	9982                	jalr	s3
800026c2:	5afd                	li	s5,-1
800026c4:	cb550fe3          	beq	a0,s5,80002382 <_printf_float+0xfe>
800026c8:	86de                	mv	a3,s7
800026ca:	8662                	mv	a2,s8
800026cc:	85ca                	mv	a1,s2
800026ce:	8526                	mv	a0,s1
800026d0:	9982                	jalr	s3
800026d2:	cb5508e3          	beq	a0,s5,80002382 <_printf_float+0xfe>
800026d6:	4428                	lw	a0,72(s0)
800026d8:	446c                	lw	a1,76(s0)
800026da:	4601                	li	a2,0
800026dc:	4681                	li	a3,0
800026de:	003030ef          	jal	ra,80005ee0 <__eqdf2>
800026e2:	c91d                	beqz	a0,80002718 <_printf_float+0x494>
800026e4:	56e2                	lw	a3,56(sp)
800026e6:	001a0613          	addi	a2,s4,1
800026ea:	85ca                	mv	a1,s2
800026ec:	16fd                	addi	a3,a3,-1
800026ee:	8526                	mv	a0,s1
800026f0:	9982                	jalr	s3
800026f2:	c95508e3          	beq	a0,s5,80002382 <_printf_float+0xfe>
800026f6:	86da                	mv	a3,s6
800026f8:	05040613          	addi	a2,s0,80
800026fc:	b5e9                	j	800025c6 <_printf_float+0x342>
800026fe:	4685                	li	a3,1
80002700:	8656                	mv	a2,s5
80002702:	85ca                	mv	a1,s2
80002704:	8526                	mv	a0,s1
80002706:	9982                	jalr	s3
80002708:	c7750de3          	beq	a0,s7,80002382 <_printf_float+0xfe>
8000270c:	0a05                	addi	s4,s4,1
8000270e:	57e2                	lw	a5,56(sp)
80002710:	17fd                	addi	a5,a5,-1
80002712:	fefa46e3          	blt	s4,a5,800026fe <_printf_float+0x47a>
80002716:	b7c5                	j	800026f6 <_printf_float+0x472>
80002718:	4a01                	li	s4,0
8000271a:	01a40a93          	addi	s5,s0,26
8000271e:	5bfd                	li	s7,-1
80002720:	b7fd                	j	8000270e <_printf_float+0x48a>
80002722:	4685                	li	a3,1
80002724:	8652                	mv	a2,s4
80002726:	85ca                	mv	a1,s2
80002728:	8526                	mv	a0,s1
8000272a:	9982                	jalr	s3
8000272c:	fd9515e3          	bne	a0,s9,800026f6 <_printf_float+0x472>
80002730:	b989                	j	80002382 <_printf_float+0xfe>
80002732:	4685                	li	a3,1
80002734:	8656                	mv	a2,s5
80002736:	85ca                	mv	a1,s2
80002738:	8526                	mv	a0,s1
8000273a:	9982                	jalr	s3
8000273c:	c56503e3          	beq	a0,s6,80002382 <_printf_float+0xfe>
80002740:	0a05                	addi	s4,s4,1
80002742:	445c                	lw	a5,12(s0)
80002744:	5772                	lw	a4,60(sp)
80002746:	8f99                	sub	a5,a5,a4
80002748:	fefa45e3          	blt	s4,a5,80002732 <_printf_float+0x4ae>
8000274c:	bb5d                	j	80002502 <_printf_float+0x27e>
8000274e:	4a01                	li	s4,0
80002750:	01940a93          	addi	s5,s0,25
80002754:	5b7d                	li	s6,-1
80002756:	b7f5                	j	80002742 <_printf_float+0x4be>

80002758 <_printf_common>:
_printf_common():
80002758:	7179                	addi	sp,sp,-48
8000275a:	cc52                	sw	s4,24(sp)
8000275c:	499c                	lw	a5,16(a1)
8000275e:	8a3a                	mv	s4,a4
80002760:	4598                	lw	a4,8(a1)
80002762:	d422                	sw	s0,40(sp)
80002764:	d226                	sw	s1,36(sp)
80002766:	ce4e                	sw	s3,28(sp)
80002768:	ca56                	sw	s5,20(sp)
8000276a:	d606                	sw	ra,44(sp)
8000276c:	d04a                	sw	s2,32(sp)
8000276e:	c85a                	sw	s6,16(sp)
80002770:	c65e                	sw	s7,12(sp)
80002772:	89aa                	mv	s3,a0
80002774:	842e                	mv	s0,a1
80002776:	84b2                	mv	s1,a2
80002778:	8ab6                	mv	s5,a3
8000277a:	00e7d363          	bge	a5,a4,80002780 <_printf_common+0x28>
8000277e:	87ba                	mv	a5,a4
80002780:	c09c                	sw	a5,0(s1)
80002782:	04344703          	lbu	a4,67(s0)
80002786:	c319                	beqz	a4,8000278c <_printf_common+0x34>
80002788:	0785                	addi	a5,a5,1
8000278a:	c09c                	sw	a5,0(s1)
8000278c:	401c                	lw	a5,0(s0)
8000278e:	0207f793          	andi	a5,a5,32
80002792:	c781                	beqz	a5,8000279a <_printf_common+0x42>
80002794:	409c                	lw	a5,0(s1)
80002796:	0789                	addi	a5,a5,2
80002798:	c09c                	sw	a5,0(s1)
8000279a:	00042903          	lw	s2,0(s0)
8000279e:	00697913          	andi	s2,s2,6
800027a2:	00091a63          	bnez	s2,800027b6 <_printf_common+0x5e>
800027a6:	01940b13          	addi	s6,s0,25
800027aa:	5bfd                	li	s7,-1
800027ac:	445c                	lw	a5,12(s0)
800027ae:	4098                	lw	a4,0(s1)
800027b0:	8f99                	sub	a5,a5,a4
800027b2:	04f94c63          	blt	s2,a5,8000280a <_printf_common+0xb2>
800027b6:	04344783          	lbu	a5,67(s0)
800027ba:	00f036b3          	snez	a3,a5
800027be:	401c                	lw	a5,0(s0)
800027c0:	0207f793          	andi	a5,a5,32
800027c4:	eba5                	bnez	a5,80002834 <_printf_common+0xdc>
800027c6:	04340613          	addi	a2,s0,67
800027ca:	85d6                	mv	a1,s5
800027cc:	854e                	mv	a0,s3
800027ce:	9a02                	jalr	s4
800027d0:	57fd                	li	a5,-1
800027d2:	04f50363          	beq	a0,a5,80002818 <_printf_common+0xc0>
800027d6:	401c                	lw	a5,0(s0)
800027d8:	4611                	li	a2,4
800027da:	4098                	lw	a4,0(s1)
800027dc:	8b99                	andi	a5,a5,6
800027de:	4454                	lw	a3,12(s0)
800027e0:	4481                	li	s1,0
800027e2:	00c79763          	bne	a5,a2,800027f0 <_printf_common+0x98>
800027e6:	40e684b3          	sub	s1,a3,a4
800027ea:	0004d363          	bgez	s1,800027f0 <_printf_common+0x98>
800027ee:	4481                	li	s1,0
800027f0:	441c                	lw	a5,8(s0)
800027f2:	4818                	lw	a4,16(s0)
800027f4:	00f75463          	bge	a4,a5,800027fc <_printf_common+0xa4>
800027f8:	8f99                	sub	a5,a5,a4
800027fa:	94be                	add	s1,s1,a5
800027fc:	4901                	li	s2,0
800027fe:	0469                	addi	s0,s0,26
80002800:	5b7d                	li	s6,-1
80002802:	05249863          	bne	s1,s2,80002852 <_printf_common+0xfa>
80002806:	4501                	li	a0,0
80002808:	a809                	j	8000281a <_printf_common+0xc2>
8000280a:	4685                	li	a3,1
8000280c:	865a                	mv	a2,s6
8000280e:	85d6                	mv	a1,s5
80002810:	854e                	mv	a0,s3
80002812:	9a02                	jalr	s4
80002814:	01751e63          	bne	a0,s7,80002830 <_printf_common+0xd8>
80002818:	557d                	li	a0,-1
8000281a:	50b2                	lw	ra,44(sp)
8000281c:	5422                	lw	s0,40(sp)
8000281e:	5492                	lw	s1,36(sp)
80002820:	5902                	lw	s2,32(sp)
80002822:	49f2                	lw	s3,28(sp)
80002824:	4a62                	lw	s4,24(sp)
80002826:	4ad2                	lw	s5,20(sp)
80002828:	4b42                	lw	s6,16(sp)
8000282a:	4bb2                	lw	s7,12(sp)
8000282c:	6145                	addi	sp,sp,48
8000282e:	8082                	ret
80002830:	0905                	addi	s2,s2,1
80002832:	bfad                	j	800027ac <_printf_common+0x54>
80002834:	00d40733          	add	a4,s0,a3
80002838:	03000613          	li	a2,48
8000283c:	04c701a3          	sb	a2,67(a4)
80002840:	04544703          	lbu	a4,69(s0)
80002844:	00168793          	addi	a5,a3,1
80002848:	97a2                	add	a5,a5,s0
8000284a:	0689                	addi	a3,a3,2
8000284c:	04e781a3          	sb	a4,67(a5)
80002850:	bf9d                	j	800027c6 <_printf_common+0x6e>
80002852:	4685                	li	a3,1
80002854:	8622                	mv	a2,s0
80002856:	85d6                	mv	a1,s5
80002858:	854e                	mv	a0,s3
8000285a:	9a02                	jalr	s4
8000285c:	fb650ee3          	beq	a0,s6,80002818 <_printf_common+0xc0>
80002860:	0905                	addi	s2,s2,1
80002862:	b745                	j	80002802 <_printf_common+0xaa>

80002864 <_printf_i>:
_printf_i():
80002864:	7179                	addi	sp,sp,-48
80002866:	d422                	sw	s0,40(sp)
80002868:	d226                	sw	s1,36(sp)
8000286a:	d04a                	sw	s2,32(sp)
8000286c:	ce4e                	sw	s3,28(sp)
8000286e:	d606                	sw	ra,44(sp)
80002870:	cc52                	sw	s4,24(sp)
80002872:	ca56                	sw	s5,20(sp)
80002874:	c85a                	sw	s6,16(sp)
80002876:	0185c803          	lbu	a6,24(a1)
8000287a:	07800793          	li	a5,120
8000287e:	84aa                	mv	s1,a0
80002880:	842e                	mv	s0,a1
80002882:	8932                	mv	s2,a2
80002884:	89b6                	mv	s3,a3
80002886:	0107ee63          	bltu	a5,a6,800028a2 <_printf_i+0x3e>
8000288a:	06200793          	li	a5,98
8000288e:	04358693          	addi	a3,a1,67
80002892:	0107ed63          	bltu	a5,a6,800028ac <_printf_i+0x48>
80002896:	1c080563          	beqz	a6,80002a60 <_printf_i+0x1fc>
8000289a:	05800793          	li	a5,88
8000289e:	12f80a63          	beq	a6,a5,800029d2 <_printf_i+0x16e>
800028a2:	04240a93          	addi	s5,s0,66
800028a6:	05040123          	sb	a6,66(s0)
800028aa:	a815                	j	800028de <_printf_i+0x7a>
800028ac:	f9d80793          	addi	a5,a6,-99
800028b0:	0ff7f793          	zext.b	a5,a5
800028b4:	4655                	li	a2,21
800028b6:	fef666e3          	bltu	a2,a5,800028a2 <_printf_i+0x3e>
800028ba:	00005617          	auipc	a2,0x5
800028be:	b4260613          	addi	a2,a2,-1214 # 800073fc <__clz_tab+0x13c>
800028c2:	078a                	slli	a5,a5,0x2
800028c4:	97b2                	add	a5,a5,a2
800028c6:	439c                	lw	a5,0(a5)
800028c8:	97b2                	add	a5,a5,a2
800028ca:	8782                	jr	a5
800028cc:	431c                	lw	a5,0(a4)
800028ce:	04258a93          	addi	s5,a1,66
800028d2:	00478693          	addi	a3,a5,4
800028d6:	439c                	lw	a5,0(a5)
800028d8:	c314                	sw	a3,0(a4)
800028da:	04f58123          	sb	a5,66(a1)
800028de:	4785                	li	a5,1
800028e0:	a265                	j	80002a88 <_printf_i+0x224>
800028e2:	419c                	lw	a5,0(a1)
800028e4:	4308                	lw	a0,0(a4)
800028e6:	0807f613          	andi	a2,a5,128
800028ea:	00450593          	addi	a1,a0,4
800028ee:	c20d                	beqz	a2,80002910 <_printf_i+0xac>
800028f0:	411c                	lw	a5,0(a0)
800028f2:	c30c                	sw	a1,0(a4)
800028f4:	0007d863          	bgez	a5,80002904 <_printf_i+0xa0>
800028f8:	02d00713          	li	a4,45
800028fc:	40f007b3          	neg	a5,a5
80002900:	04e401a3          	sb	a4,67(s0)
80002904:	00005617          	auipc	a2,0x5
80002908:	ad060613          	addi	a2,a2,-1328 # 800073d4 <__clz_tab+0x114>
8000290c:	4829                	li	a6,10
8000290e:	a0a1                	j	80002956 <_printf_i+0xf2>
80002910:	0407f613          	andi	a2,a5,64
80002914:	411c                	lw	a5,0(a0)
80002916:	c30c                	sw	a1,0(a4)
80002918:	de71                	beqz	a2,800028f4 <_printf_i+0x90>
8000291a:	07c2                	slli	a5,a5,0x10
8000291c:	87c1                	srai	a5,a5,0x10
8000291e:	bfd9                	j	800028f4 <_printf_i+0x90>
80002920:	4190                	lw	a2,0(a1)
80002922:	431c                	lw	a5,0(a4)
80002924:	08067513          	andi	a0,a2,128
80002928:	00478593          	addi	a1,a5,4
8000292c:	c501                	beqz	a0,80002934 <_printf_i+0xd0>
8000292e:	c30c                	sw	a1,0(a4)
80002930:	439c                	lw	a5,0(a5)
80002932:	a039                	j	80002940 <_printf_i+0xdc>
80002934:	04067613          	andi	a2,a2,64
80002938:	c30c                	sw	a1,0(a4)
8000293a:	da7d                	beqz	a2,80002930 <_printf_i+0xcc>
8000293c:	0007d783          	lhu	a5,0(a5)
80002940:	06f00713          	li	a4,111
80002944:	00005617          	auipc	a2,0x5
80002948:	a9060613          	addi	a2,a2,-1392 # 800073d4 <__clz_tab+0x114>
8000294c:	0ee80463          	beq	a6,a4,80002a34 <_printf_i+0x1d0>
80002950:	4829                	li	a6,10
80002952:	040401a3          	sb	zero,67(s0)
80002956:	4058                	lw	a4,4(s0)
80002958:	c418                	sw	a4,8(s0)
8000295a:	00074563          	bltz	a4,80002964 <_printf_i+0x100>
8000295e:	400c                	lw	a1,0(s0)
80002960:	99ed                	andi	a1,a1,-5
80002962:	c00c                	sw	a1,0(s0)
80002964:	e399                	bnez	a5,8000296a <_printf_i+0x106>
80002966:	8ab6                	mv	s5,a3
80002968:	cf19                	beqz	a4,80002986 <_printf_i+0x122>
8000296a:	8ab6                	mv	s5,a3
8000296c:	0307f733          	remu	a4,a5,a6
80002970:	1afd                	addi	s5,s5,-1
80002972:	9732                	add	a4,a4,a2
80002974:	00074703          	lbu	a4,0(a4)
80002978:	00ea8023          	sb	a4,0(s5)
8000297c:	873e                	mv	a4,a5
8000297e:	0307d7b3          	divu	a5,a5,a6
80002982:	ff0775e3          	bgeu	a4,a6,8000296c <_printf_i+0x108>
80002986:	47a1                	li	a5,8
80002988:	00f81e63          	bne	a6,a5,800029a4 <_printf_i+0x140>
8000298c:	401c                	lw	a5,0(s0)
8000298e:	8b85                	andi	a5,a5,1
80002990:	cb91                	beqz	a5,800029a4 <_printf_i+0x140>
80002992:	4058                	lw	a4,4(s0)
80002994:	481c                	lw	a5,16(s0)
80002996:	00e7c763          	blt	a5,a4,800029a4 <_printf_i+0x140>
8000299a:	03000793          	li	a5,48
8000299e:	fefa8fa3          	sb	a5,-1(s5)
800029a2:	1afd                	addi	s5,s5,-1
800029a4:	415686b3          	sub	a3,a3,s5
800029a8:	c814                	sw	a3,16(s0)
800029aa:	874e                	mv	a4,s3
800029ac:	86ca                	mv	a3,s2
800029ae:	0070                	addi	a2,sp,12
800029b0:	85a2                	mv	a1,s0
800029b2:	8526                	mv	a0,s1
800029b4:	3355                	jal	80002758 <_printf_common>
800029b6:	5a7d                	li	s4,-1
800029b8:	0d451c63          	bne	a0,s4,80002a90 <_printf_i+0x22c>
800029bc:	557d                	li	a0,-1
800029be:	50b2                	lw	ra,44(sp)
800029c0:	5422                	lw	s0,40(sp)
800029c2:	5492                	lw	s1,36(sp)
800029c4:	5902                	lw	s2,32(sp)
800029c6:	49f2                	lw	s3,28(sp)
800029c8:	4a62                	lw	s4,24(sp)
800029ca:	4ad2                	lw	s5,20(sp)
800029cc:	4b42                	lw	s6,16(sp)
800029ce:	6145                	addi	sp,sp,48
800029d0:	8082                	ret
800029d2:	050582a3          	sb	a6,69(a1)
800029d6:	00005617          	auipc	a2,0x5
800029da:	9fe60613          	addi	a2,a2,-1538 # 800073d4 <__clz_tab+0x114>
800029de:	400c                	lw	a1,0(s0)
800029e0:	4308                	lw	a0,0(a4)
800029e2:	0805f813          	andi	a6,a1,128
800029e6:	411c                	lw	a5,0(a0)
800029e8:	0511                	addi	a0,a0,4
800029ea:	02080d63          	beqz	a6,80002a24 <_printf_i+0x1c0>
800029ee:	c308                	sw	a0,0(a4)
800029f0:	0015f713          	andi	a4,a1,1
800029f4:	c701                	beqz	a4,800029fc <_printf_i+0x198>
800029f6:	0205e593          	ori	a1,a1,32
800029fa:	c00c                	sw	a1,0(s0)
800029fc:	4841                	li	a6,16
800029fe:	fbb1                	bnez	a5,80002952 <_printf_i+0xee>
80002a00:	4018                	lw	a4,0(s0)
80002a02:	fdf77713          	andi	a4,a4,-33
80002a06:	c018                	sw	a4,0(s0)
80002a08:	b7a9                	j	80002952 <_printf_i+0xee>
80002a0a:	419c                	lw	a5,0(a1)
80002a0c:	0207e793          	ori	a5,a5,32
80002a10:	c19c                	sw	a5,0(a1)
80002a12:	07800793          	li	a5,120
80002a16:	04f402a3          	sb	a5,69(s0)
80002a1a:	00005617          	auipc	a2,0x5
80002a1e:	9ce60613          	addi	a2,a2,-1586 # 800073e8 <__clz_tab+0x128>
80002a22:	bf75                	j	800029de <_printf_i+0x17a>
80002a24:	0405f813          	andi	a6,a1,64
80002a28:	c308                	sw	a0,0(a4)
80002a2a:	fc0803e3          	beqz	a6,800029f0 <_printf_i+0x18c>
80002a2e:	07c2                	slli	a5,a5,0x10
80002a30:	83c1                	srli	a5,a5,0x10
80002a32:	bf7d                	j	800029f0 <_printf_i+0x18c>
80002a34:	4821                	li	a6,8
80002a36:	bf31                	j	80002952 <_printf_i+0xee>
80002a38:	4190                	lw	a2,0(a1)
80002a3a:	431c                	lw	a5,0(a4)
80002a3c:	49cc                	lw	a1,20(a1)
80002a3e:	08067813          	andi	a6,a2,128
80002a42:	00478513          	addi	a0,a5,4
80002a46:	00080663          	beqz	a6,80002a52 <_printf_i+0x1ee>
80002a4a:	c308                	sw	a0,0(a4)
80002a4c:	439c                	lw	a5,0(a5)
80002a4e:	c38c                	sw	a1,0(a5)
80002a50:	a801                	j	80002a60 <_printf_i+0x1fc>
80002a52:	c308                	sw	a0,0(a4)
80002a54:	04067613          	andi	a2,a2,64
80002a58:	439c                	lw	a5,0(a5)
80002a5a:	da75                	beqz	a2,80002a4e <_printf_i+0x1ea>
80002a5c:	00b79023          	sh	a1,0(a5)
80002a60:	00042823          	sw	zero,16(s0)
80002a64:	8ab6                	mv	s5,a3
80002a66:	b791                	j	800029aa <_printf_i+0x146>
80002a68:	431c                	lw	a5,0(a4)
80002a6a:	41d0                	lw	a2,4(a1)
80002a6c:	4581                	li	a1,0
80002a6e:	00478693          	addi	a3,a5,4
80002a72:	c314                	sw	a3,0(a4)
80002a74:	0007aa83          	lw	s5,0(a5)
80002a78:	8556                	mv	a0,s5
80002a7a:	674010ef          	jal	ra,800040ee <memchr>
80002a7e:	c501                	beqz	a0,80002a86 <_printf_i+0x222>
80002a80:	41550533          	sub	a0,a0,s5
80002a84:	c048                	sw	a0,4(s0)
80002a86:	405c                	lw	a5,4(s0)
80002a88:	c81c                	sw	a5,16(s0)
80002a8a:	040401a3          	sb	zero,67(s0)
80002a8e:	bf31                	j	800029aa <_printf_i+0x146>
80002a90:	4814                	lw	a3,16(s0)
80002a92:	8656                	mv	a2,s5
80002a94:	85ca                	mv	a1,s2
80002a96:	8526                	mv	a0,s1
80002a98:	9982                	jalr	s3
80002a9a:	f34501e3          	beq	a0,s4,800029bc <_printf_i+0x158>
80002a9e:	401c                	lw	a5,0(s0)
80002aa0:	8b89                	andi	a5,a5,2
80002aa2:	e78d                	bnez	a5,80002acc <_printf_i+0x268>
80002aa4:	47b2                	lw	a5,12(sp)
80002aa6:	4448                	lw	a0,12(s0)
80002aa8:	f0f55be3          	bge	a0,a5,800029be <_printf_i+0x15a>
80002aac:	853e                	mv	a0,a5
80002aae:	bf01                	j	800029be <_printf_i+0x15a>
80002ab0:	4685                	li	a3,1
80002ab2:	8656                	mv	a2,s5
80002ab4:	85ca                	mv	a1,s2
80002ab6:	8526                	mv	a0,s1
80002ab8:	9982                	jalr	s3
80002aba:	f16501e3          	beq	a0,s6,800029bc <_printf_i+0x158>
80002abe:	0a05                	addi	s4,s4,1
80002ac0:	445c                	lw	a5,12(s0)
80002ac2:	4732                	lw	a4,12(sp)
80002ac4:	8f99                	sub	a5,a5,a4
80002ac6:	fefa45e3          	blt	s4,a5,80002ab0 <_printf_i+0x24c>
80002aca:	bfe9                	j	80002aa4 <_printf_i+0x240>
80002acc:	4a01                	li	s4,0
80002ace:	01940a93          	addi	s5,s0,25
80002ad2:	5b7d                	li	s6,-1
80002ad4:	b7f5                	j	80002ac0 <_printf_i+0x25c>

80002ad6 <iprintf>:
printf():
80002ad6:	715d                	addi	sp,sp,-80
80002ad8:	d422                	sw	s0,40(sp)
80002ada:	d606                	sw	ra,44(sp)
80002adc:	842a                	mv	s0,a0
80002ade:	da2e                	sw	a1,52(sp)
80002ae0:	dc32                	sw	a2,56(sp)
80002ae2:	de36                	sw	a3,60(sp)
80002ae4:	c0ba                	sw	a4,64(sp)
80002ae6:	c2be                	sw	a5,68(sp)
80002ae8:	c4c2                	sw	a6,72(sp)
80002aea:	c6c6                	sw	a7,76(sp)
80002aec:	0fffd517          	auipc	a0,0xfffd
80002af0:	6ec52503          	lw	a0,1772(a0) # 900001d8 <_impure_ptr>
80002af4:	c519                	beqz	a0,80002b02 <iprintf+0x2c>
80002af6:	4d1c                	lw	a5,24(a0)
80002af8:	e789                	bnez	a5,80002b02 <iprintf+0x2c>
80002afa:	c62a                	sw	a0,12(sp)
80002afc:	376010ef          	jal	ra,80003e72 <__sinit>
80002b00:	4532                	lw	a0,12(sp)
80002b02:	450c                	lw	a1,8(a0)
80002b04:	1854                	addi	a3,sp,52
80002b06:	8622                	mv	a2,s0
80002b08:	ce36                	sw	a3,28(sp)
80002b0a:	21c020ef          	jal	ra,80004d26 <_vfiprintf_r>
80002b0e:	50b2                	lw	ra,44(sp)
80002b10:	5422                	lw	s0,40(sp)
80002b12:	6161                	addi	sp,sp,80
80002b14:	8082                	ret

80002b16 <putchar>:
putchar():
80002b16:	85aa                	mv	a1,a0
80002b18:	0fffd517          	auipc	a0,0xfffd
80002b1c:	6c052503          	lw	a0,1728(a0) # 900001d8 <_impure_ptr>
80002b20:	c105                	beqz	a0,80002b40 <putchar+0x2a>
80002b22:	4d1c                	lw	a5,24(a0)
80002b24:	ef91                	bnez	a5,80002b40 <putchar+0x2a>
80002b26:	1101                	addi	sp,sp,-32
80002b28:	ce06                	sw	ra,28(sp)
80002b2a:	c62e                	sw	a1,12(sp)
80002b2c:	c42a                	sw	a0,8(sp)
80002b2e:	344010ef          	jal	ra,80003e72 <__sinit>
80002b32:	4522                	lw	a0,8(sp)
80002b34:	45b2                	lw	a1,12(sp)
80002b36:	40f2                	lw	ra,28(sp)
80002b38:	4510                	lw	a2,8(a0)
80002b3a:	6105                	addi	sp,sp,32
80002b3c:	4880206f          	j	80004fc4 <_putc_r>
80002b40:	4510                	lw	a2,8(a0)
80002b42:	bfed                	j	80002b3c <putchar+0x26>

80002b44 <_puts_r>:
_puts_r():
80002b44:	1101                	addi	sp,sp,-32
80002b46:	ca26                	sw	s1,20(sp)
80002b48:	c84a                	sw	s2,16(sp)
80002b4a:	ce06                	sw	ra,28(sp)
80002b4c:	cc22                	sw	s0,24(sp)
80002b4e:	c64e                	sw	s3,12(sp)
80002b50:	c452                	sw	s4,8(sp)
80002b52:	84aa                	mv	s1,a0
80002b54:	892e                	mv	s2,a1
80002b56:	c509                	beqz	a0,80002b60 <_puts_r+0x1c>
80002b58:	4d1c                	lw	a5,24(a0)
80002b5a:	e399                	bnez	a5,80002b60 <_puts_r+0x1c>
80002b5c:	316010ef          	jal	ra,80003e72 <__sinit>
80002b60:	4c9c                	lw	a5,24(s1)
80002b62:	4480                	lw	s0,8(s1)
80002b64:	e781                	bnez	a5,80002b6c <_puts_r+0x28>
80002b66:	8526                	mv	a0,s1
80002b68:	30a010ef          	jal	ra,80003e72 <__sinit>
80002b6c:	00005797          	auipc	a5,0x5
80002b70:	99878793          	addi	a5,a5,-1640 # 80007504 <__sf_fake_stdin>
80002b74:	02f41c63          	bne	s0,a5,80002bac <_puts_r+0x68>
80002b78:	40c0                	lw	s0,4(s1)
80002b7a:	00c45783          	lhu	a5,12(s0)
80002b7e:	8ba1                	andi	a5,a5,8
80002b80:	c7b1                	beqz	a5,80002bcc <_puts_r+0x88>
80002b82:	481c                	lw	a5,16(s0)
80002b84:	c7a1                	beqz	a5,80002bcc <_puts_r+0x88>
80002b86:	59fd                	li	s3,-1
80002b88:	4a29                	li	s4,10
80002b8a:	441c                	lw	a5,8(s0)
80002b8c:	00094583          	lbu	a1,0(s2)
80002b90:	17fd                	addi	a5,a5,-1
80002b92:	e9b1                	bnez	a1,80002be6 <_puts_r+0xa2>
80002b94:	c41c                	sw	a5,8(s0)
80002b96:	0607de63          	bgez	a5,80002c12 <_puts_r+0xce>
80002b9a:	8622                	mv	a2,s0
80002b9c:	45a9                	li	a1,10
80002b9e:	8526                	mv	a0,s1
80002ba0:	2055                	jal	80002c44 <__swbuf_r>
80002ba2:	57fd                	li	a5,-1
80002ba4:	02f50863          	beq	a0,a5,80002bd4 <_puts_r+0x90>
80002ba8:	4529                	li	a0,10
80002baa:	a035                	j	80002bd6 <_puts_r+0x92>
80002bac:	00005797          	auipc	a5,0x5
80002bb0:	97878793          	addi	a5,a5,-1672 # 80007524 <__sf_fake_stdout>
80002bb4:	00f41463          	bne	s0,a5,80002bbc <_puts_r+0x78>
80002bb8:	4480                	lw	s0,8(s1)
80002bba:	b7c1                	j	80002b7a <_puts_r+0x36>
80002bbc:	00005797          	auipc	a5,0x5
80002bc0:	92878793          	addi	a5,a5,-1752 # 800074e4 <__sf_fake_stderr>
80002bc4:	faf41be3          	bne	s0,a5,80002b7a <_puts_r+0x36>
80002bc8:	44c0                	lw	s0,12(s1)
80002bca:	bf45                	j	80002b7a <_puts_r+0x36>
80002bcc:	85a2                	mv	a1,s0
80002bce:	8526                	mv	a0,s1
80002bd0:	2a2d                	jal	80002d0a <__swsetup_r>
80002bd2:	d955                	beqz	a0,80002b86 <_puts_r+0x42>
80002bd4:	557d                	li	a0,-1
80002bd6:	40f2                	lw	ra,28(sp)
80002bd8:	4462                	lw	s0,24(sp)
80002bda:	44d2                	lw	s1,20(sp)
80002bdc:	4942                	lw	s2,16(sp)
80002bde:	49b2                	lw	s3,12(sp)
80002be0:	4a22                	lw	s4,8(sp)
80002be2:	6105                	addi	sp,sp,32
80002be4:	8082                	ret
80002be6:	c41c                	sw	a5,8(s0)
80002be8:	0905                	addi	s2,s2,1
80002bea:	0007d763          	bgez	a5,80002bf8 <_puts_r+0xb4>
80002bee:	4c18                	lw	a4,24(s0)
80002bf0:	00e7cb63          	blt	a5,a4,80002c06 <_puts_r+0xc2>
80002bf4:	01458963          	beq	a1,s4,80002c06 <_puts_r+0xc2>
80002bf8:	401c                	lw	a5,0(s0)
80002bfa:	00178713          	addi	a4,a5,1
80002bfe:	c018                	sw	a4,0(s0)
80002c00:	00b78023          	sb	a1,0(a5)
80002c04:	b759                	j	80002b8a <_puts_r+0x46>
80002c06:	8622                	mv	a2,s0
80002c08:	8526                	mv	a0,s1
80002c0a:	282d                	jal	80002c44 <__swbuf_r>
80002c0c:	f7351fe3          	bne	a0,s3,80002b8a <_puts_r+0x46>
80002c10:	b7d1                	j	80002bd4 <_puts_r+0x90>
80002c12:	401c                	lw	a5,0(s0)
80002c14:	00178713          	addi	a4,a5,1
80002c18:	c018                	sw	a4,0(s0)
80002c1a:	4729                	li	a4,10
80002c1c:	00e78023          	sb	a4,0(a5)
80002c20:	b761                	j	80002ba8 <_puts_r+0x64>

80002c22 <puts>:
puts():
80002c22:	85aa                	mv	a1,a0
80002c24:	0fffd517          	auipc	a0,0xfffd
80002c28:	5b452503          	lw	a0,1460(a0) # 900001d8 <_impure_ptr>
80002c2c:	bf21                	j	80002b44 <_puts_r>

80002c2e <strlen>:
strlen():
80002c2e:	87aa                	mv	a5,a0
80002c30:	0007c703          	lbu	a4,0(a5)
80002c34:	0785                	addi	a5,a5,1
80002c36:	ff6d                	bnez	a4,80002c30 <strlen+0x2>
80002c38:	40a78533          	sub	a0,a5,a0
80002c3c:	157d                	addi	a0,a0,-1
80002c3e:	8082                	ret

80002c40 <isatty>:
isatty():
80002c40:	f60fd06f          	j	800003a0 <_isatty>

80002c44 <__swbuf_r>:
__swbuf_r():
80002c44:	1101                	addi	sp,sp,-32
80002c46:	cc22                	sw	s0,24(sp)
80002c48:	ca26                	sw	s1,20(sp)
80002c4a:	c84a                	sw	s2,16(sp)
80002c4c:	ce06                	sw	ra,28(sp)
80002c4e:	c64e                	sw	s3,12(sp)
80002c50:	84aa                	mv	s1,a0
80002c52:	892e                	mv	s2,a1
80002c54:	8432                	mv	s0,a2
80002c56:	c509                	beqz	a0,80002c60 <__swbuf_r+0x1c>
80002c58:	4d1c                	lw	a5,24(a0)
80002c5a:	e399                	bnez	a5,80002c60 <__swbuf_r+0x1c>
80002c5c:	216010ef          	jal	ra,80003e72 <__sinit>
80002c60:	00005797          	auipc	a5,0x5
80002c64:	8a478793          	addi	a5,a5,-1884 # 80007504 <__sf_fake_stdin>
80002c68:	06f41b63          	bne	s0,a5,80002cde <__swbuf_r+0x9a>
80002c6c:	40c0                	lw	s0,4(s1)
80002c6e:	4c1c                	lw	a5,24(s0)
80002c70:	c41c                	sw	a5,8(s0)
80002c72:	00c45783          	lhu	a5,12(s0)
80002c76:	8ba1                	andi	a5,a5,8
80002c78:	c3d9                	beqz	a5,80002cfe <__swbuf_r+0xba>
80002c7a:	481c                	lw	a5,16(s0)
80002c7c:	c3c9                	beqz	a5,80002cfe <__swbuf_r+0xba>
80002c7e:	481c                	lw	a5,16(s0)
80002c80:	4008                	lw	a0,0(s0)
80002c82:	0ff97993          	zext.b	s3,s2
80002c86:	0ff97913          	zext.b	s2,s2
80002c8a:	8d1d                	sub	a0,a0,a5
80002c8c:	485c                	lw	a5,20(s0)
80002c8e:	00f54763          	blt	a0,a5,80002c9c <__swbuf_r+0x58>
80002c92:	85a2                	mv	a1,s0
80002c94:	8526                	mv	a0,s1
80002c96:	0c0010ef          	jal	ra,80003d56 <_fflush_r>
80002c9a:	e535                	bnez	a0,80002d06 <__swbuf_r+0xc2>
80002c9c:	441c                	lw	a5,8(s0)
80002c9e:	0505                	addi	a0,a0,1
80002ca0:	17fd                	addi	a5,a5,-1
80002ca2:	c41c                	sw	a5,8(s0)
80002ca4:	401c                	lw	a5,0(s0)
80002ca6:	00178713          	addi	a4,a5,1
80002caa:	c018                	sw	a4,0(s0)
80002cac:	01378023          	sb	s3,0(a5)
80002cb0:	485c                	lw	a5,20(s0)
80002cb2:	00a78963          	beq	a5,a0,80002cc4 <__swbuf_r+0x80>
80002cb6:	00c45783          	lhu	a5,12(s0)
80002cba:	8b85                	andi	a5,a5,1
80002cbc:	cb89                	beqz	a5,80002cce <__swbuf_r+0x8a>
80002cbe:	47a9                	li	a5,10
80002cc0:	00f91763          	bne	s2,a5,80002cce <__swbuf_r+0x8a>
80002cc4:	85a2                	mv	a1,s0
80002cc6:	8526                	mv	a0,s1
80002cc8:	08e010ef          	jal	ra,80003d56 <_fflush_r>
80002ccc:	ed0d                	bnez	a0,80002d06 <__swbuf_r+0xc2>
80002cce:	40f2                	lw	ra,28(sp)
80002cd0:	4462                	lw	s0,24(sp)
80002cd2:	44d2                	lw	s1,20(sp)
80002cd4:	49b2                	lw	s3,12(sp)
80002cd6:	854a                	mv	a0,s2
80002cd8:	4942                	lw	s2,16(sp)
80002cda:	6105                	addi	sp,sp,32
80002cdc:	8082                	ret
80002cde:	00005797          	auipc	a5,0x5
80002ce2:	84678793          	addi	a5,a5,-1978 # 80007524 <__sf_fake_stdout>
80002ce6:	00f41463          	bne	s0,a5,80002cee <__swbuf_r+0xaa>
80002cea:	4480                	lw	s0,8(s1)
80002cec:	b749                	j	80002c6e <__swbuf_r+0x2a>
80002cee:	00004797          	auipc	a5,0x4
80002cf2:	7f678793          	addi	a5,a5,2038 # 800074e4 <__sf_fake_stderr>
80002cf6:	f6f41ce3          	bne	s0,a5,80002c6e <__swbuf_r+0x2a>
80002cfa:	44c0                	lw	s0,12(s1)
80002cfc:	bf8d                	j	80002c6e <__swbuf_r+0x2a>
80002cfe:	85a2                	mv	a1,s0
80002d00:	8526                	mv	a0,s1
80002d02:	2021                	jal	80002d0a <__swsetup_r>
80002d04:	dd2d                	beqz	a0,80002c7e <__swbuf_r+0x3a>
80002d06:	597d                	li	s2,-1
80002d08:	b7d9                	j	80002cce <__swbuf_r+0x8a>

80002d0a <__swsetup_r>:
__swsetup_r():
80002d0a:	1141                	addi	sp,sp,-16
80002d0c:	c422                	sw	s0,8(sp)
80002d0e:	c226                	sw	s1,4(sp)
80002d10:	c04a                	sw	s2,0(sp)
80002d12:	c606                	sw	ra,12(sp)
80002d14:	0fffd497          	auipc	s1,0xfffd
80002d18:	4c44a483          	lw	s1,1220(s1) # 900001d8 <_impure_ptr>
80002d1c:	892a                	mv	s2,a0
80002d1e:	842e                	mv	s0,a1
80002d20:	c491                	beqz	s1,80002d2c <__swsetup_r+0x22>
80002d22:	4c9c                	lw	a5,24(s1)
80002d24:	e781                	bnez	a5,80002d2c <__swsetup_r+0x22>
80002d26:	8526                	mv	a0,s1
80002d28:	14a010ef          	jal	ra,80003e72 <__sinit>
80002d2c:	00004797          	auipc	a5,0x4
80002d30:	7d878793          	addi	a5,a5,2008 # 80007504 <__sf_fake_stdin>
80002d34:	02f41763          	bne	s0,a5,80002d62 <__swsetup_r+0x58>
80002d38:	40c0                	lw	s0,4(s1)
80002d3a:	00c41783          	lh	a5,12(s0)
80002d3e:	01079713          	slli	a4,a5,0x10
80002d42:	0087f693          	andi	a3,a5,8
80002d46:	8341                	srli	a4,a4,0x10
80002d48:	eab5                	bnez	a3,80002dbc <__swsetup_r+0xb2>
80002d4a:	01077693          	andi	a3,a4,16
80002d4e:	ea95                	bnez	a3,80002d82 <__swsetup_r+0x78>
80002d50:	4725                	li	a4,9
80002d52:	00e92023          	sw	a4,0(s2)
80002d56:	0407e793          	ori	a5,a5,64
80002d5a:	00f41623          	sh	a5,12(s0)
80002d5e:	557d                	li	a0,-1
80002d60:	a045                	j	80002e00 <__swsetup_r+0xf6>
80002d62:	00004797          	auipc	a5,0x4
80002d66:	7c278793          	addi	a5,a5,1986 # 80007524 <__sf_fake_stdout>
80002d6a:	00f41463          	bne	s0,a5,80002d72 <__swsetup_r+0x68>
80002d6e:	4480                	lw	s0,8(s1)
80002d70:	b7e9                	j	80002d3a <__swsetup_r+0x30>
80002d72:	00004797          	auipc	a5,0x4
80002d76:	77278793          	addi	a5,a5,1906 # 800074e4 <__sf_fake_stderr>
80002d7a:	fcf410e3          	bne	s0,a5,80002d3a <__swsetup_r+0x30>
80002d7e:	44c0                	lw	s0,12(s1)
80002d80:	bf6d                	j	80002d3a <__swsetup_r+0x30>
80002d82:	8b11                	andi	a4,a4,4
80002d84:	c715                	beqz	a4,80002db0 <__swsetup_r+0xa6>
80002d86:	584c                	lw	a1,52(s0)
80002d88:	c991                	beqz	a1,80002d9c <__swsetup_r+0x92>
80002d8a:	04440793          	addi	a5,s0,68
80002d8e:	00f58563          	beq	a1,a5,80002d98 <__swsetup_r+0x8e>
80002d92:	854a                	mv	a0,s2
80002d94:	5b5010ef          	jal	ra,80004b48 <_free_r>
80002d98:	02042a23          	sw	zero,52(s0)
80002d9c:	00c45783          	lhu	a5,12(s0)
80002da0:	00042223          	sw	zero,4(s0)
80002da4:	fdb7f793          	andi	a5,a5,-37
80002da8:	00f41623          	sh	a5,12(s0)
80002dac:	481c                	lw	a5,16(s0)
80002dae:	c01c                	sw	a5,0(s0)
80002db0:	00c45783          	lhu	a5,12(s0)
80002db4:	0087e793          	ori	a5,a5,8
80002db8:	00f41623          	sh	a5,12(s0)
80002dbc:	481c                	lw	a5,16(s0)
80002dbe:	ef89                	bnez	a5,80002dd8 <__swsetup_r+0xce>
80002dc0:	00c45783          	lhu	a5,12(s0)
80002dc4:	20000713          	li	a4,512
80002dc8:	2807f793          	andi	a5,a5,640
80002dcc:	00e78663          	beq	a5,a4,80002dd8 <__swsetup_r+0xce>
80002dd0:	85a2                	mv	a1,s0
80002dd2:	854a                	mv	a0,s2
80002dd4:	26c010ef          	jal	ra,80004040 <__smakebuf_r>
80002dd8:	00c41783          	lh	a5,12(s0)
80002ddc:	01079713          	slli	a4,a5,0x10
80002de0:	0017f693          	andi	a3,a5,1
80002de4:	8341                	srli	a4,a4,0x10
80002de6:	c29d                	beqz	a3,80002e0c <__swsetup_r+0x102>
80002de8:	4854                	lw	a3,20(s0)
80002dea:	00042423          	sw	zero,8(s0)
80002dee:	40d006b3          	neg	a3,a3
80002df2:	cc14                	sw	a3,24(s0)
80002df4:	4814                	lw	a3,16(s0)
80002df6:	4501                	li	a0,0
80002df8:	e681                	bnez	a3,80002e00 <__swsetup_r+0xf6>
80002dfa:	08077713          	andi	a4,a4,128
80002dfe:	ff21                	bnez	a4,80002d56 <__swsetup_r+0x4c>
80002e00:	40b2                	lw	ra,12(sp)
80002e02:	4422                	lw	s0,8(sp)
80002e04:	4492                	lw	s1,4(sp)
80002e06:	4902                	lw	s2,0(sp)
80002e08:	0141                	addi	sp,sp,16
80002e0a:	8082                	ret
80002e0c:	00277693          	andi	a3,a4,2
80002e10:	4601                	li	a2,0
80002e12:	e291                	bnez	a3,80002e16 <__swsetup_r+0x10c>
80002e14:	4850                	lw	a2,20(s0)
80002e16:	c410                	sw	a2,8(s0)
80002e18:	bff1                	j	80002df4 <__swsetup_r+0xea>

80002e1a <__register_exitproc>:
__register_exitproc():
80002e1a:	88aa                	mv	a7,a0
80002e1c:	86818513          	addi	a0,gp,-1944 # 90000238 <_global_atexit>
80002e20:	411c                	lw	a5,0(a0)
80002e22:	ef81                	bnez	a5,80002e3a <__register_exitproc+0x20>
80002e24:	90c18713          	addi	a4,gp,-1780 # 900002dc <_global_atexit0>
80002e28:	c118                	sw	a4,0(a0)
80002e2a:	00000513          	li	a0,0
80002e2e:	87ba                	mv	a5,a4
80002e30:	c509                	beqz	a0,80002e3a <__register_exitproc+0x20>
80002e32:	411c                	lw	a5,0(a0)
80002e34:	08f72423          	sw	a5,136(a4)
80002e38:	87ba                	mv	a5,a4
80002e3a:	43d8                	lw	a4,4(a5)
80002e3c:	487d                	li	a6,31
80002e3e:	557d                	li	a0,-1
80002e40:	04e84663          	blt	a6,a4,80002e8c <__register_exitproc+0x72>
80002e44:	02088d63          	beqz	a7,80002e7e <__register_exitproc+0x64>
80002e48:	0887a803          	lw	a6,136(a5)
80002e4c:	04080063          	beqz	a6,80002e8c <__register_exitproc+0x72>
80002e50:	00271513          	slli	a0,a4,0x2
80002e54:	9542                	add	a0,a0,a6
80002e56:	c110                	sw	a2,0(a0)
80002e58:	10082303          	lw	t1,256(a6)
80002e5c:	4605                	li	a2,1
80002e5e:	00e61633          	sll	a2,a2,a4
80002e62:	00c36333          	or	t1,t1,a2
80002e66:	10682023          	sw	t1,256(a6)
80002e6a:	08d52023          	sw	a3,128(a0)
80002e6e:	4689                	li	a3,2
80002e70:	00d89763          	bne	a7,a3,80002e7e <__register_exitproc+0x64>
80002e74:	10482683          	lw	a3,260(a6)
80002e78:	8e55                	or	a2,a2,a3
80002e7a:	10c82223          	sw	a2,260(a6)
80002e7e:	00170693          	addi	a3,a4,1
80002e82:	070a                	slli	a4,a4,0x2
80002e84:	c3d4                	sw	a3,4(a5)
80002e86:	97ba                	add	a5,a5,a4
80002e88:	c78c                	sw	a1,8(a5)
80002e8a:	4501                	li	a0,0
80002e8c:	8082                	ret

80002e8e <quorem>:
quorem():
80002e8e:	1101                	addi	sp,sp,-32
80002e90:	cc22                	sw	s0,24(sp)
80002e92:	491c                	lw	a5,16(a0)
80002e94:	4980                	lw	s0,16(a1)
80002e96:	ce06                	sw	ra,28(sp)
80002e98:	ca26                	sw	s1,20(sp)
80002e9a:	c84a                	sw	s2,16(sp)
80002e9c:	c64e                	sw	s3,12(sp)
80002e9e:	c452                	sw	s4,8(sp)
80002ea0:	c256                	sw	s5,4(sp)
80002ea2:	1087ca63          	blt	a5,s0,80002fb6 <quorem+0x128>
80002ea6:	147d                	addi	s0,s0,-1
80002ea8:	00241613          	slli	a2,s0,0x2
80002eac:	01458a13          	addi	s4,a1,20
80002eb0:	00ca0ab3          	add	s5,s4,a2
80002eb4:	01450993          	addi	s3,a0,20
80002eb8:	000aa783          	lw	a5,0(s5)
80002ebc:	964e                	add	a2,a2,s3
80002ebe:	4218                	lw	a4,0(a2)
80002ec0:	0785                	addi	a5,a5,1
80002ec2:	892a                	mv	s2,a0
80002ec4:	02f754b3          	divu	s1,a4,a5
80002ec8:	06f76263          	bltu	a4,a5,80002f2c <quorem+0x9e>
80002ecc:	6541                	lui	a0,0x10
80002ece:	8852                	mv	a6,s4
80002ed0:	88ce                	mv	a7,s3
80002ed2:	4301                	li	t1,0
80002ed4:	4e01                	li	t3,0
80002ed6:	157d                	addi	a0,a0,-1
80002ed8:	00082683          	lw	a3,0(a6)
80002edc:	0891                	addi	a7,a7,4
80002ede:	0811                	addi	a6,a6,4
80002ee0:	00a6f7b3          	and	a5,a3,a0
80002ee4:	82c1                	srli	a3,a3,0x10
80002ee6:	029787b3          	mul	a5,a5,s1
80002eea:	029686b3          	mul	a3,a3,s1
80002eee:	979a                	add	a5,a5,t1
80002ef0:	0107d713          	srli	a4,a5,0x10
80002ef4:	8fe9                	and	a5,a5,a0
80002ef6:	40fe07b3          	sub	a5,t3,a5
80002efa:	96ba                	add	a3,a3,a4
80002efc:	ffc8a703          	lw	a4,-4(a7)
80002f00:	0106d313          	srli	t1,a3,0x10
80002f04:	8ee9                	and	a3,a3,a0
80002f06:	00a77e33          	and	t3,a4,a0
80002f0a:	97f2                	add	a5,a5,t3
80002f0c:	8341                	srli	a4,a4,0x10
80002f0e:	8f15                	sub	a4,a4,a3
80002f10:	4107d693          	srai	a3,a5,0x10
80002f14:	9736                	add	a4,a4,a3
80002f16:	41075e13          	srai	t3,a4,0x10
80002f1a:	8fe9                	and	a5,a5,a0
80002f1c:	0742                	slli	a4,a4,0x10
80002f1e:	8fd9                	or	a5,a5,a4
80002f20:	fef8ae23          	sw	a5,-4(a7)
80002f24:	fb0afae3          	bgeu	s5,a6,80002ed8 <quorem+0x4a>
80002f28:	421c                	lw	a5,0(a2)
80002f2a:	c7bd                	beqz	a5,80002f98 <quorem+0x10a>
80002f2c:	854a                	mv	a0,s2
80002f2e:	165010ef          	jal	ra,80004892 <__mcmp>
80002f32:	04054663          	bltz	a0,80002f7e <quorem+0xf0>
80002f36:	66c1                	lui	a3,0x10
80002f38:	0485                	addi	s1,s1,1
80002f3a:	864e                	mv	a2,s3
80002f3c:	4581                	li	a1,0
80002f3e:	16fd                	addi	a3,a3,-1
80002f40:	000a2503          	lw	a0,0(s4)
80002f44:	421c                	lw	a5,0(a2)
80002f46:	0611                	addi	a2,a2,4
80002f48:	00d57733          	and	a4,a0,a3
80002f4c:	8d99                	sub	a1,a1,a4
80002f4e:	00d7f733          	and	a4,a5,a3
80002f52:	972e                	add	a4,a4,a1
80002f54:	83c1                	srli	a5,a5,0x10
80002f56:	8141                	srli	a0,a0,0x10
80002f58:	41075593          	srai	a1,a4,0x10
80002f5c:	8f89                	sub	a5,a5,a0
80002f5e:	97ae                	add	a5,a5,a1
80002f60:	4107d593          	srai	a1,a5,0x10
80002f64:	8f75                	and	a4,a4,a3
80002f66:	07c2                	slli	a5,a5,0x10
80002f68:	8fd9                	or	a5,a5,a4
80002f6a:	0a11                	addi	s4,s4,4
80002f6c:	fef62e23          	sw	a5,-4(a2)
80002f70:	fd4af8e3          	bgeu	s5,s4,80002f40 <quorem+0xb2>
80002f74:	00241793          	slli	a5,s0,0x2
80002f78:	97ce                	add	a5,a5,s3
80002f7a:	4398                	lw	a4,0(a5)
80002f7c:	c71d                	beqz	a4,80002faa <quorem+0x11c>
80002f7e:	8526                	mv	a0,s1
80002f80:	40f2                	lw	ra,28(sp)
80002f82:	4462                	lw	s0,24(sp)
80002f84:	44d2                	lw	s1,20(sp)
80002f86:	4942                	lw	s2,16(sp)
80002f88:	49b2                	lw	s3,12(sp)
80002f8a:	4a22                	lw	s4,8(sp)
80002f8c:	4a92                	lw	s5,4(sp)
80002f8e:	6105                	addi	sp,sp,32
80002f90:	8082                	ret
80002f92:	421c                	lw	a5,0(a2)
80002f94:	e789                	bnez	a5,80002f9e <quorem+0x110>
80002f96:	147d                	addi	s0,s0,-1
80002f98:	1671                	addi	a2,a2,-4
80002f9a:	fec9ece3          	bltu	s3,a2,80002f92 <quorem+0x104>
80002f9e:	00892823          	sw	s0,16(s2)
80002fa2:	b769                	j	80002f2c <quorem+0x9e>
80002fa4:	4398                	lw	a4,0(a5)
80002fa6:	e709                	bnez	a4,80002fb0 <quorem+0x122>
80002fa8:	147d                	addi	s0,s0,-1
80002faa:	17f1                	addi	a5,a5,-4
80002fac:	fef9ece3          	bltu	s3,a5,80002fa4 <quorem+0x116>
80002fb0:	00892823          	sw	s0,16(s2)
80002fb4:	b7e9                	j	80002f7e <quorem+0xf0>
80002fb6:	4501                	li	a0,0
80002fb8:	b7e1                	j	80002f80 <quorem+0xf2>

80002fba <_dtoa_r>:
_dtoa_r():
80002fba:	7135                	addi	sp,sp,-160
80002fbc:	dc3e                	sw	a5,56(sp)
80002fbe:	515c                	lw	a5,36(a0)
80002fc0:	cd22                	sw	s0,152(sp)
80002fc2:	cb26                	sw	s1,148(sp)
80002fc4:	c94a                	sw	s2,144(sp)
80002fc6:	c74e                	sw	s3,140(sp)
80002fc8:	c356                	sw	s5,132(sp)
80002fca:	c15a                	sw	s6,128(sp)
80002fcc:	cf06                	sw	ra,156(sp)
80002fce:	c552                	sw	s4,136(sp)
80002fd0:	dede                	sw	s7,124(sp)
80002fd2:	dce2                	sw	s8,120(sp)
80002fd4:	dae6                	sw	s9,116(sp)
80002fd6:	d8ea                	sw	s10,112(sp)
80002fd8:	d6ee                	sw	s11,108(sp)
80002fda:	ca36                	sw	a3,20(sp)
80002fdc:	d03a                	sw	a4,32(sp)
80002fde:	d246                	sw	a7,36(sp)
80002fe0:	84aa                	mv	s1,a0
80002fe2:	8aae                	mv	s5,a1
80002fe4:	8432                	mv	s0,a2
80002fe6:	8942                	mv	s2,a6
80002fe8:	89ae                	mv	s3,a1
80002fea:	8b32                	mv	s6,a2
80002fec:	eb9d                	bnez	a5,80003022 <_dtoa_r+0x68>
80002fee:	4541                	li	a0,16
80002ff0:	0f0010ef          	jal	ra,800040e0 <malloc>
80002ff4:	d0c8                	sw	a0,36(s1)
80002ff6:	ed11                	bnez	a0,80003012 <_dtoa_r+0x58>
80002ff8:	00004697          	auipc	a3,0x4
80002ffc:	46c68693          	addi	a3,a3,1132 # 80007464 <__clz_tab+0x1a4>
80003000:	4601                	li	a2,0
80003002:	0ea00593          	li	a1,234
80003006:	00004517          	auipc	a0,0x4
8000300a:	47650513          	addi	a0,a0,1142 # 8000747c <__clz_tab+0x1bc>
8000300e:	14a020ef          	jal	ra,80005158 <__assert_func>
80003012:	00052223          	sw	zero,4(a0)
80003016:	00052423          	sw	zero,8(a0)
8000301a:	00052023          	sw	zero,0(a0)
8000301e:	00052623          	sw	zero,12(a0)
80003022:	50dc                	lw	a5,36(s1)
80003024:	438c                	lw	a1,0(a5)
80003026:	cd89                	beqz	a1,80003040 <_dtoa_r+0x86>
80003028:	43d8                	lw	a4,4(a5)
8000302a:	4785                	li	a5,1
8000302c:	8526                	mv	a0,s1
8000302e:	00e797b3          	sll	a5,a5,a4
80003032:	c59c                	sw	a5,8(a1)
80003034:	c1d8                	sw	a4,4(a1)
80003036:	302010ef          	jal	ra,80004338 <_Bfree>
8000303a:	50dc                	lw	a5,36(s1)
8000303c:	0007a023          	sw	zero,0(a5)
80003040:	04045263          	bgez	s0,80003084 <_dtoa_r+0xca>
80003044:	4785                	li	a5,1
80003046:	0406                	slli	s0,s0,0x1
80003048:	00f92023          	sw	a5,0(s2)
8000304c:	00145b13          	srli	s6,s0,0x1
80003050:	7ff007b7          	lui	a5,0x7ff00
80003054:	00fb7733          	and	a4,s6,a5
80003058:	06f71463          	bne	a4,a5,800030c0 <_dtoa_r+0x106>
8000305c:	5762                	lw	a4,56(sp)
8000305e:	6789                	lui	a5,0x2
80003060:	0b32                	slli	s6,s6,0xc
80003062:	70f78793          	addi	a5,a5,1807 # 270f <__stack_size+0x1f0f>
80003066:	00cb5b13          	srli	s6,s6,0xc
8000306a:	c31c                	sw	a5,0(a4)
8000306c:	015b6ab3          	or	s5,s6,s5
80003070:	340a82e3          	beqz	s5,80003bb4 <_dtoa_r+0xbfa>
80003074:	5792                	lw	a5,36(sp)
80003076:	eb91                	bnez	a5,8000308a <_dtoa_r+0xd0>
80003078:	00004797          	auipc	a5,0x4
8000307c:	3e878793          	addi	a5,a5,1000 # 80007460 <__clz_tab+0x1a0>
80003080:	c63e                	sw	a5,12(sp)
80003082:	a839                	j	800030a0 <_dtoa_r+0xe6>
80003084:	00092023          	sw	zero,0(s2)
80003088:	b7e1                	j	80003050 <_dtoa_r+0x96>
8000308a:	00004797          	auipc	a5,0x4
8000308e:	3d678793          	addi	a5,a5,982 # 80007460 <__clz_tab+0x1a0>
80003092:	c63e                	sw	a5,12(sp)
80003094:	00004797          	auipc	a5,0x4
80003098:	3cf78793          	addi	a5,a5,975 # 80007463 <__clz_tab+0x1a3>
8000309c:	5712                	lw	a4,36(sp)
8000309e:	c31c                	sw	a5,0(a4)
800030a0:	40fa                	lw	ra,156(sp)
800030a2:	446a                	lw	s0,152(sp)
800030a4:	4532                	lw	a0,12(sp)
800030a6:	44da                	lw	s1,148(sp)
800030a8:	494a                	lw	s2,144(sp)
800030aa:	49ba                	lw	s3,140(sp)
800030ac:	4a2a                	lw	s4,136(sp)
800030ae:	4a9a                	lw	s5,132(sp)
800030b0:	4b0a                	lw	s6,128(sp)
800030b2:	5bf6                	lw	s7,124(sp)
800030b4:	5c66                	lw	s8,120(sp)
800030b6:	5cd6                	lw	s9,116(sp)
800030b8:	5d46                	lw	s10,112(sp)
800030ba:	5db6                	lw	s11,108(sp)
800030bc:	610d                	addi	sp,sp,160
800030be:	8082                	ret
800030c0:	4601                	li	a2,0
800030c2:	4681                	li	a3,0
800030c4:	8556                	mv	a0,s5
800030c6:	85da                	mv	a1,s6
800030c8:	d656                	sw	s5,44(sp)
800030ca:	d85a                	sw	s6,48(sp)
800030cc:	615020ef          	jal	ra,80005ee0 <__eqdf2>
800030d0:	e105                	bnez	a0,800030f0 <_dtoa_r+0x136>
800030d2:	5762                	lw	a4,56(sp)
800030d4:	4785                	li	a5,1
800030d6:	c31c                	sw	a5,0(a4)
800030d8:	00004797          	auipc	a5,0x4
800030dc:	2f878793          	addi	a5,a5,760 # 800073d0 <__clz_tab+0x110>
800030e0:	c63e                	sw	a5,12(sp)
800030e2:	5792                	lw	a5,36(sp)
800030e4:	dfd5                	beqz	a5,800030a0 <_dtoa_r+0xe6>
800030e6:	00004797          	auipc	a5,0x4
800030ea:	2eb78793          	addi	a5,a5,747 # 800073d1 <__clz_tab+0x111>
800030ee:	b77d                	j	8000309c <_dtoa_r+0xe2>
800030f0:	08b8                	addi	a4,sp,88
800030f2:	08f4                	addi	a3,sp,92
800030f4:	865a                	mv	a2,s6
800030f6:	85d6                	mv	a1,s5
800030f8:	8526                	mv	a0,s1
800030fa:	014b5913          	srli	s2,s6,0x14
800030fe:	127010ef          	jal	ra,80004a24 <__d2b>
80003102:	7ff97913          	andi	s2,s2,2047
80003106:	4a66                	lw	s4,88(sp)
80003108:	842a                	mv	s0,a0
8000310a:	12090663          	beqz	s2,80003236 <_dtoa_r+0x27c>
8000310e:	57c2                	lw	a5,48(sp)
80003110:	5532                	lw	a0,44(sp)
80003112:	c0190913          	addi	s2,s2,-1023
80003116:	00c79593          	slli	a1,a5,0xc
8000311a:	81b1                	srli	a1,a1,0xc
8000311c:	3ff007b7          	lui	a5,0x3ff00
80003120:	8ddd                	or	a1,a1,a5
80003122:	c082                	sw	zero,64(sp)
80003124:	0fffd797          	auipc	a5,0xfffd
80003128:	0c478793          	addi	a5,a5,196 # 900001e8 <_impure_ptr+0x10>
8000312c:	4390                	lw	a2,0(a5)
8000312e:	43d4                	lw	a3,4(a5)
80003130:	3a8030ef          	jal	ra,800064d8 <__subdf3>
80003134:	0fffd797          	auipc	a5,0xfffd
80003138:	0bc78793          	addi	a5,a5,188 # 900001f0 <_impure_ptr+0x18>
8000313c:	4390                	lw	a2,0(a5)
8000313e:	43d4                	lw	a3,4(a5)
80003140:	757020ef          	jal	ra,80006096 <__muldf3>
80003144:	0fffd797          	auipc	a5,0xfffd
80003148:	0b478793          	addi	a5,a5,180 # 900001f8 <_impure_ptr+0x20>
8000314c:	4390                	lw	a2,0(a5)
8000314e:	43d4                	lw	a3,4(a5)
80003150:	246020ef          	jal	ra,80005396 <__adddf3>
80003154:	8baa                	mv	s7,a0
80003156:	854a                	mv	a0,s2
80003158:	8aae                	mv	s5,a1
8000315a:	235030ef          	jal	ra,80006b8e <__floatsidf>
8000315e:	0fffd797          	auipc	a5,0xfffd
80003162:	0a278793          	addi	a5,a5,162 # 90000200 <_impure_ptr+0x28>
80003166:	4390                	lw	a2,0(a5)
80003168:	43d4                	lw	a3,4(a5)
8000316a:	72d020ef          	jal	ra,80006096 <__muldf3>
8000316e:	862a                	mv	a2,a0
80003170:	86ae                	mv	a3,a1
80003172:	855e                	mv	a0,s7
80003174:	85d6                	mv	a1,s5
80003176:	220020ef          	jal	ra,80005396 <__adddf3>
8000317a:	8baa                	mv	s7,a0
8000317c:	8aae                	mv	s5,a1
8000317e:	1ad030ef          	jal	ra,80006b2a <__fixdfsi>
80003182:	8daa                	mv	s11,a0
80003184:	4601                	li	a2,0
80003186:	4681                	li	a3,0
80003188:	855e                	mv	a0,s7
8000318a:	85d6                	mv	a1,s5
8000318c:	665020ef          	jal	ra,80005ff0 <__ledf2>
80003190:	00055b63          	bgez	a0,800031a6 <_dtoa_r+0x1ec>
80003194:	856e                	mv	a0,s11
80003196:	1f9030ef          	jal	ra,80006b8e <__floatsidf>
8000319a:	865e                	mv	a2,s7
8000319c:	86d6                	mv	a3,s5
8000319e:	543020ef          	jal	ra,80005ee0 <__eqdf2>
800031a2:	c111                	beqz	a0,800031a6 <_dtoa_r+0x1ec>
800031a4:	1dfd                	addi	s11,s11,-1
800031a6:	4705                	li	a4,1
800031a8:	47d9                	li	a5,22
800031aa:	da3a                	sw	a4,52(sp)
800031ac:	03b7e363          	bltu	a5,s11,800031d2 <_dtoa_r+0x218>
800031b0:	003d9713          	slli	a4,s11,0x3
800031b4:	00004797          	auipc	a5,0x4
800031b8:	40c78793          	addi	a5,a5,1036 # 800075c0 <__mprec_tens>
800031bc:	97ba                	add	a5,a5,a4
800031be:	4390                	lw	a2,0(a5)
800031c0:	43d4                	lw	a3,4(a5)
800031c2:	5532                	lw	a0,44(sp)
800031c4:	55c2                	lw	a1,48(sp)
800031c6:	62b020ef          	jal	ra,80005ff0 <__ledf2>
800031ca:	00055363          	bgez	a0,800031d0 <_dtoa_r+0x216>
800031ce:	1dfd                	addi	s11,s11,-1
800031d0:	da02                	sw	zero,52(sp)
800031d2:	412a0933          	sub	s2,s4,s2
800031d6:	fff90c13          	addi	s8,s2,-1
800031da:	4b81                	li	s7,0
800031dc:	000c5663          	bgez	s8,800031e8 <_dtoa_r+0x22e>
800031e0:	4b85                	li	s7,1
800031e2:	412b8bb3          	sub	s7,s7,s2
800031e6:	4c01                	li	s8,0
800031e8:	080dc863          	bltz	s11,80003278 <_dtoa_r+0x2be>
800031ec:	9c6e                	add	s8,s8,s11
800031ee:	d46e                	sw	s11,40(sp)
800031f0:	4c81                	li	s9,0
800031f2:	4752                	lw	a4,20(sp)
800031f4:	47a5                	li	a5,9
800031f6:	0ee7e563          	bltu	a5,a4,800032e0 <_dtoa_r+0x326>
800031fa:	4795                	li	a5,5
800031fc:	4905                	li	s2,1
800031fe:	00e7d663          	bge	a5,a4,8000320a <_dtoa_r+0x250>
80003202:	ffc70793          	addi	a5,a4,-4
80003206:	ca3e                	sw	a5,20(sp)
80003208:	4901                	li	s2,0
8000320a:	4752                	lw	a4,20(sp)
8000320c:	4791                	li	a5,4
8000320e:	06f70b63          	beq	a4,a5,80003284 <_dtoa_r+0x2ca>
80003212:	4795                	li	a5,5
80003214:	0af70a63          	beq	a4,a5,800032c8 <_dtoa_r+0x30e>
80003218:	4789                	li	a5,2
8000321a:	0af70563          	beq	a4,a5,800032c4 <_dtoa_r+0x30a>
8000321e:	478d                	li	a5,3
80003220:	ce02                	sw	zero,28(sp)
80003222:	0af70563          	beq	a4,a5,800032cc <_dtoa_r+0x312>
80003226:	4785                	li	a5,1
80003228:	ce3e                	sw	a5,28(sp)
8000322a:	57fd                	li	a5,-1
8000322c:	c83e                	sw	a5,16(sp)
8000322e:	5d7d                	li	s10,-1
80003230:	47c9                	li	a5,18
80003232:	d002                	sw	zero,32(sp)
80003234:	a095                	j	80003298 <_dtoa_r+0x2de>
80003236:	4976                	lw	s2,92(sp)
80003238:	02000793          	li	a5,32
8000323c:	9952                	add	s2,s2,s4
8000323e:	43290593          	addi	a1,s2,1074
80003242:	02b7d663          	bge	a5,a1,8000326e <_dtoa_r+0x2b4>
80003246:	04000513          	li	a0,64
8000324a:	8d0d                	sub	a0,a0,a1
8000324c:	41290593          	addi	a1,s2,1042
80003250:	00ab1533          	sll	a0,s6,a0
80003254:	00badab3          	srl	s5,s5,a1
80003258:	01556533          	or	a0,a0,s5
8000325c:	199030ef          	jal	ra,80006bf4 <__floatunsidf>
80003260:	fe1007b7          	lui	a5,0xfe100
80003264:	95be                	add	a1,a1,a5
80003266:	4785                	li	a5,1
80003268:	197d                	addi	s2,s2,-1
8000326a:	c0be                	sw	a5,64(sp)
8000326c:	bd65                	j	80003124 <_dtoa_r+0x16a>
8000326e:	40b78533          	sub	a0,a5,a1
80003272:	00aa9533          	sll	a0,s5,a0
80003276:	b7dd                	j	8000325c <_dtoa_r+0x2a2>
80003278:	41bb8bb3          	sub	s7,s7,s11
8000327c:	41b00cb3          	neg	s9,s11
80003280:	d402                	sw	zero,40(sp)
80003282:	bf85                	j	800031f2 <_dtoa_r+0x238>
80003284:	4785                	li	a5,1
80003286:	ce3e                	sw	a5,28(sp)
80003288:	5782                	lw	a5,32(sp)
8000328a:	04f04e63          	bgtz	a5,800032e6 <_dtoa_r+0x32c>
8000328e:	4785                	li	a5,1
80003290:	4705                	li	a4,1
80003292:	c83e                	sw	a5,16(sp)
80003294:	4d05                	li	s10,1
80003296:	d03a                	sw	a4,32(sp)
80003298:	50d4                	lw	a3,36(s1)
8000329a:	4711                	li	a4,4
8000329c:	0006a223          	sw	zero,4(a3)
800032a0:	01470613          	addi	a2,a4,20
800032a4:	42cc                	lw	a1,4(a3)
800032a6:	04c7f463          	bgeu	a5,a2,800032ee <_dtoa_r+0x334>
800032aa:	8526                	mv	a0,s1
800032ac:	7e1000ef          	jal	ra,8000428c <_Balloc>
800032b0:	c62a                	sw	a0,12(sp)
800032b2:	e131                	bnez	a0,800032f6 <_dtoa_r+0x33c>
800032b4:	00004697          	auipc	a3,0x4
800032b8:	21c68693          	addi	a3,a3,540 # 800074d0 <__clz_tab+0x210>
800032bc:	4601                	li	a2,0
800032be:	1aa00593          	li	a1,426
800032c2:	b391                	j	80003006 <_dtoa_r+0x4c>
800032c4:	ce02                	sw	zero,28(sp)
800032c6:	b7c9                	j	80003288 <_dtoa_r+0x2ce>
800032c8:	4785                	li	a5,1
800032ca:	ce3e                	sw	a5,28(sp)
800032cc:	5782                	lw	a5,32(sp)
800032ce:	97ee                	add	a5,a5,s11
800032d0:	c83e                	sw	a5,16(sp)
800032d2:	00178d13          	addi	s10,a5,1 # fe100001 <_sp+0x6e0f0001>
800032d6:	87ea                	mv	a5,s10
800032d8:	fda040e3          	bgtz	s10,80003298 <_dtoa_r+0x2de>
800032dc:	4785                	li	a5,1
800032de:	bf6d                	j	80003298 <_dtoa_r+0x2de>
800032e0:	4905                	li	s2,1
800032e2:	ca02                	sw	zero,20(sp)
800032e4:	b789                	j	80003226 <_dtoa_r+0x26c>
800032e6:	5782                	lw	a5,32(sp)
800032e8:	c83e                	sw	a5,16(sp)
800032ea:	8d3e                	mv	s10,a5
800032ec:	b775                	j	80003298 <_dtoa_r+0x2de>
800032ee:	0585                	addi	a1,a1,1
800032f0:	c2cc                	sw	a1,4(a3)
800032f2:	0706                	slli	a4,a4,0x1
800032f4:	b775                	j	800032a0 <_dtoa_r+0x2e6>
800032f6:	50dc                	lw	a5,36(s1)
800032f8:	4732                	lw	a4,12(sp)
800032fa:	c398                	sw	a4,0(a5)
800032fc:	47b9                	li	a5,14
800032fe:	13a7e863          	bltu	a5,s10,8000342e <_dtoa_r+0x474>
80003302:	12090663          	beqz	s2,8000342e <_dtoa_r+0x474>
80003306:	1bb05a63          	blez	s11,800034ba <_dtoa_r+0x500>
8000330a:	00fdf713          	andi	a4,s11,15
8000330e:	00371793          	slli	a5,a4,0x3
80003312:	00004717          	auipc	a4,0x4
80003316:	2ae70713          	addi	a4,a4,686 # 800075c0 <__mprec_tens>
8000331a:	973e                	add	a4,a4,a5
8000331c:	404dd913          	srai	s2,s11,0x4
80003320:	431c                	lw	a5,0(a4)
80003322:	00472a83          	lw	s5,4(a4)
80003326:	01097713          	andi	a4,s2,16
8000332a:	4a09                	li	s4,2
8000332c:	c315                	beqz	a4,80003350 <_dtoa_r+0x396>
8000332e:	00004717          	auipc	a4,0x4
80003332:	26a70713          	addi	a4,a4,618 # 80007598 <__mprec_bigtens>
80003336:	5310                	lw	a2,32(a4)
80003338:	5354                	lw	a3,36(a4)
8000333a:	5532                	lw	a0,44(sp)
8000333c:	55c2                	lw	a1,48(sp)
8000333e:	cc3e                	sw	a5,24(sp)
80003340:	00f97913          	andi	s2,s2,15
80003344:	65c020ef          	jal	ra,800059a0 <__divdf3>
80003348:	47e2                	lw	a5,24(sp)
8000334a:	89aa                	mv	s3,a0
8000334c:	8b2e                	mv	s6,a1
8000334e:	4a0d                	li	s4,3
80003350:	00004717          	auipc	a4,0x4
80003354:	24870713          	addi	a4,a4,584 # 80007598 <__mprec_bigtens>
80003358:	12091f63          	bnez	s2,80003496 <_dtoa_r+0x4dc>
8000335c:	854e                	mv	a0,s3
8000335e:	863e                	mv	a2,a5
80003360:	86d6                	mv	a3,s5
80003362:	85da                	mv	a1,s6
80003364:	63c020ef          	jal	ra,800059a0 <__divdf3>
80003368:	89aa                	mv	s3,a0
8000336a:	8b2e                	mv	s6,a1
8000336c:	57d2                	lw	a5,52(sp)
8000336e:	1a078b63          	beqz	a5,80003524 <_dtoa_r+0x56a>
80003372:	0fffd797          	auipc	a5,0xfffd
80003376:	e9678793          	addi	a5,a5,-362 # 90000208 <_impure_ptr+0x30>
8000337a:	4390                	lw	a2,0(a5)
8000337c:	43d4                	lw	a3,4(a5)
8000337e:	854e                	mv	a0,s3
80003380:	85da                	mv	a1,s6
80003382:	46f020ef          	jal	ra,80005ff0 <__ledf2>
80003386:	18055f63          	bgez	a0,80003524 <_dtoa_r+0x56a>
8000338a:	1a0d0063          	beqz	s10,8000352a <_dtoa_r+0x570>
8000338e:	47c2                	lw	a5,16(sp)
80003390:	08f05d63          	blez	a5,8000342a <_dtoa_r+0x470>
80003394:	fffd8793          	addi	a5,s11,-1
80003398:	cc3e                	sw	a5,24(sp)
8000339a:	0fffd797          	auipc	a5,0xfffd
8000339e:	e7678793          	addi	a5,a5,-394 # 90000210 <_impure_ptr+0x38>
800033a2:	4390                	lw	a2,0(a5)
800033a4:	43d4                	lw	a3,4(a5)
800033a6:	854e                	mv	a0,s3
800033a8:	85da                	mv	a1,s6
800033aa:	4ed020ef          	jal	ra,80006096 <__muldf3>
800033ae:	4842                	lw	a6,16(sp)
800033b0:	89aa                	mv	s3,a0
800033b2:	8b2e                	mv	s6,a1
800033b4:	0a05                	addi	s4,s4,1
800033b6:	8552                	mv	a0,s4
800033b8:	c4c2                	sw	a6,72(sp)
800033ba:	de5a                	sw	s6,60(sp)
800033bc:	c2ce                	sw	s3,68(sp)
800033be:	7d0030ef          	jal	ra,80006b8e <__floatsidf>
800033c2:	86da                	mv	a3,s6
800033c4:	864e                	mv	a2,s3
800033c6:	4d1020ef          	jal	ra,80006096 <__muldf3>
800033ca:	0fffd697          	auipc	a3,0xfffd
800033ce:	e4e68693          	addi	a3,a3,-434 # 90000218 <_impure_ptr+0x40>
800033d2:	4290                	lw	a2,0(a3)
800033d4:	42d4                	lw	a3,4(a3)
800033d6:	895a                	mv	s2,s6
800033d8:	8ace                	mv	s5,s3
800033da:	7bd010ef          	jal	ra,80005396 <__adddf3>
800033de:	4826                	lw	a6,72(sp)
800033e0:	fcc008b7          	lui	a7,0xfcc00
800033e4:	8b2a                	mv	s6,a0
800033e6:	00b88a33          	add	s4,a7,a1
800033ea:	14081363          	bnez	a6,80003530 <_dtoa_r+0x576>
800033ee:	0fffd697          	auipc	a3,0xfffd
800033f2:	e3268693          	addi	a3,a3,-462 # 90000220 <_impure_ptr+0x48>
800033f6:	4290                	lw	a2,0(a3)
800033f8:	42d4                	lw	a3,4(a3)
800033fa:	854e                	mv	a0,s3
800033fc:	85ca                	mv	a1,s2
800033fe:	0da030ef          	jal	ra,800064d8 <__subdf3>
80003402:	865a                	mv	a2,s6
80003404:	86d2                	mv	a3,s4
80003406:	89aa                	mv	s3,a0
80003408:	892e                	mv	s2,a1
8000340a:	341020ef          	jal	ra,80005f4a <__gedf2>
8000340e:	5aa04b63          	bgtz	a0,800039c4 <_dtoa_r+0xa0a>
80003412:	800007b7          	lui	a5,0x80000
80003416:	0147c7b3          	xor	a5,a5,s4
8000341a:	865a                	mv	a2,s6
8000341c:	86be                	mv	a3,a5
8000341e:	854e                	mv	a0,s3
80003420:	85ca                	mv	a1,s2
80003422:	3cf020ef          	jal	ra,80005ff0 <__ledf2>
80003426:	58054c63          	bltz	a0,800039be <_dtoa_r+0xa04>
8000342a:	59b2                	lw	s3,44(sp)
8000342c:	5b42                	lw	s6,48(sp)
8000342e:	47f6                	lw	a5,92(sp)
80003430:	3607c863          	bltz	a5,800037a0 <_dtoa_r+0x7e6>
80003434:	4739                	li	a4,14
80003436:	37b74563          	blt	a4,s11,800037a0 <_dtoa_r+0x7e6>
8000343a:	003d9713          	slli	a4,s11,0x3
8000343e:	00004797          	auipc	a5,0x4
80003442:	18278793          	addi	a5,a5,386 # 800075c0 <__mprec_tens>
80003446:	97ba                	add	a5,a5,a4
80003448:	0007aa03          	lw	s4,0(a5)
8000344c:	0047aa83          	lw	s5,4(a5)
80003450:	5782                	lw	a5,32(sp)
80003452:	2607d163          	bgez	a5,800036b4 <_dtoa_r+0x6fa>
80003456:	25a04f63          	bgtz	s10,800036b4 <_dtoa_r+0x6fa>
8000345a:	560d1263          	bnez	s10,800039be <_dtoa_r+0xa04>
8000345e:	0fffd797          	auipc	a5,0xfffd
80003462:	dc278793          	addi	a5,a5,-574 # 90000220 <_impure_ptr+0x48>
80003466:	4390                	lw	a2,0(a5)
80003468:	43d4                	lw	a3,4(a5)
8000346a:	8552                	mv	a0,s4
8000346c:	85d6                	mv	a1,s5
8000346e:	429020ef          	jal	ra,80006096 <__muldf3>
80003472:	864e                	mv	a2,s3
80003474:	86da                	mv	a3,s6
80003476:	2d5020ef          	jal	ra,80005f4a <__gedf2>
8000347a:	4a01                	li	s4,0
8000347c:	4901                	li	s2,0
8000347e:	50055863          	bgez	a0,8000398e <_dtoa_r+0x9d4>
80003482:	47b2                	lw	a5,12(sp)
80003484:	4732                	lw	a4,12(sp)
80003486:	0d85                	addi	s11,s11,1
80003488:	00178993          	addi	s3,a5,1
8000348c:	03100793          	li	a5,49
80003490:	00f70023          	sb	a5,0(a4)
80003494:	a309                	j	80003996 <_dtoa_r+0x9dc>
80003496:	00197693          	andi	a3,s2,1
8000349a:	ce81                	beqz	a3,800034b2 <_dtoa_r+0x4f8>
8000349c:	4310                	lw	a2,0(a4)
8000349e:	4354                	lw	a3,4(a4)
800034a0:	853e                	mv	a0,a5
800034a2:	85d6                	mv	a1,s5
800034a4:	cc3a                	sw	a4,24(sp)
800034a6:	3f1020ef          	jal	ra,80006096 <__muldf3>
800034aa:	4762                	lw	a4,24(sp)
800034ac:	0a05                	addi	s4,s4,1
800034ae:	87aa                	mv	a5,a0
800034b0:	8aae                	mv	s5,a1
800034b2:	40195913          	srai	s2,s2,0x1
800034b6:	0721                	addi	a4,a4,8
800034b8:	b545                	j	80003358 <_dtoa_r+0x39e>
800034ba:	4a09                	li	s4,2
800034bc:	ea0d88e3          	beqz	s11,8000336c <_dtoa_r+0x3b2>
800034c0:	41b00933          	neg	s2,s11
800034c4:	00f97793          	andi	a5,s2,15
800034c8:	00379713          	slli	a4,a5,0x3
800034cc:	00004797          	auipc	a5,0x4
800034d0:	0f478793          	addi	a5,a5,244 # 800075c0 <__mprec_tens>
800034d4:	97ba                	add	a5,a5,a4
800034d6:	4390                	lw	a2,0(a5)
800034d8:	43d4                	lw	a3,4(a5)
800034da:	5532                	lw	a0,44(sp)
800034dc:	55c2                	lw	a1,48(sp)
800034de:	40495913          	srai	s2,s2,0x4
800034e2:	00004a97          	auipc	s5,0x4
800034e6:	0b6a8a93          	addi	s5,s5,182 # 80007598 <__mprec_bigtens>
800034ea:	3ad020ef          	jal	ra,80006096 <__muldf3>
800034ee:	87aa                	mv	a5,a0
800034f0:	89aa                	mv	s3,a0
800034f2:	8b2e                	mv	s6,a1
800034f4:	4701                	li	a4,0
800034f6:	00091663          	bnez	s2,80003502 <_dtoa_r+0x548>
800034fa:	e60709e3          	beqz	a4,8000336c <_dtoa_r+0x3b2>
800034fe:	89be                	mv	s3,a5
80003500:	b5ad                	j	8000336a <_dtoa_r+0x3b0>
80003502:	00197693          	andi	a3,s2,1
80003506:	ca99                	beqz	a3,8000351c <_dtoa_r+0x562>
80003508:	000aa603          	lw	a2,0(s5)
8000350c:	004aa683          	lw	a3,4(s5)
80003510:	853e                	mv	a0,a5
80003512:	0a05                	addi	s4,s4,1
80003514:	383020ef          	jal	ra,80006096 <__muldf3>
80003518:	87aa                	mv	a5,a0
8000351a:	4705                	li	a4,1
8000351c:	40195913          	srai	s2,s2,0x1
80003520:	0aa1                	addi	s5,s5,8
80003522:	bfd1                	j	800034f6 <_dtoa_r+0x53c>
80003524:	cc6e                	sw	s11,24(sp)
80003526:	886a                	mv	a6,s10
80003528:	b579                	j	800033b6 <_dtoa_r+0x3fc>
8000352a:	cc6e                	sw	s11,24(sp)
8000352c:	4801                	li	a6,0
8000352e:	b561                	j	800033b6 <_dtoa_r+0x3fc>
80003530:	fff80793          	addi	a5,a6,-1
80003534:	00379713          	slli	a4,a5,0x3
80003538:	00004797          	auipc	a5,0x4
8000353c:	08878793          	addi	a5,a5,136 # 800075c0 <__mprec_tens>
80003540:	97ba                	add	a5,a5,a4
80003542:	4390                	lw	a2,0(a5)
80003544:	43d4                	lw	a3,4(a5)
80003546:	47b2                	lw	a5,12(sp)
80003548:	97c2                	add	a5,a5,a6
8000354a:	de3e                	sw	a5,60(sp)
8000354c:	47f2                	lw	a5,28(sp)
8000354e:	cbc5                	beqz	a5,800035fe <_dtoa_r+0x644>
80003550:	0fffd797          	auipc	a5,0xfffd
80003554:	cd878793          	addi	a5,a5,-808 # 90000228 <_impure_ptr+0x50>
80003558:	43cc                	lw	a1,4(a5)
8000355a:	c2aa                	sw	a0,68(sp)
8000355c:	4388                	lw	a0,0(a5)
8000355e:	442020ef          	jal	ra,800059a0 <__divdf3>
80003562:	865a                	mv	a2,s6
80003564:	86d2                	mv	a3,s4
80003566:	773020ef          	jal	ra,800064d8 <__subdf3>
8000356a:	49b2                	lw	s3,12(sp)
8000356c:	8a2a                	mv	s4,a0
8000356e:	8b2e                	mv	s6,a1
80003570:	85ca                	mv	a1,s2
80003572:	8556                	mv	a0,s5
80003574:	5b6030ef          	jal	ra,80006b2a <__fixdfsi>
80003578:	c2aa                	sw	a0,68(sp)
8000357a:	614030ef          	jal	ra,80006b8e <__floatsidf>
8000357e:	862a                	mv	a2,a0
80003580:	86ae                	mv	a3,a1
80003582:	8556                	mv	a0,s5
80003584:	85ca                	mv	a1,s2
80003586:	753020ef          	jal	ra,800064d8 <__subdf3>
8000358a:	4796                	lw	a5,68(sp)
8000358c:	0985                	addi	s3,s3,1
8000358e:	8652                	mv	a2,s4
80003590:	03078793          	addi	a5,a5,48
80003594:	fef98fa3          	sb	a5,-1(s3)
80003598:	86da                	mv	a3,s6
8000359a:	892a                	mv	s2,a0
8000359c:	8aae                	mv	s5,a1
8000359e:	253020ef          	jal	ra,80005ff0 <__ledf2>
800035a2:	0e054c63          	bltz	a0,8000369a <_dtoa_r+0x6e0>
800035a6:	0fffd797          	auipc	a5,0xfffd
800035aa:	c6278793          	addi	a5,a5,-926 # 90000208 <_impure_ptr+0x30>
800035ae:	4388                	lw	a0,0(a5)
800035b0:	43cc                	lw	a1,4(a5)
800035b2:	864a                	mv	a2,s2
800035b4:	86d6                	mv	a3,s5
800035b6:	723020ef          	jal	ra,800064d8 <__subdf3>
800035ba:	8652                	mv	a2,s4
800035bc:	86da                	mv	a3,s6
800035be:	233020ef          	jal	ra,80005ff0 <__ledf2>
800035c2:	18054763          	bltz	a0,80003750 <_dtoa_r+0x796>
800035c6:	57f2                	lw	a5,60(sp)
800035c8:	e6f981e3          	beq	s3,a5,8000342a <_dtoa_r+0x470>
800035cc:	0fffd797          	auipc	a5,0xfffd
800035d0:	c4478793          	addi	a5,a5,-956 # 90000210 <_impure_ptr+0x38>
800035d4:	4390                	lw	a2,0(a5)
800035d6:	43d4                	lw	a3,4(a5)
800035d8:	8552                	mv	a0,s4
800035da:	85da                	mv	a1,s6
800035dc:	2bb020ef          	jal	ra,80006096 <__muldf3>
800035e0:	0fffd797          	auipc	a5,0xfffd
800035e4:	c3078793          	addi	a5,a5,-976 # 90000210 <_impure_ptr+0x38>
800035e8:	4390                	lw	a2,0(a5)
800035ea:	43d4                	lw	a3,4(a5)
800035ec:	8a2a                	mv	s4,a0
800035ee:	8b2e                	mv	s6,a1
800035f0:	854a                	mv	a0,s2
800035f2:	85d6                	mv	a1,s5
800035f4:	2a3020ef          	jal	ra,80006096 <__muldf3>
800035f8:	8aaa                	mv	s5,a0
800035fa:	892e                	mv	s2,a1
800035fc:	bf95                	j	80003570 <_dtoa_r+0x5b6>
800035fe:	85d2                	mv	a1,s4
80003600:	297020ef          	jal	ra,80006096 <__muldf3>
80003604:	57f2                	lw	a5,60(sp)
80003606:	49b2                	lw	s3,12(sp)
80003608:	c4aa                	sw	a0,72(sp)
8000360a:	8b2e                	mv	s6,a1
8000360c:	c2be                	sw	a5,68(sp)
8000360e:	85ca                	mv	a1,s2
80003610:	8556                	mv	a0,s5
80003612:	518030ef          	jal	ra,80006b2a <__fixdfsi>
80003616:	c6aa                	sw	a0,76(sp)
80003618:	576030ef          	jal	ra,80006b8e <__floatsidf>
8000361c:	862a                	mv	a2,a0
8000361e:	86ae                	mv	a3,a1
80003620:	8556                	mv	a0,s5
80003622:	85ca                	mv	a1,s2
80003624:	6b5020ef          	jal	ra,800064d8 <__subdf3>
80003628:	47b6                	lw	a5,76(sp)
8000362a:	0985                	addi	s3,s3,1
8000362c:	8a2a                	mv	s4,a0
8000362e:	03078793          	addi	a5,a5,48
80003632:	fef98fa3          	sb	a5,-1(s3)
80003636:	57f2                	lw	a5,60(sp)
80003638:	892e                	mv	s2,a1
8000363a:	06f99263          	bne	s3,a5,8000369e <_dtoa_r+0x6e4>
8000363e:	0fffda97          	auipc	s5,0xfffd
80003642:	beaa8a93          	addi	s5,s5,-1046 # 90000228 <_impure_ptr+0x50>
80003646:	000aa603          	lw	a2,0(s5)
8000364a:	004aa683          	lw	a3,4(s5)
8000364e:	4526                	lw	a0,72(sp)
80003650:	85da                	mv	a1,s6
80003652:	545010ef          	jal	ra,80005396 <__adddf3>
80003656:	862a                	mv	a2,a0
80003658:	86ae                	mv	a3,a1
8000365a:	8552                	mv	a0,s4
8000365c:	85ca                	mv	a1,s2
8000365e:	0ed020ef          	jal	ra,80005f4a <__gedf2>
80003662:	0ea04763          	bgtz	a0,80003750 <_dtoa_r+0x796>
80003666:	4626                	lw	a2,72(sp)
80003668:	000aa503          	lw	a0,0(s5)
8000366c:	004aa583          	lw	a1,4(s5)
80003670:	86da                	mv	a3,s6
80003672:	667020ef          	jal	ra,800064d8 <__subdf3>
80003676:	862a                	mv	a2,a0
80003678:	86ae                	mv	a3,a1
8000367a:	8552                	mv	a0,s4
8000367c:	85ca                	mv	a1,s2
8000367e:	173020ef          	jal	ra,80005ff0 <__ledf2>
80003682:	da0554e3          	bgez	a0,8000342a <_dtoa_r+0x470>
80003686:	03000793          	li	a5,48
8000368a:	4996                	lw	s3,68(sp)
8000368c:	fff98713          	addi	a4,s3,-1
80003690:	c2ba                	sw	a4,68(sp)
80003692:	fff9c703          	lbu	a4,-1(s3)
80003696:	fef70ae3          	beq	a4,a5,8000368a <_dtoa_r+0x6d0>
8000369a:	4de2                	lw	s11,24(sp)
8000369c:	a849                	j	8000372e <_dtoa_r+0x774>
8000369e:	0fffd797          	auipc	a5,0xfffd
800036a2:	b7278793          	addi	a5,a5,-1166 # 90000210 <_impure_ptr+0x38>
800036a6:	4390                	lw	a2,0(a5)
800036a8:	43d4                	lw	a3,4(a5)
800036aa:	1ed020ef          	jal	ra,80006096 <__muldf3>
800036ae:	8aaa                	mv	s5,a0
800036b0:	892e                	mv	s2,a1
800036b2:	bfb1                	j	8000360e <_dtoa_r+0x654>
800036b4:	47b2                	lw	a5,12(sp)
800036b6:	8c5a                	mv	s8,s6
800036b8:	8cce                	mv	s9,s3
800036ba:	00178b13          	addi	s6,a5,1
800036be:	9d3e                	add	s10,s10,a5
800036c0:	0fffdb97          	auipc	s7,0xfffd
800036c4:	b50b8b93          	addi	s7,s7,-1200 # 90000210 <_impure_ptr+0x38>
800036c8:	8652                	mv	a2,s4
800036ca:	86d6                	mv	a3,s5
800036cc:	8566                	mv	a0,s9
800036ce:	85e2                	mv	a1,s8
800036d0:	2d0020ef          	jal	ra,800059a0 <__divdf3>
800036d4:	456030ef          	jal	ra,80006b2a <__fixdfsi>
800036d8:	892a                	mv	s2,a0
800036da:	4b4030ef          	jal	ra,80006b8e <__floatsidf>
800036de:	8652                	mv	a2,s4
800036e0:	86d6                	mv	a3,s5
800036e2:	1b5020ef          	jal	ra,80006096 <__muldf3>
800036e6:	86ae                	mv	a3,a1
800036e8:	862a                	mv	a2,a0
800036ea:	85e2                	mv	a1,s8
800036ec:	8566                	mv	a0,s9
800036ee:	5eb020ef          	jal	ra,800064d8 <__subdf3>
800036f2:	03090693          	addi	a3,s2,48
800036f6:	fedb0fa3          	sb	a3,-1(s6)
800036fa:	89da                	mv	s3,s6
800036fc:	096d1363          	bne	s10,s6,80003782 <_dtoa_r+0x7c8>
80003700:	862a                	mv	a2,a0
80003702:	86ae                	mv	a3,a1
80003704:	493010ef          	jal	ra,80005396 <__adddf3>
80003708:	8652                	mv	a2,s4
8000370a:	86d6                	mv	a3,s5
8000370c:	8baa                	mv	s7,a0
8000370e:	8b2e                	mv	s6,a1
80003710:	03b020ef          	jal	ra,80005f4a <__gedf2>
80003714:	02a04d63          	bgtz	a0,8000374e <_dtoa_r+0x794>
80003718:	8652                	mv	a2,s4
8000371a:	86d6                	mv	a3,s5
8000371c:	855e                	mv	a0,s7
8000371e:	85da                	mv	a1,s6
80003720:	7c0020ef          	jal	ra,80005ee0 <__eqdf2>
80003724:	e509                	bnez	a0,8000372e <_dtoa_r+0x774>
80003726:	00197913          	andi	s2,s2,1
8000372a:	02091263          	bnez	s2,8000374e <_dtoa_r+0x794>
8000372e:	8526                	mv	a0,s1
80003730:	85a2                	mv	a1,s0
80003732:	407000ef          	jal	ra,80004338 <_Bfree>
80003736:	57e2                	lw	a5,56(sp)
80003738:	00098023          	sb	zero,0(s3)
8000373c:	001d8513          	addi	a0,s11,1
80003740:	c388                	sw	a0,0(a5)
80003742:	5792                	lw	a5,36(sp)
80003744:	94078ee3          	beqz	a5,800030a0 <_dtoa_r+0xe6>
80003748:	0137a023          	sw	s3,0(a5)
8000374c:	ba91                	j	800030a0 <_dtoa_r+0xe6>
8000374e:	cc6e                	sw	s11,24(sp)
80003750:	87ce                	mv	a5,s3
80003752:	03900713          	li	a4,57
80003756:	89be                	mv	s3,a5
80003758:	fff7c683          	lbu	a3,-1(a5)
8000375c:	17fd                	addi	a5,a5,-1
8000375e:	00e69c63          	bne	a3,a4,80003776 <_dtoa_r+0x7bc>
80003762:	46b2                	lw	a3,12(sp)
80003764:	fef699e3          	bne	a3,a5,80003756 <_dtoa_r+0x79c>
80003768:	4762                	lw	a4,24(sp)
8000376a:	0705                	addi	a4,a4,1
8000376c:	cc3a                	sw	a4,24(sp)
8000376e:	03000713          	li	a4,48
80003772:	00e68023          	sb	a4,0(a3)
80003776:	0007c703          	lbu	a4,0(a5)
8000377a:	0705                	addi	a4,a4,1
8000377c:	00e78023          	sb	a4,0(a5)
80003780:	bf29                	j	8000369a <_dtoa_r+0x6e0>
80003782:	000ba603          	lw	a2,0(s7)
80003786:	004ba683          	lw	a3,4(s7)
8000378a:	0b05                	addi	s6,s6,1
8000378c:	10b020ef          	jal	ra,80006096 <__muldf3>
80003790:	4601                	li	a2,0
80003792:	4681                	li	a3,0
80003794:	8caa                	mv	s9,a0
80003796:	8c2e                	mv	s8,a1
80003798:	748020ef          	jal	ra,80005ee0 <__eqdf2>
8000379c:	f515                	bnez	a0,800036c8 <_dtoa_r+0x70e>
8000379e:	bf41                	j	8000372e <_dtoa_r+0x774>
800037a0:	4772                	lw	a4,28(sp)
800037a2:	10070063          	beqz	a4,800038a2 <_dtoa_r+0x8e8>
800037a6:	46d2                	lw	a3,20(sp)
800037a8:	4705                	li	a4,1
800037aa:	0cd74563          	blt	a4,a3,80003874 <_dtoa_r+0x8ba>
800037ae:	4706                	lw	a4,64(sp)
800037b0:	43378793          	addi	a5,a5,1075
800037b4:	e709                	bnez	a4,800037be <_dtoa_r+0x804>
800037b6:	4766                	lw	a4,88(sp)
800037b8:	03600793          	li	a5,54
800037bc:	8f99                	sub	a5,a5,a4
800037be:	8a66                	mv	s4,s9
800037c0:	8ade                	mv	s5,s7
800037c2:	4585                	li	a1,1
800037c4:	8526                	mv	a0,s1
800037c6:	9bbe                	add	s7,s7,a5
800037c8:	9c3e                	add	s8,s8,a5
800037ca:	53b000ef          	jal	ra,80004504 <__i2b>
800037ce:	892a                	mv	s2,a0
800037d0:	01505e63          	blez	s5,800037ec <_dtoa_r+0x832>
800037d4:	01805c63          	blez	s8,800037ec <_dtoa_r+0x832>
800037d8:	87d6                	mv	a5,s5
800037da:	015c5363          	bge	s8,s5,800037e0 <_dtoa_r+0x826>
800037de:	87e2                	mv	a5,s8
800037e0:	40fb8bb3          	sub	s7,s7,a5
800037e4:	40fa8ab3          	sub	s5,s5,a5
800037e8:	40fc0c33          	sub	s8,s8,a5
800037ec:	040c8163          	beqz	s9,8000382e <_dtoa_r+0x874>
800037f0:	47f2                	lw	a5,28(sp)
800037f2:	cfc5                	beqz	a5,800038aa <_dtoa_r+0x8f0>
800037f4:	03405463          	blez	s4,8000381c <_dtoa_r+0x862>
800037f8:	85ca                	mv	a1,s2
800037fa:	8652                	mv	a2,s4
800037fc:	8526                	mv	a0,s1
800037fe:	6bd000ef          	jal	ra,800046ba <__pow5mult>
80003802:	8622                	mv	a2,s0
80003804:	85aa                	mv	a1,a0
80003806:	892a                	mv	s2,a0
80003808:	8526                	mv	a0,s1
8000380a:	531000ef          	jal	ra,8000453a <__multiply>
8000380e:	cc2a                	sw	a0,24(sp)
80003810:	85a2                	mv	a1,s0
80003812:	8526                	mv	a0,s1
80003814:	325000ef          	jal	ra,80004338 <_Bfree>
80003818:	47e2                	lw	a5,24(sp)
8000381a:	843e                	mv	s0,a5
8000381c:	414c8633          	sub	a2,s9,s4
80003820:	014c8763          	beq	s9,s4,8000382e <_dtoa_r+0x874>
80003824:	85a2                	mv	a1,s0
80003826:	8526                	mv	a0,s1
80003828:	693000ef          	jal	ra,800046ba <__pow5mult>
8000382c:	842a                	mv	s0,a0
8000382e:	4585                	li	a1,1
80003830:	8526                	mv	a0,s1
80003832:	4d3000ef          	jal	ra,80004504 <__i2b>
80003836:	57a2                	lw	a5,40(sp)
80003838:	8a2a                	mv	s4,a0
8000383a:	06f05a63          	blez	a5,800038ae <_dtoa_r+0x8f4>
8000383e:	863e                	mv	a2,a5
80003840:	85aa                	mv	a1,a0
80003842:	8526                	mv	a0,s1
80003844:	677000ef          	jal	ra,800046ba <__pow5mult>
80003848:	4752                	lw	a4,20(sp)
8000384a:	4785                	li	a5,1
8000384c:	8a2a                	mv	s4,a0
8000384e:	4c81                	li	s9,0
80003850:	06e7c763          	blt	a5,a4,800038be <_dtoa_r+0x904>
80003854:	4c81                	li	s9,0
80003856:	06099163          	bnez	s3,800038b8 <_dtoa_r+0x8fe>
8000385a:	00cb1793          	slli	a5,s6,0xc
8000385e:	efa9                	bnez	a5,800038b8 <_dtoa_r+0x8fe>
80003860:	7ff005b7          	lui	a1,0x7ff00
80003864:	00bb7b33          	and	s6,s6,a1
80003868:	040b0863          	beqz	s6,800038b8 <_dtoa_r+0x8fe>
8000386c:	0b85                	addi	s7,s7,1
8000386e:	0c05                	addi	s8,s8,1
80003870:	4c85                	li	s9,1
80003872:	a099                	j	800038b8 <_dtoa_r+0x8fe>
80003874:	fffd0a13          	addi	s4,s10,-1
80003878:	014cca63          	blt	s9,s4,8000388c <_dtoa_r+0x8d2>
8000387c:	414c8a33          	sub	s4,s9,s4
80003880:	000d5e63          	bgez	s10,8000389c <_dtoa_r+0x8e2>
80003884:	41ab8ab3          	sub	s5,s7,s10
80003888:	4781                	li	a5,0
8000388a:	bf25                	j	800037c2 <_dtoa_r+0x808>
8000388c:	57a2                	lw	a5,40(sp)
8000388e:	419a0cb3          	sub	s9,s4,s9
80003892:	97e6                	add	a5,a5,s9
80003894:	d43e                	sw	a5,40(sp)
80003896:	8cd2                	mv	s9,s4
80003898:	4a01                	li	s4,0
8000389a:	b7dd                	j	80003880 <_dtoa_r+0x8c6>
8000389c:	8ade                	mv	s5,s7
8000389e:	87ea                	mv	a5,s10
800038a0:	b70d                	j	800037c2 <_dtoa_r+0x808>
800038a2:	8a66                	mv	s4,s9
800038a4:	8ade                	mv	s5,s7
800038a6:	4901                	li	s2,0
800038a8:	b725                	j	800037d0 <_dtoa_r+0x816>
800038aa:	8666                	mv	a2,s9
800038ac:	bfa5                	j	80003824 <_dtoa_r+0x86a>
800038ae:	4752                	lw	a4,20(sp)
800038b0:	4785                	li	a5,1
800038b2:	4c81                	li	s9,0
800038b4:	fae7d0e3          	bge	a5,a4,80003854 <_dtoa_r+0x89a>
800038b8:	57a2                	lw	a5,40(sp)
800038ba:	4505                	li	a0,1
800038bc:	cf89                	beqz	a5,800038d6 <_dtoa_r+0x91c>
800038be:	010a2783          	lw	a5,16(s4)
800038c2:	078d                	addi	a5,a5,3
800038c4:	078a                	slli	a5,a5,0x2
800038c6:	97d2                	add	a5,a5,s4
800038c8:	43c8                	lw	a0,4(a5)
800038ca:	38b000ef          	jal	ra,80004454 <__hi0bits>
800038ce:	02000793          	li	a5,32
800038d2:	40a78533          	sub	a0,a5,a0
800038d6:	9562                	add	a0,a0,s8
800038d8:	897d                	andi	a0,a0,31
800038da:	c151                	beqz	a0,8000395e <_dtoa_r+0x9a4>
800038dc:	02000793          	li	a5,32
800038e0:	8f89                	sub	a5,a5,a0
800038e2:	4711                	li	a4,4
800038e4:	06f75a63          	bge	a4,a5,80003958 <_dtoa_r+0x99e>
800038e8:	47f1                	li	a5,28
800038ea:	40a78533          	sub	a0,a5,a0
800038ee:	9baa                	add	s7,s7,a0
800038f0:	9aaa                	add	s5,s5,a0
800038f2:	9c2a                	add	s8,s8,a0
800038f4:	01705863          	blez	s7,80003904 <_dtoa_r+0x94a>
800038f8:	85a2                	mv	a1,s0
800038fa:	865e                	mv	a2,s7
800038fc:	8526                	mv	a0,s1
800038fe:	691000ef          	jal	ra,8000478e <__lshift>
80003902:	842a                	mv	s0,a0
80003904:	01805863          	blez	s8,80003914 <_dtoa_r+0x95a>
80003908:	85d2                	mv	a1,s4
8000390a:	8662                	mv	a2,s8
8000390c:	8526                	mv	a0,s1
8000390e:	681000ef          	jal	ra,8000478e <__lshift>
80003912:	8a2a                	mv	s4,a0
80003914:	57d2                	lw	a5,52(sp)
80003916:	c7b1                	beqz	a5,80003962 <_dtoa_r+0x9a8>
80003918:	85d2                	mv	a1,s4
8000391a:	8522                	mv	a0,s0
8000391c:	777000ef          	jal	ra,80004892 <__mcmp>
80003920:	04055163          	bgez	a0,80003962 <_dtoa_r+0x9a8>
80003924:	85a2                	mv	a1,s0
80003926:	4681                	li	a3,0
80003928:	4629                	li	a2,10
8000392a:	8526                	mv	a0,s1
8000392c:	26d000ef          	jal	ra,80004398 <__multadd>
80003930:	47f2                	lw	a5,28(sp)
80003932:	1dfd                	addi	s11,s11,-1
80003934:	842a                	mv	s0,a0
80003936:	28078d63          	beqz	a5,80003bd0 <_dtoa_r+0xc16>
8000393a:	85ca                	mv	a1,s2
8000393c:	4681                	li	a3,0
8000393e:	4629                	li	a2,10
80003940:	8526                	mv	a0,s1
80003942:	257000ef          	jal	ra,80004398 <__multadd>
80003946:	47c2                	lw	a5,16(sp)
80003948:	892a                	mv	s2,a0
8000394a:	08f04563          	bgtz	a5,800039d4 <_dtoa_r+0xa1a>
8000394e:	4752                	lw	a4,20(sp)
80003950:	4789                	li	a5,2
80003952:	00e7cf63          	blt	a5,a4,80003970 <_dtoa_r+0x9b6>
80003956:	a8bd                	j	800039d4 <_dtoa_r+0xa1a>
80003958:	f8e78ee3          	beq	a5,a4,800038f4 <_dtoa_r+0x93a>
8000395c:	853e                	mv	a0,a5
8000395e:	0571                	addi	a0,a0,28
80003960:	b779                	j	800038ee <_dtoa_r+0x934>
80003962:	07a04563          	bgtz	s10,800039cc <_dtoa_r+0xa12>
80003966:	4752                	lw	a4,20(sp)
80003968:	4789                	li	a5,2
8000396a:	06e7d163          	bge	a5,a4,800039cc <_dtoa_r+0xa12>
8000396e:	c86a                	sw	s10,16(sp)
80003970:	47c2                	lw	a5,16(sp)
80003972:	ef91                	bnez	a5,8000398e <_dtoa_r+0x9d4>
80003974:	85d2                	mv	a1,s4
80003976:	4681                	li	a3,0
80003978:	4615                	li	a2,5
8000397a:	8526                	mv	a0,s1
8000397c:	21d000ef          	jal	ra,80004398 <__multadd>
80003980:	8a2a                	mv	s4,a0
80003982:	85aa                	mv	a1,a0
80003984:	8522                	mv	a0,s0
80003986:	70d000ef          	jal	ra,80004892 <__mcmp>
8000398a:	aea04ce3          	bgtz	a0,80003482 <_dtoa_r+0x4c8>
8000398e:	5782                	lw	a5,32(sp)
80003990:	49b2                	lw	s3,12(sp)
80003992:	fff7cd93          	not	s11,a5
80003996:	4b01                	li	s6,0
80003998:	85d2                	mv	a1,s4
8000399a:	8526                	mv	a0,s1
8000399c:	19d000ef          	jal	ra,80004338 <_Bfree>
800039a0:	d80907e3          	beqz	s2,8000372e <_dtoa_r+0x774>
800039a4:	000b0863          	beqz	s6,800039b4 <_dtoa_r+0x9fa>
800039a8:	012b0663          	beq	s6,s2,800039b4 <_dtoa_r+0x9fa>
800039ac:	85da                	mv	a1,s6
800039ae:	8526                	mv	a0,s1
800039b0:	189000ef          	jal	ra,80004338 <_Bfree>
800039b4:	85ca                	mv	a1,s2
800039b6:	8526                	mv	a0,s1
800039b8:	181000ef          	jal	ra,80004338 <_Bfree>
800039bc:	bb8d                	j	8000372e <_dtoa_r+0x774>
800039be:	4a01                	li	s4,0
800039c0:	4901                	li	s2,0
800039c2:	b7f1                	j	8000398e <_dtoa_r+0x9d4>
800039c4:	4de2                	lw	s11,24(sp)
800039c6:	4a01                	li	s4,0
800039c8:	4901                	li	s2,0
800039ca:	bc65                	j	80003482 <_dtoa_r+0x4c8>
800039cc:	47f2                	lw	a5,28(sp)
800039ce:	c86a                	sw	s10,16(sp)
800039d0:	20078763          	beqz	a5,80003bde <_dtoa_r+0xc24>
800039d4:	01505863          	blez	s5,800039e4 <_dtoa_r+0xa2a>
800039d8:	85ca                	mv	a1,s2
800039da:	8656                	mv	a2,s5
800039dc:	8526                	mv	a0,s1
800039de:	5b1000ef          	jal	ra,8000478e <__lshift>
800039e2:	892a                	mv	s2,a0
800039e4:	854a                	mv	a0,s2
800039e6:	040c8063          	beqz	s9,80003a26 <_dtoa_r+0xa6c>
800039ea:	00492583          	lw	a1,4(s2)
800039ee:	8526                	mv	a0,s1
800039f0:	09d000ef          	jal	ra,8000428c <_Balloc>
800039f4:	8aaa                	mv	s5,a0
800039f6:	e911                	bnez	a0,80003a0a <_dtoa_r+0xa50>
800039f8:	00004697          	auipc	a3,0x4
800039fc:	ad868693          	addi	a3,a3,-1320 # 800074d0 <__clz_tab+0x210>
80003a00:	4601                	li	a2,0
80003a02:	2ea00593          	li	a1,746
80003a06:	e00ff06f          	j	80003006 <_dtoa_r+0x4c>
80003a0a:	01092603          	lw	a2,16(s2)
80003a0e:	00c90593          	addi	a1,s2,12
80003a12:	0531                	addi	a0,a0,12
80003a14:	0609                	addi	a2,a2,2
80003a16:	060a                	slli	a2,a2,0x2
80003a18:	6f0000ef          	jal	ra,80004108 <memcpy>
80003a1c:	4605                	li	a2,1
80003a1e:	85d6                	mv	a1,s5
80003a20:	8526                	mv	a0,s1
80003a22:	56d000ef          	jal	ra,8000478e <__lshift>
80003a26:	47b2                	lw	a5,12(sp)
80003a28:	4742                	lw	a4,16(sp)
80003a2a:	8b4a                	mv	s6,s2
80003a2c:	00178c13          	addi	s8,a5,1
80003a30:	97ba                	add	a5,a5,a4
80003a32:	cc3e                	sw	a5,24(sp)
80003a34:	0019f793          	andi	a5,s3,1
80003a38:	892a                	mv	s2,a0
80003a3a:	c83e                	sw	a5,16(sp)
80003a3c:	85d2                	mv	a1,s4
80003a3e:	8522                	mv	a0,s0
80003a40:	c4eff0ef          	jal	ra,80002e8e <quorem>
80003a44:	85da                	mv	a1,s6
80003a46:	8caa                	mv	s9,a0
80003a48:	03050a93          	addi	s5,a0,48
80003a4c:	8522                	mv	a0,s0
80003a4e:	645000ef          	jal	ra,80004892 <__mcmp>
80003a52:	85d2                	mv	a1,s4
80003a54:	8baa                	mv	s7,a0
80003a56:	864a                	mv	a2,s2
80003a58:	8526                	mv	a0,s1
80003a5a:	66f000ef          	jal	ra,800048c8 <__mdiff>
80003a5e:	4554                	lw	a3,12(a0)
80003a60:	fffc0d13          	addi	s10,s8,-1
80003a64:	85aa                	mv	a1,a0
80003a66:	4705                	li	a4,1
80003a68:	e699                	bnez	a3,80003a76 <_dtoa_r+0xabc>
80003a6a:	ce2a                	sw	a0,28(sp)
80003a6c:	8522                	mv	a0,s0
80003a6e:	625000ef          	jal	ra,80004892 <__mcmp>
80003a72:	45f2                	lw	a1,28(sp)
80003a74:	872a                	mv	a4,a0
80003a76:	8526                	mv	a0,s1
80003a78:	ce3a                	sw	a4,28(sp)
80003a7a:	0bf000ef          	jal	ra,80004338 <_Bfree>
80003a7e:	47d2                	lw	a5,20(sp)
80003a80:	4772                	lw	a4,28(sp)
80003a82:	89e2                	mv	s3,s8
80003a84:	00e7e6b3          	or	a3,a5,a4
80003a88:	47c2                	lw	a5,16(sp)
80003a8a:	8edd                	or	a3,a3,a5
80003a8c:	ee81                	bnez	a3,80003aa4 <_dtoa_r+0xaea>
80003a8e:	03900713          	li	a4,57
80003a92:	04ea8863          	beq	s5,a4,80003ae2 <_dtoa_r+0xb28>
80003a96:	01705463          	blez	s7,80003a9e <_dtoa_r+0xae4>
80003a9a:	031c8a93          	addi	s5,s9,49
80003a9e:	015d0023          	sb	s5,0(s10)
80003aa2:	bddd                	j	80003998 <_dtoa_r+0x9de>
80003aa4:	000bca63          	bltz	s7,80003ab8 <_dtoa_r+0xafe>
80003aa8:	47d2                	lw	a5,20(sp)
80003aaa:	0177ebb3          	or	s7,a5,s7
80003aae:	47c2                	lw	a5,16(sp)
80003ab0:	00fbebb3          	or	s7,s7,a5
80003ab4:	040b9863          	bnez	s7,80003b04 <_dtoa_r+0xb4a>
80003ab8:	fee053e3          	blez	a4,80003a9e <_dtoa_r+0xae4>
80003abc:	85a2                	mv	a1,s0
80003abe:	4605                	li	a2,1
80003ac0:	8526                	mv	a0,s1
80003ac2:	4cd000ef          	jal	ra,8000478e <__lshift>
80003ac6:	85d2                	mv	a1,s4
80003ac8:	842a                	mv	s0,a0
80003aca:	5c9000ef          	jal	ra,80004892 <__mcmp>
80003ace:	00a04663          	bgtz	a0,80003ada <_dtoa_r+0xb20>
80003ad2:	f571                	bnez	a0,80003a9e <_dtoa_r+0xae4>
80003ad4:	001af713          	andi	a4,s5,1
80003ad8:	d379                	beqz	a4,80003a9e <_dtoa_r+0xae4>
80003ada:	03900713          	li	a4,57
80003ade:	faea9ee3          	bne	s5,a4,80003a9a <_dtoa_r+0xae0>
80003ae2:	03900793          	li	a5,57
80003ae6:	00fd0023          	sb	a5,0(s10)
80003aea:	87ce                	mv	a5,s3
80003aec:	03900693          	li	a3,57
80003af0:	89be                	mv	s3,a5
80003af2:	fff9c703          	lbu	a4,-1(s3)
80003af6:	17fd                	addi	a5,a5,-1
80003af8:	0ad70563          	beq	a4,a3,80003ba2 <_dtoa_r+0xbe8>
80003afc:	0705                	addi	a4,a4,1
80003afe:	00e78023          	sb	a4,0(a5)
80003b02:	bd59                	j	80003998 <_dtoa_r+0x9de>
80003b04:	00e05b63          	blez	a4,80003b1a <_dtoa_r+0xb60>
80003b08:	03900713          	li	a4,57
80003b0c:	fcea8be3          	beq	s5,a4,80003ae2 <_dtoa_r+0xb28>
80003b10:	001a8793          	addi	a5,s5,1
80003b14:	00fd0023          	sb	a5,0(s10)
80003b18:	b541                	j	80003998 <_dtoa_r+0x9de>
80003b1a:	47e2                	lw	a5,24(sp)
80003b1c:	ff5c0fa3          	sb	s5,-1(s8)
80003b20:	05878863          	beq	a5,s8,80003b70 <_dtoa_r+0xbb6>
80003b24:	85a2                	mv	a1,s0
80003b26:	4681                	li	a3,0
80003b28:	4629                	li	a2,10
80003b2a:	8526                	mv	a0,s1
80003b2c:	06d000ef          	jal	ra,80004398 <__multadd>
80003b30:	842a                	mv	s0,a0
80003b32:	4681                	li	a3,0
80003b34:	4629                	li	a2,10
80003b36:	85da                	mv	a1,s6
80003b38:	8526                	mv	a0,s1
80003b3a:	012b1863          	bne	s6,s2,80003b4a <_dtoa_r+0xb90>
80003b3e:	05b000ef          	jal	ra,80004398 <__multadd>
80003b42:	8b2a                	mv	s6,a0
80003b44:	892a                	mv	s2,a0
80003b46:	0c05                	addi	s8,s8,1
80003b48:	bdd5                	j	80003a3c <_dtoa_r+0xa82>
80003b4a:	04f000ef          	jal	ra,80004398 <__multadd>
80003b4e:	85ca                	mv	a1,s2
80003b50:	8b2a                	mv	s6,a0
80003b52:	4681                	li	a3,0
80003b54:	4629                	li	a2,10
80003b56:	8526                	mv	a0,s1
80003b58:	041000ef          	jal	ra,80004398 <__multadd>
80003b5c:	892a                	mv	s2,a0
80003b5e:	b7e5                	j	80003b46 <_dtoa_r+0xb8c>
80003b60:	47c2                	lw	a5,16(sp)
80003b62:	4985                	li	s3,1
80003b64:	00f05363          	blez	a5,80003b6a <_dtoa_r+0xbb0>
80003b68:	89be                	mv	s3,a5
80003b6a:	47b2                	lw	a5,12(sp)
80003b6c:	4b01                	li	s6,0
80003b6e:	99be                	add	s3,s3,a5
80003b70:	85a2                	mv	a1,s0
80003b72:	4605                	li	a2,1
80003b74:	8526                	mv	a0,s1
80003b76:	419000ef          	jal	ra,8000478e <__lshift>
80003b7a:	85d2                	mv	a1,s4
80003b7c:	842a                	mv	s0,a0
80003b7e:	515000ef          	jal	ra,80004892 <__mcmp>
80003b82:	f6a044e3          	bgtz	a0,80003aea <_dtoa_r+0xb30>
80003b86:	e501                	bnez	a0,80003b8e <_dtoa_r+0xbd4>
80003b88:	001af793          	andi	a5,s5,1
80003b8c:	ffb9                	bnez	a5,80003aea <_dtoa_r+0xb30>
80003b8e:	87ce                	mv	a5,s3
80003b90:	03000713          	li	a4,48
80003b94:	89be                	mv	s3,a5
80003b96:	fff7c683          	lbu	a3,-1(a5)
80003b9a:	17fd                	addi	a5,a5,-1
80003b9c:	fee68ce3          	beq	a3,a4,80003b94 <_dtoa_r+0xbda>
80003ba0:	bbe5                	j	80003998 <_dtoa_r+0x9de>
80003ba2:	4732                	lw	a4,12(sp)
80003ba4:	f4f716e3          	bne	a4,a5,80003af0 <_dtoa_r+0xb36>
80003ba8:	03100793          	li	a5,49
80003bac:	0d85                	addi	s11,s11,1
80003bae:	00f70023          	sb	a5,0(a4)
80003bb2:	b3dd                	j	80003998 <_dtoa_r+0x9de>
80003bb4:	5712                	lw	a4,36(sp)
80003bb6:	00004797          	auipc	a5,0x4
80003bba:	89e78793          	addi	a5,a5,-1890 # 80007454 <__clz_tab+0x194>
80003bbe:	c63e                	sw	a5,12(sp)
80003bc0:	00004797          	auipc	a5,0x4
80003bc4:	89c78793          	addi	a5,a5,-1892 # 8000745c <__clz_tab+0x19c>
80003bc8:	cc071a63          	bnez	a4,8000309c <_dtoa_r+0xe2>
80003bcc:	cd4ff06f          	j	800030a0 <_dtoa_r+0xe6>
80003bd0:	47c2                	lw	a5,16(sp)
80003bd2:	00f04663          	bgtz	a5,80003bde <_dtoa_r+0xc24>
80003bd6:	4752                	lw	a4,20(sp)
80003bd8:	4789                	li	a5,2
80003bda:	d8e7cbe3          	blt	a5,a4,80003970 <_dtoa_r+0x9b6>
80003bde:	4981                	li	s3,0
80003be0:	85d2                	mv	a1,s4
80003be2:	8522                	mv	a0,s0
80003be4:	aaaff0ef          	jal	ra,80002e8e <quorem>
80003be8:	47b2                	lw	a5,12(sp)
80003bea:	03050a93          	addi	s5,a0,48
80003bee:	01378733          	add	a4,a5,s3
80003bf2:	47c2                	lw	a5,16(sp)
80003bf4:	01570023          	sb	s5,0(a4)
80003bf8:	0985                	addi	s3,s3,1
80003bfa:	f6f9d3e3          	bge	s3,a5,80003b60 <_dtoa_r+0xba6>
80003bfe:	85a2                	mv	a1,s0
80003c00:	4681                	li	a3,0
80003c02:	4629                	li	a2,10
80003c04:	8526                	mv	a0,s1
80003c06:	792000ef          	jal	ra,80004398 <__multadd>
80003c0a:	842a                	mv	s0,a0
80003c0c:	bfd1                	j	80003be0 <_dtoa_r+0xc26>

80003c0e <__sflush_r>:
__sflush_r():
80003c0e:	00c5d783          	lhu	a5,12(a1) # 7ff0000c <__stack_size+0x7feff80c>
80003c12:	1101                	addi	sp,sp,-32
80003c14:	cc22                	sw	s0,24(sp)
80003c16:	ca26                	sw	s1,20(sp)
80003c18:	ce06                	sw	ra,28(sp)
80003c1a:	c84a                	sw	s2,16(sp)
80003c1c:	c64e                	sw	s3,12(sp)
80003c1e:	0087f713          	andi	a4,a5,8
80003c22:	84aa                	mv	s1,a0
80003c24:	842e                	mv	s0,a1
80003c26:	e37d                	bnez	a4,80003d0c <__sflush_r+0xfe>
80003c28:	41d8                	lw	a4,4(a1)
80003c2a:	00e04763          	bgtz	a4,80003c38 <__sflush_r+0x2a>
80003c2e:	41b8                	lw	a4,64(a1)
80003c30:	00e04463          	bgtz	a4,80003c38 <__sflush_r+0x2a>
80003c34:	4501                	li	a0,0
80003c36:	a87d                	j	80003cf4 <__sflush_r+0xe6>
80003c38:	5458                	lw	a4,44(s0)
80003c3a:	df6d                	beqz	a4,80003c34 <__sflush_r+0x26>
80003c3c:	6685                	lui	a3,0x1
80003c3e:	0004a903          	lw	s2,0(s1)
80003c42:	8ff5                	and	a5,a5,a3
80003c44:	0004a023          	sw	zero,0(s1)
80003c48:	cfad                	beqz	a5,80003cc2 <__sflush_r+0xb4>
80003c4a:	4868                	lw	a0,84(s0)
80003c4c:	00c45783          	lhu	a5,12(s0)
80003c50:	8b91                	andi	a5,a5,4
80003c52:	c799                	beqz	a5,80003c60 <__sflush_r+0x52>
80003c54:	405c                	lw	a5,4(s0)
80003c56:	8d1d                	sub	a0,a0,a5
80003c58:	585c                	lw	a5,52(s0)
80003c5a:	c399                	beqz	a5,80003c60 <__sflush_r+0x52>
80003c5c:	403c                	lw	a5,64(s0)
80003c5e:	8d1d                	sub	a0,a0,a5
80003c60:	545c                	lw	a5,44(s0)
80003c62:	500c                	lw	a1,32(s0)
80003c64:	862a                	mv	a2,a0
80003c66:	4681                	li	a3,0
80003c68:	8526                	mv	a0,s1
80003c6a:	9782                	jalr	a5
80003c6c:	57fd                	li	a5,-1
80003c6e:	00c45703          	lhu	a4,12(s0)
80003c72:	00f51d63          	bne	a0,a5,80003c8c <__sflush_r+0x7e>
80003c76:	4094                	lw	a3,0(s1)
80003c78:	47f5                	li	a5,29
80003c7a:	08d7e463          	bltu	a5,a3,80003d02 <__sflush_r+0xf4>
80003c7e:	204007b7          	lui	a5,0x20400
80003c82:	0785                	addi	a5,a5,1
80003c84:	00d7d7b3          	srl	a5,a5,a3
80003c88:	8b85                	andi	a5,a5,1
80003c8a:	cfa5                	beqz	a5,80003d02 <__sflush_r+0xf4>
80003c8c:	481c                	lw	a5,16(s0)
80003c8e:	00042223          	sw	zero,4(s0)
80003c92:	c01c                	sw	a5,0(s0)
80003c94:	6785                	lui	a5,0x1
80003c96:	8f7d                	and	a4,a4,a5
80003c98:	c719                	beqz	a4,80003ca6 <__sflush_r+0x98>
80003c9a:	57fd                	li	a5,-1
80003c9c:	00f51463          	bne	a0,a5,80003ca4 <__sflush_r+0x96>
80003ca0:	409c                	lw	a5,0(s1)
80003ca2:	e391                	bnez	a5,80003ca6 <__sflush_r+0x98>
80003ca4:	c868                	sw	a0,84(s0)
80003ca6:	584c                	lw	a1,52(s0)
80003ca8:	0124a023          	sw	s2,0(s1)
80003cac:	d5c1                	beqz	a1,80003c34 <__sflush_r+0x26>
80003cae:	04440793          	addi	a5,s0,68
80003cb2:	00f58563          	beq	a1,a5,80003cbc <__sflush_r+0xae>
80003cb6:	8526                	mv	a0,s1
80003cb8:	691000ef          	jal	ra,80004b48 <_free_r>
80003cbc:	02042a23          	sw	zero,52(s0)
80003cc0:	bf95                	j	80003c34 <__sflush_r+0x26>
80003cc2:	500c                	lw	a1,32(s0)
80003cc4:	4685                	li	a3,1
80003cc6:	4601                	li	a2,0
80003cc8:	8526                	mv	a0,s1
80003cca:	9702                	jalr	a4
80003ccc:	57fd                	li	a5,-1
80003cce:	f6f51fe3          	bne	a0,a5,80003c4c <__sflush_r+0x3e>
80003cd2:	409c                	lw	a5,0(s1)
80003cd4:	dfa5                	beqz	a5,80003c4c <__sflush_r+0x3e>
80003cd6:	4775                	li	a4,29
80003cd8:	00e78563          	beq	a5,a4,80003ce2 <__sflush_r+0xd4>
80003cdc:	4759                	li	a4,22
80003cde:	00e79563          	bne	a5,a4,80003ce8 <__sflush_r+0xda>
80003ce2:	0124a023          	sw	s2,0(s1)
80003ce6:	b7b9                	j	80003c34 <__sflush_r+0x26>
80003ce8:	00c45783          	lhu	a5,12(s0)
80003cec:	0407e793          	ori	a5,a5,64
80003cf0:	00f41623          	sh	a5,12(s0)
80003cf4:	40f2                	lw	ra,28(sp)
80003cf6:	4462                	lw	s0,24(sp)
80003cf8:	44d2                	lw	s1,20(sp)
80003cfa:	4942                	lw	s2,16(sp)
80003cfc:	49b2                	lw	s3,12(sp)
80003cfe:	6105                	addi	sp,sp,32
80003d00:	8082                	ret
80003d02:	04076713          	ori	a4,a4,64
80003d06:	00e41623          	sh	a4,12(s0)
80003d0a:	b7ed                	j	80003cf4 <__sflush_r+0xe6>
80003d0c:	0105a983          	lw	s3,16(a1)
80003d10:	f20982e3          	beqz	s3,80003c34 <__sflush_r+0x26>
80003d14:	0005a903          	lw	s2,0(a1)
80003d18:	8b8d                	andi	a5,a5,3
80003d1a:	0135a023          	sw	s3,0(a1)
80003d1e:	41390933          	sub	s2,s2,s3
80003d22:	4701                	li	a4,0
80003d24:	e391                	bnez	a5,80003d28 <__sflush_r+0x11a>
80003d26:	49d8                	lw	a4,20(a1)
80003d28:	c418                	sw	a4,8(s0)
80003d2a:	f12055e3          	blez	s2,80003c34 <__sflush_r+0x26>
80003d2e:	541c                	lw	a5,40(s0)
80003d30:	500c                	lw	a1,32(s0)
80003d32:	86ca                	mv	a3,s2
80003d34:	864e                	mv	a2,s3
80003d36:	8526                	mv	a0,s1
80003d38:	9782                	jalr	a5
80003d3a:	00a04a63          	bgtz	a0,80003d4e <__sflush_r+0x140>
80003d3e:	00c45783          	lhu	a5,12(s0)
80003d42:	557d                	li	a0,-1
80003d44:	0407e793          	ori	a5,a5,64
80003d48:	00f41623          	sh	a5,12(s0)
80003d4c:	b765                	j	80003cf4 <__sflush_r+0xe6>
80003d4e:	99aa                	add	s3,s3,a0
80003d50:	40a90933          	sub	s2,s2,a0
80003d54:	bfd9                	j	80003d2a <__sflush_r+0x11c>

80003d56 <_fflush_r>:
_fflush_r():
80003d56:	499c                	lw	a5,16(a1)
80003d58:	cfb9                	beqz	a5,80003db6 <_fflush_r+0x60>
80003d5a:	1101                	addi	sp,sp,-32
80003d5c:	cc22                	sw	s0,24(sp)
80003d5e:	ce06                	sw	ra,28(sp)
80003d60:	842a                	mv	s0,a0
80003d62:	c511                	beqz	a0,80003d6e <_fflush_r+0x18>
80003d64:	4d1c                	lw	a5,24(a0)
80003d66:	e781                	bnez	a5,80003d6e <_fflush_r+0x18>
80003d68:	c62e                	sw	a1,12(sp)
80003d6a:	2221                	jal	80003e72 <__sinit>
80003d6c:	45b2                	lw	a1,12(sp)
80003d6e:	00003797          	auipc	a5,0x3
80003d72:	79678793          	addi	a5,a5,1942 # 80007504 <__sf_fake_stdin>
80003d76:	00f59b63          	bne	a1,a5,80003d8c <_fflush_r+0x36>
80003d7a:	404c                	lw	a1,4(s0)
80003d7c:	00c59783          	lh	a5,12(a1)
80003d80:	c795                	beqz	a5,80003dac <_fflush_r+0x56>
80003d82:	8522                	mv	a0,s0
80003d84:	4462                	lw	s0,24(sp)
80003d86:	40f2                	lw	ra,28(sp)
80003d88:	6105                	addi	sp,sp,32
80003d8a:	b551                	j	80003c0e <__sflush_r>
80003d8c:	00003797          	auipc	a5,0x3
80003d90:	79878793          	addi	a5,a5,1944 # 80007524 <__sf_fake_stdout>
80003d94:	00f59463          	bne	a1,a5,80003d9c <_fflush_r+0x46>
80003d98:	440c                	lw	a1,8(s0)
80003d9a:	b7cd                	j	80003d7c <_fflush_r+0x26>
80003d9c:	00003797          	auipc	a5,0x3
80003da0:	74878793          	addi	a5,a5,1864 # 800074e4 <__sf_fake_stderr>
80003da4:	fcf59ce3          	bne	a1,a5,80003d7c <_fflush_r+0x26>
80003da8:	444c                	lw	a1,12(s0)
80003daa:	bfc9                	j	80003d7c <_fflush_r+0x26>
80003dac:	40f2                	lw	ra,28(sp)
80003dae:	4462                	lw	s0,24(sp)
80003db0:	4501                	li	a0,0
80003db2:	6105                	addi	sp,sp,32
80003db4:	8082                	ret
80003db6:	4501                	li	a0,0
80003db8:	8082                	ret

80003dba <std>:
std():
80003dba:	1141                	addi	sp,sp,-16
80003dbc:	c422                	sw	s0,8(sp)
80003dbe:	c606                	sw	ra,12(sp)
80003dc0:	842a                	mv	s0,a0
80003dc2:	00b51623          	sh	a1,12(a0)
80003dc6:	00c51723          	sh	a2,14(a0)
80003dca:	00052023          	sw	zero,0(a0)
80003dce:	00052223          	sw	zero,4(a0)
80003dd2:	00052423          	sw	zero,8(a0)
80003dd6:	06052223          	sw	zero,100(a0)
80003dda:	00052823          	sw	zero,16(a0)
80003dde:	00052a23          	sw	zero,20(a0)
80003de2:	00052c23          	sw	zero,24(a0)
80003de6:	4621                	li	a2,8
80003de8:	4581                	li	a1,0
80003dea:	05c50513          	addi	a0,a0,92
80003dee:	2edd                	jal	800041e4 <memset>
80003df0:	00001797          	auipc	a5,0x1
80003df4:	28278793          	addi	a5,a5,642 # 80005072 <__sread>
80003df8:	d05c                	sw	a5,36(s0)
80003dfa:	00001797          	auipc	a5,0x1
80003dfe:	2a878793          	addi	a5,a5,680 # 800050a2 <__swrite>
80003e02:	d41c                	sw	a5,40(s0)
80003e04:	00001797          	auipc	a5,0x1
80003e08:	2ec78793          	addi	a5,a5,748 # 800050f0 <__sseek>
80003e0c:	d45c                	sw	a5,44(s0)
80003e0e:	00001797          	auipc	a5,0x1
80003e12:	31878793          	addi	a5,a5,792 # 80005126 <__sclose>
80003e16:	40b2                	lw	ra,12(sp)
80003e18:	d000                	sw	s0,32(s0)
80003e1a:	d81c                	sw	a5,48(s0)
80003e1c:	4422                	lw	s0,8(sp)
80003e1e:	0141                	addi	sp,sp,16
80003e20:	8082                	ret

80003e22 <_cleanup_r>:
_cleanup_r():
80003e22:	00000597          	auipc	a1,0x0
80003e26:	f3458593          	addi	a1,a1,-204 # 80003d56 <_fflush_r>
80003e2a:	a299                	j	80003f70 <_fwalk_reent>

80003e2c <__sfmoreglue>:
__sfmoreglue():
80003e2c:	1141                	addi	sp,sp,-16
80003e2e:	c226                	sw	s1,4(sp)
80003e30:	06800613          	li	a2,104
80003e34:	fff58493          	addi	s1,a1,-1
80003e38:	02c484b3          	mul	s1,s1,a2
80003e3c:	c04a                	sw	s2,0(sp)
80003e3e:	892e                	mv	s2,a1
80003e40:	c422                	sw	s0,8(sp)
80003e42:	c606                	sw	ra,12(sp)
80003e44:	07448593          	addi	a1,s1,116
80003e48:	5a3000ef          	jal	ra,80004bea <_malloc_r>
80003e4c:	842a                	mv	s0,a0
80003e4e:	c919                	beqz	a0,80003e64 <__sfmoreglue+0x38>
80003e50:	00052023          	sw	zero,0(a0)
80003e54:	01252223          	sw	s2,4(a0)
80003e58:	0531                	addi	a0,a0,12
80003e5a:	c408                	sw	a0,8(s0)
80003e5c:	06848613          	addi	a2,s1,104
80003e60:	4581                	li	a1,0
80003e62:	2649                	jal	800041e4 <memset>
80003e64:	40b2                	lw	ra,12(sp)
80003e66:	8522                	mv	a0,s0
80003e68:	4422                	lw	s0,8(sp)
80003e6a:	4492                	lw	s1,4(sp)
80003e6c:	4902                	lw	s2,0(sp)
80003e6e:	0141                	addi	sp,sp,16
80003e70:	8082                	ret

80003e72 <__sinit>:
__sinit():
80003e72:	4d1c                	lw	a5,24(a0)
80003e74:	e3ad                	bnez	a5,80003ed6 <__sinit+0x64>
80003e76:	1141                	addi	sp,sp,-16
80003e78:	c422                	sw	s0,8(sp)
80003e7a:	c606                	sw	ra,12(sp)
80003e7c:	00000797          	auipc	a5,0x0
80003e80:	fa678793          	addi	a5,a5,-90 # 80003e22 <_cleanup_r>
80003e84:	d51c                	sw	a5,40(a0)
80003e86:	04052423          	sw	zero,72(a0)
80003e8a:	04052623          	sw	zero,76(a0)
80003e8e:	04052823          	sw	zero,80(a0)
80003e92:	8601a783          	lw	a5,-1952(gp) # 90000230 <_global_impure_ptr>
80003e96:	842a                	mv	s0,a0
80003e98:	00f51463          	bne	a0,a5,80003ea0 <__sinit+0x2e>
80003e9c:	4785                	li	a5,1
80003e9e:	cd1c                	sw	a5,24(a0)
80003ea0:	8522                	mv	a0,s0
80003ea2:	281d                	jal	80003ed8 <__sfp>
80003ea4:	c048                	sw	a0,4(s0)
80003ea6:	8522                	mv	a0,s0
80003ea8:	2805                	jal	80003ed8 <__sfp>
80003eaa:	c408                	sw	a0,8(s0)
80003eac:	8522                	mv	a0,s0
80003eae:	202d                	jal	80003ed8 <__sfp>
80003eb0:	c448                	sw	a0,12(s0)
80003eb2:	4048                	lw	a0,4(s0)
80003eb4:	4601                	li	a2,0
80003eb6:	4591                	li	a1,4
80003eb8:	3709                	jal	80003dba <std>
80003eba:	4408                	lw	a0,8(s0)
80003ebc:	4605                	li	a2,1
80003ebe:	45a5                	li	a1,9
80003ec0:	3ded                	jal	80003dba <std>
80003ec2:	4448                	lw	a0,12(s0)
80003ec4:	4609                	li	a2,2
80003ec6:	45c9                	li	a1,18
80003ec8:	3dcd                	jal	80003dba <std>
80003eca:	4785                	li	a5,1
80003ecc:	40b2                	lw	ra,12(sp)
80003ece:	cc1c                	sw	a5,24(s0)
80003ed0:	4422                	lw	s0,8(sp)
80003ed2:	0141                	addi	sp,sp,16
80003ed4:	8082                	ret
80003ed6:	8082                	ret

80003ed8 <__sfp>:
__sfp():
80003ed8:	1141                	addi	sp,sp,-16
80003eda:	c226                	sw	s1,4(sp)
80003edc:	8601a483          	lw	s1,-1952(gp) # 90000230 <_global_impure_ptr>
80003ee0:	4c9c                	lw	a5,24(s1)
80003ee2:	c04a                	sw	s2,0(sp)
80003ee4:	c606                	sw	ra,12(sp)
80003ee6:	c422                	sw	s0,8(sp)
80003ee8:	892a                	mv	s2,a0
80003eea:	e399                	bnez	a5,80003ef0 <__sfp+0x18>
80003eec:	8526                	mv	a0,s1
80003eee:	3751                	jal	80003e72 <__sinit>
80003ef0:	04848493          	addi	s1,s1,72
80003ef4:	4480                	lw	s0,8(s1)
80003ef6:	40dc                	lw	a5,4(s1)
80003ef8:	17fd                	addi	a5,a5,-1
80003efa:	0007d663          	bgez	a5,80003f06 <__sfp+0x2e>
80003efe:	409c                	lw	a5,0(s1)
80003f00:	cfb1                	beqz	a5,80003f5c <__sfp+0x84>
80003f02:	4084                	lw	s1,0(s1)
80003f04:	bfc5                	j	80003ef4 <__sfp+0x1c>
80003f06:	00c41703          	lh	a4,12(s0)
80003f0a:	e731                	bnez	a4,80003f56 <__sfp+0x7e>
80003f0c:	77c1                	lui	a5,0xffff0
80003f0e:	0785                	addi	a5,a5,1
80003f10:	06042223          	sw	zero,100(s0)
80003f14:	00042023          	sw	zero,0(s0)
80003f18:	00042223          	sw	zero,4(s0)
80003f1c:	00042423          	sw	zero,8(s0)
80003f20:	c45c                	sw	a5,12(s0)
80003f22:	00042823          	sw	zero,16(s0)
80003f26:	00042a23          	sw	zero,20(s0)
80003f2a:	00042c23          	sw	zero,24(s0)
80003f2e:	4621                	li	a2,8
80003f30:	4581                	li	a1,0
80003f32:	05c40513          	addi	a0,s0,92
80003f36:	247d                	jal	800041e4 <memset>
80003f38:	02042a23          	sw	zero,52(s0)
80003f3c:	02042c23          	sw	zero,56(s0)
80003f40:	04042423          	sw	zero,72(s0)
80003f44:	04042623          	sw	zero,76(s0)
80003f48:	40b2                	lw	ra,12(sp)
80003f4a:	8522                	mv	a0,s0
80003f4c:	4422                	lw	s0,8(sp)
80003f4e:	4492                	lw	s1,4(sp)
80003f50:	4902                	lw	s2,0(sp)
80003f52:	0141                	addi	sp,sp,16
80003f54:	8082                	ret
80003f56:	06840413          	addi	s0,s0,104
80003f5a:	bf79                	j	80003ef8 <__sfp+0x20>
80003f5c:	4591                	li	a1,4
80003f5e:	854a                	mv	a0,s2
80003f60:	35f1                	jal	80003e2c <__sfmoreglue>
80003f62:	c088                	sw	a0,0(s1)
80003f64:	842a                	mv	s0,a0
80003f66:	fd51                	bnez	a0,80003f02 <__sfp+0x2a>
80003f68:	47b1                	li	a5,12
80003f6a:	00f92023          	sw	a5,0(s2)
80003f6e:	bfe9                	j	80003f48 <__sfp+0x70>

80003f70 <_fwalk_reent>:
_fwalk_reent():
80003f70:	7179                	addi	sp,sp,-48
80003f72:	d422                	sw	s0,40(sp)
80003f74:	d04a                	sw	s2,32(sp)
80003f76:	ce4e                	sw	s3,28(sp)
80003f78:	cc52                	sw	s4,24(sp)
80003f7a:	c85a                	sw	s6,16(sp)
80003f7c:	c65e                	sw	s7,12(sp)
80003f7e:	d606                	sw	ra,44(sp)
80003f80:	d226                	sw	s1,36(sp)
80003f82:	ca56                	sw	s5,20(sp)
80003f84:	892a                	mv	s2,a0
80003f86:	8a2e                	mv	s4,a1
80003f88:	04850413          	addi	s0,a0,72
80003f8c:	4981                	li	s3,0
80003f8e:	4b05                	li	s6,1
80003f90:	5bfd                	li	s7,-1
80003f92:	4404                	lw	s1,8(s0)
80003f94:	00442a83          	lw	s5,4(s0)
80003f98:	1afd                	addi	s5,s5,-1
80003f9a:	020ad063          	bgez	s5,80003fba <_fwalk_reent+0x4a>
80003f9e:	4000                	lw	s0,0(s0)
80003fa0:	f86d                	bnez	s0,80003f92 <_fwalk_reent+0x22>
80003fa2:	50b2                	lw	ra,44(sp)
80003fa4:	5422                	lw	s0,40(sp)
80003fa6:	5492                	lw	s1,36(sp)
80003fa8:	5902                	lw	s2,32(sp)
80003faa:	4a62                	lw	s4,24(sp)
80003fac:	4ad2                	lw	s5,20(sp)
80003fae:	4b42                	lw	s6,16(sp)
80003fb0:	4bb2                	lw	s7,12(sp)
80003fb2:	854e                	mv	a0,s3
80003fb4:	49f2                	lw	s3,28(sp)
80003fb6:	6145                	addi	sp,sp,48
80003fb8:	8082                	ret
80003fba:	00c4d783          	lhu	a5,12(s1)
80003fbe:	00fb7b63          	bgeu	s6,a5,80003fd4 <_fwalk_reent+0x64>
80003fc2:	00e49783          	lh	a5,14(s1)
80003fc6:	01778763          	beq	a5,s7,80003fd4 <_fwalk_reent+0x64>
80003fca:	85a6                	mv	a1,s1
80003fcc:	854a                	mv	a0,s2
80003fce:	9a02                	jalr	s4
80003fd0:	00a9e9b3          	or	s3,s3,a0
80003fd4:	06848493          	addi	s1,s1,104
80003fd8:	b7c1                	j	80003f98 <_fwalk_reent+0x28>

80003fda <_localeconv_r>:
_localeconv_r():
80003fda:	0fffc517          	auipc	a0,0xfffc
80003fde:	17650513          	addi	a0,a0,374 # 90000150 <__global_locale+0xf0>
80003fe2:	8082                	ret

80003fe4 <__swhatbuf_r>:
__swhatbuf_r():
80003fe4:	7159                	addi	sp,sp,-112
80003fe6:	d0ca                	sw	s2,96(sp)
80003fe8:	892e                	mv	s2,a1
80003fea:	00e59583          	lh	a1,14(a1)
80003fee:	d4a2                	sw	s0,104(sp)
80003ff0:	d2a6                	sw	s1,100(sp)
80003ff2:	d686                	sw	ra,108(sp)
80003ff4:	8432                	mv	s0,a2
80003ff6:	84b6                	mv	s1,a3
80003ff8:	0005dc63          	bgez	a1,80004010 <__swhatbuf_r+0x2c>
80003ffc:	00c91783          	lh	a5,12(s2)
80004000:	0004a023          	sw	zero,0(s1)
80004004:	0807f793          	andi	a5,a5,128
80004008:	e395                	bnez	a5,8000402c <__swhatbuf_r+0x48>
8000400a:	40000793          	li	a5,1024
8000400e:	a00d                	j	80004030 <__swhatbuf_r+0x4c>
80004010:	0030                	addi	a2,sp,8
80004012:	1d2010ef          	jal	ra,800051e4 <_fstat_r>
80004016:	fe0543e3          	bltz	a0,80003ffc <__swhatbuf_r+0x18>
8000401a:	4732                	lw	a4,12(sp)
8000401c:	67bd                	lui	a5,0xf
8000401e:	8ff9                	and	a5,a5,a4
80004020:	7779                	lui	a4,0xffffe
80004022:	97ba                	add	a5,a5,a4
80004024:	0017b793          	seqz	a5,a5
80004028:	c09c                	sw	a5,0(s1)
8000402a:	b7c5                	j	8000400a <__swhatbuf_r+0x26>
8000402c:	04000793          	li	a5,64
80004030:	50b6                	lw	ra,108(sp)
80004032:	c01c                	sw	a5,0(s0)
80004034:	5426                	lw	s0,104(sp)
80004036:	5496                	lw	s1,100(sp)
80004038:	5906                	lw	s2,96(sp)
8000403a:	4501                	li	a0,0
8000403c:	6165                	addi	sp,sp,112
8000403e:	8082                	ret

80004040 <__smakebuf_r>:
__smakebuf_r():
80004040:	00c5d783          	lhu	a5,12(a1)
80004044:	1101                	addi	sp,sp,-32
80004046:	cc22                	sw	s0,24(sp)
80004048:	ce06                	sw	ra,28(sp)
8000404a:	ca26                	sw	s1,20(sp)
8000404c:	c84a                	sw	s2,16(sp)
8000404e:	8b89                	andi	a5,a5,2
80004050:	842e                	mv	s0,a1
80004052:	cf89                	beqz	a5,8000406c <__smakebuf_r+0x2c>
80004054:	04740793          	addi	a5,s0,71
80004058:	c01c                	sw	a5,0(s0)
8000405a:	c81c                	sw	a5,16(s0)
8000405c:	4785                	li	a5,1
8000405e:	c85c                	sw	a5,20(s0)
80004060:	40f2                	lw	ra,28(sp)
80004062:	4462                	lw	s0,24(sp)
80004064:	44d2                	lw	s1,20(sp)
80004066:	4942                	lw	s2,16(sp)
80004068:	6105                	addi	sp,sp,32
8000406a:	8082                	ret
8000406c:	0074                	addi	a3,sp,12
8000406e:	0030                	addi	a2,sp,8
80004070:	892a                	mv	s2,a0
80004072:	3f8d                	jal	80003fe4 <__swhatbuf_r>
80004074:	45a2                	lw	a1,8(sp)
80004076:	84aa                	mv	s1,a0
80004078:	854a                	mv	a0,s2
8000407a:	371000ef          	jal	ra,80004bea <_malloc_r>
8000407e:	ed01                	bnez	a0,80004096 <__smakebuf_r+0x56>
80004080:	00c41783          	lh	a5,12(s0)
80004084:	2007f713          	andi	a4,a5,512
80004088:	ff61                	bnez	a4,80004060 <__smakebuf_r+0x20>
8000408a:	9bf1                	andi	a5,a5,-4
8000408c:	0027e793          	ori	a5,a5,2
80004090:	00f41623          	sh	a5,12(s0)
80004094:	b7c1                	j	80004054 <__smakebuf_r+0x14>
80004096:	00000797          	auipc	a5,0x0
8000409a:	d8c78793          	addi	a5,a5,-628 # 80003e22 <_cleanup_r>
8000409e:	02f92423          	sw	a5,40(s2)
800040a2:	00c45783          	lhu	a5,12(s0)
800040a6:	c008                	sw	a0,0(s0)
800040a8:	c808                	sw	a0,16(s0)
800040aa:	0807e793          	ori	a5,a5,128
800040ae:	00f41623          	sh	a5,12(s0)
800040b2:	47a2                	lw	a5,8(sp)
800040b4:	c85c                	sw	a5,20(s0)
800040b6:	47b2                	lw	a5,12(sp)
800040b8:	cf91                	beqz	a5,800040d4 <__smakebuf_r+0x94>
800040ba:	00e41583          	lh	a1,14(s0)
800040be:	854a                	mv	a0,s2
800040c0:	14e010ef          	jal	ra,8000520e <_isatty_r>
800040c4:	c901                	beqz	a0,800040d4 <__smakebuf_r+0x94>
800040c6:	00c45783          	lhu	a5,12(s0)
800040ca:	9bf1                	andi	a5,a5,-4
800040cc:	0017e793          	ori	a5,a5,1
800040d0:	00f41623          	sh	a5,12(s0)
800040d4:	00c45503          	lhu	a0,12(s0)
800040d8:	8cc9                	or	s1,s1,a0
800040da:	00941623          	sh	s1,12(s0)
800040de:	b749                	j	80004060 <__smakebuf_r+0x20>

800040e0 <malloc>:
malloc():
800040e0:	85aa                	mv	a1,a0
800040e2:	0fffc517          	auipc	a0,0xfffc
800040e6:	0f652503          	lw	a0,246(a0) # 900001d8 <_impure_ptr>
800040ea:	3010006f          	j	80004bea <_malloc_r>

800040ee <memchr>:
memchr():
800040ee:	0ff5f593          	zext.b	a1,a1
800040f2:	962a                	add	a2,a2,a0
800040f4:	00c51463          	bne	a0,a2,800040fc <memchr+0xe>
800040f8:	4501                	li	a0,0
800040fa:	8082                	ret
800040fc:	00054783          	lbu	a5,0(a0)
80004100:	feb78de3          	beq	a5,a1,800040fa <memchr+0xc>
80004104:	0505                	addi	a0,a0,1
80004106:	b7fd                	j	800040f4 <memchr+0x6>

80004108 <memcpy>:
memcpy():
80004108:	00a5c7b3          	xor	a5,a1,a0
8000410c:	8b8d                	andi	a5,a5,3
8000410e:	00c506b3          	add	a3,a0,a2
80004112:	e781                	bnez	a5,8000411a <memcpy+0x12>
80004114:	478d                	li	a5,3
80004116:	00c7ee63          	bltu	a5,a2,80004132 <memcpy+0x2a>
8000411a:	87aa                	mv	a5,a0
8000411c:	06d57163          	bgeu	a0,a3,8000417e <memcpy+0x76>
80004120:	0005c703          	lbu	a4,0(a1)
80004124:	0785                	addi	a5,a5,1
80004126:	0585                	addi	a1,a1,1
80004128:	fee78fa3          	sb	a4,-1(a5)
8000412c:	fed7eae3          	bltu	a5,a3,80004120 <memcpy+0x18>
80004130:	8082                	ret
80004132:	00357713          	andi	a4,a0,3
80004136:	87aa                	mv	a5,a0
80004138:	cb11                	beqz	a4,8000414c <memcpy+0x44>
8000413a:	0005c703          	lbu	a4,0(a1)
8000413e:	0785                	addi	a5,a5,1
80004140:	0585                	addi	a1,a1,1
80004142:	fee78fa3          	sb	a4,-1(a5)
80004146:	0037f713          	andi	a4,a5,3
8000414a:	b7fd                	j	80004138 <memcpy+0x30>
8000414c:	ffc6f713          	andi	a4,a3,-4
80004150:	40f70833          	sub	a6,a4,a5
80004154:	02000613          	li	a2,32
80004158:	03064463          	blt	a2,a6,80004180 <memcpy+0x78>
8000415c:	882e                	mv	a6,a1
8000415e:	863e                	mv	a2,a5
80004160:	06e66b63          	bltu	a2,a4,800041d6 <memcpy+0xce>
80004164:	ffd78813          	addi	a6,a5,-3
80004168:	4601                	li	a2,0
8000416a:	01076663          	bltu	a4,a6,80004176 <memcpy+0x6e>
8000416e:	070d                	addi	a4,a4,3
80004170:	8f1d                	sub	a4,a4,a5
80004172:	ffc77613          	andi	a2,a4,-4
80004176:	97b2                	add	a5,a5,a2
80004178:	95b2                	add	a1,a1,a2
8000417a:	fad7e3e3          	bltu	a5,a3,80004120 <memcpy+0x18>
8000417e:	8082                	ret
80004180:	0005a383          	lw	t2,0(a1)
80004184:	0045a283          	lw	t0,4(a1)
80004188:	0085af83          	lw	t6,8(a1)
8000418c:	00c5af03          	lw	t5,12(a1)
80004190:	0105ae83          	lw	t4,16(a1)
80004194:	0145ae03          	lw	t3,20(a1)
80004198:	0185a303          	lw	t1,24(a1)
8000419c:	01c5a883          	lw	a7,28(a1)
800041a0:	0077a023          	sw	t2,0(a5)
800041a4:	0057a223          	sw	t0,4(a5)
800041a8:	0205a803          	lw	a6,32(a1)
800041ac:	01f7a423          	sw	t6,8(a5)
800041b0:	01e7a623          	sw	t5,12(a5)
800041b4:	01d7a823          	sw	t4,16(a5)
800041b8:	01c7aa23          	sw	t3,20(a5)
800041bc:	0067ac23          	sw	t1,24(a5)
800041c0:	0117ae23          	sw	a7,28(a5)
800041c4:	02478793          	addi	a5,a5,36
800041c8:	02458593          	addi	a1,a1,36
800041cc:	ff07ae23          	sw	a6,-4(a5)
800041d0:	40f70833          	sub	a6,a4,a5
800041d4:	b751                	j	80004158 <memcpy+0x50>
800041d6:	00082883          	lw	a7,0(a6)
800041da:	0611                	addi	a2,a2,4
800041dc:	0811                	addi	a6,a6,4
800041de:	ff162e23          	sw	a7,-4(a2)
800041e2:	bfbd                	j	80004160 <memcpy+0x58>

800041e4 <memset>:
memset():
800041e4:	433d                	li	t1,15
800041e6:	872a                	mv	a4,a0
800041e8:	02c37363          	bgeu	t1,a2,8000420e <memset+0x2a>
800041ec:	00f77793          	andi	a5,a4,15
800041f0:	efbd                	bnez	a5,8000426e <memset+0x8a>
800041f2:	e5ad                	bnez	a1,8000425c <memset+0x78>
800041f4:	ff067693          	andi	a3,a2,-16
800041f8:	8a3d                	andi	a2,a2,15
800041fa:	96ba                	add	a3,a3,a4
800041fc:	c30c                	sw	a1,0(a4)
800041fe:	c34c                	sw	a1,4(a4)
80004200:	c70c                	sw	a1,8(a4)
80004202:	c74c                	sw	a1,12(a4)
80004204:	0741                	addi	a4,a4,16
80004206:	fed76be3          	bltu	a4,a3,800041fc <memset+0x18>
8000420a:	e211                	bnez	a2,8000420e <memset+0x2a>
8000420c:	8082                	ret
8000420e:	40c306b3          	sub	a3,t1,a2
80004212:	068a                	slli	a3,a3,0x2
80004214:	00000297          	auipc	t0,0x0
80004218:	9696                	add	a3,a3,t0
8000421a:	00a68067          	jr	10(a3) # 100a <__stack_size+0x80a>
8000421e:	00b70723          	sb	a1,14(a4) # ffffe00e <_sp+0x6ffee00e>
80004222:	00b706a3          	sb	a1,13(a4)
80004226:	00b70623          	sb	a1,12(a4)
8000422a:	00b705a3          	sb	a1,11(a4)
8000422e:	00b70523          	sb	a1,10(a4)
80004232:	00b704a3          	sb	a1,9(a4)
80004236:	00b70423          	sb	a1,8(a4)
8000423a:	00b703a3          	sb	a1,7(a4)
8000423e:	00b70323          	sb	a1,6(a4)
80004242:	00b702a3          	sb	a1,5(a4)
80004246:	00b70223          	sb	a1,4(a4)
8000424a:	00b701a3          	sb	a1,3(a4)
8000424e:	00b70123          	sb	a1,2(a4)
80004252:	00b700a3          	sb	a1,1(a4)
80004256:	00b70023          	sb	a1,0(a4)
8000425a:	8082                	ret
8000425c:	0ff5f593          	zext.b	a1,a1
80004260:	00859693          	slli	a3,a1,0x8
80004264:	8dd5                	or	a1,a1,a3
80004266:	01059693          	slli	a3,a1,0x10
8000426a:	8dd5                	or	a1,a1,a3
8000426c:	b761                	j	800041f4 <memset+0x10>
8000426e:	00279693          	slli	a3,a5,0x2
80004272:	00000297          	auipc	t0,0x0
80004276:	9696                	add	a3,a3,t0
80004278:	8286                	mv	t0,ra
8000427a:	fa8680e7          	jalr	-88(a3)
8000427e:	8096                	mv	ra,t0
80004280:	17c1                	addi	a5,a5,-16
80004282:	8f1d                	sub	a4,a4,a5
80004284:	963e                	add	a2,a2,a5
80004286:	f8c374e3          	bgeu	t1,a2,8000420e <memset+0x2a>
8000428a:	b7a5                	j	800041f2 <memset+0xe>

8000428c <_Balloc>:
_Balloc():
8000428c:	515c                	lw	a5,36(a0)
8000428e:	1141                	addi	sp,sp,-16
80004290:	c422                	sw	s0,8(sp)
80004292:	c226                	sw	s1,4(sp)
80004294:	c606                	sw	ra,12(sp)
80004296:	c04a                	sw	s2,0(sp)
80004298:	842a                	mv	s0,a0
8000429a:	84ae                	mv	s1,a1
8000429c:	eb95                	bnez	a5,800042d0 <_Balloc+0x44>
8000429e:	4541                	li	a0,16
800042a0:	3581                	jal	800040e0 <malloc>
800042a2:	d048                	sw	a0,36(s0)
800042a4:	ed11                	bnez	a0,800042c0 <_Balloc+0x34>
800042a6:	00003697          	auipc	a3,0x3
800042aa:	1be68693          	addi	a3,a3,446 # 80007464 <__clz_tab+0x1a4>
800042ae:	4601                	li	a2,0
800042b0:	06600593          	li	a1,102
800042b4:	00003517          	auipc	a0,0x3
800042b8:	29050513          	addi	a0,a0,656 # 80007544 <__sf_fake_stdout+0x20>
800042bc:	69d000ef          	jal	ra,80005158 <__assert_func>
800042c0:	00052223          	sw	zero,4(a0)
800042c4:	00052423          	sw	zero,8(a0)
800042c8:	00052023          	sw	zero,0(a0)
800042cc:	00052623          	sw	zero,12(a0)
800042d0:	02442903          	lw	s2,36(s0)
800042d4:	00c92783          	lw	a5,12(s2)
800042d8:	c79d                	beqz	a5,80004306 <_Balloc+0x7a>
800042da:	5058                	lw	a4,36(s0)
800042dc:	00249793          	slli	a5,s1,0x2
800042e0:	4758                	lw	a4,12(a4)
800042e2:	97ba                	add	a5,a5,a4
800042e4:	4388                	lw	a0,0(a5)
800042e6:	e131                	bnez	a0,8000432a <_Balloc+0x9e>
800042e8:	4905                	li	s2,1
800042ea:	00991933          	sll	s2,s2,s1
800042ee:	00590613          	addi	a2,s2,5
800042f2:	060a                	slli	a2,a2,0x2
800042f4:	4585                	li	a1,1
800042f6:	8522                	mv	a0,s0
800042f8:	01b000ef          	jal	ra,80004b12 <_calloc_r>
800042fc:	c105                	beqz	a0,8000431c <_Balloc+0x90>
800042fe:	c144                	sw	s1,4(a0)
80004300:	01252423          	sw	s2,8(a0)
80004304:	a02d                	j	8000432e <_Balloc+0xa2>
80004306:	02100613          	li	a2,33
8000430a:	4591                	li	a1,4
8000430c:	8522                	mv	a0,s0
8000430e:	005000ef          	jal	ra,80004b12 <_calloc_r>
80004312:	505c                	lw	a5,36(s0)
80004314:	00a92623          	sw	a0,12(s2)
80004318:	47dc                	lw	a5,12(a5)
8000431a:	f3e1                	bnez	a5,800042da <_Balloc+0x4e>
8000431c:	4501                	li	a0,0
8000431e:	40b2                	lw	ra,12(sp)
80004320:	4422                	lw	s0,8(sp)
80004322:	4492                	lw	s1,4(sp)
80004324:	4902                	lw	s2,0(sp)
80004326:	0141                	addi	sp,sp,16
80004328:	8082                	ret
8000432a:	4118                	lw	a4,0(a0)
8000432c:	c398                	sw	a4,0(a5)
8000432e:	00052823          	sw	zero,16(a0)
80004332:	00052623          	sw	zero,12(a0)
80004336:	b7e5                	j	8000431e <_Balloc+0x92>

80004338 <_Bfree>:
_Bfree():
80004338:	515c                	lw	a5,36(a0)
8000433a:	1141                	addi	sp,sp,-16
8000433c:	c422                	sw	s0,8(sp)
8000433e:	c226                	sw	s1,4(sp)
80004340:	c606                	sw	ra,12(sp)
80004342:	84aa                	mv	s1,a0
80004344:	842e                	mv	s0,a1
80004346:	eb95                	bnez	a5,8000437a <_Bfree+0x42>
80004348:	4541                	li	a0,16
8000434a:	3b59                	jal	800040e0 <malloc>
8000434c:	d0c8                	sw	a0,36(s1)
8000434e:	ed11                	bnez	a0,8000436a <_Bfree+0x32>
80004350:	00003697          	auipc	a3,0x3
80004354:	11468693          	addi	a3,a3,276 # 80007464 <__clz_tab+0x1a4>
80004358:	4601                	li	a2,0
8000435a:	08a00593          	li	a1,138
8000435e:	00003517          	auipc	a0,0x3
80004362:	1e650513          	addi	a0,a0,486 # 80007544 <__sf_fake_stdout+0x20>
80004366:	5f3000ef          	jal	ra,80005158 <__assert_func>
8000436a:	00052223          	sw	zero,4(a0)
8000436e:	00052423          	sw	zero,8(a0)
80004372:	00052023          	sw	zero,0(a0)
80004376:	00052623          	sw	zero,12(a0)
8000437a:	c811                	beqz	s0,8000438e <_Bfree+0x56>
8000437c:	50d4                	lw	a3,36(s1)
8000437e:	405c                	lw	a5,4(s0)
80004380:	00279713          	slli	a4,a5,0x2
80004384:	46dc                	lw	a5,12(a3)
80004386:	97ba                	add	a5,a5,a4
80004388:	4398                	lw	a4,0(a5)
8000438a:	c018                	sw	a4,0(s0)
8000438c:	c380                	sw	s0,0(a5)
8000438e:	40b2                	lw	ra,12(sp)
80004390:	4422                	lw	s0,8(sp)
80004392:	4492                	lw	s1,4(sp)
80004394:	0141                	addi	sp,sp,16
80004396:	8082                	ret

80004398 <__multadd>:
__multadd():
80004398:	1101                	addi	sp,sp,-32
8000439a:	cc22                	sw	s0,24(sp)
8000439c:	c84a                	sw	s2,16(sp)
8000439e:	c64e                	sw	s3,12(sp)
800043a0:	0105a903          	lw	s2,16(a1)
800043a4:	842e                	mv	s0,a1
800043a6:	89b6                	mv	s3,a3
800043a8:	01458693          	addi	a3,a1,20
800043ac:	65c1                	lui	a1,0x10
800043ae:	ca26                	sw	s1,20(sp)
800043b0:	ce06                	sw	ra,28(sp)
800043b2:	84aa                	mv	s1,a0
800043b4:	c452                	sw	s4,8(sp)
800043b6:	4501                	li	a0,0
800043b8:	15fd                	addi	a1,a1,-1
800043ba:	429c                	lw	a5,0(a3)
800043bc:	0691                	addi	a3,a3,4
800043be:	0505                	addi	a0,a0,1
800043c0:	00b7f733          	and	a4,a5,a1
800043c4:	02c70733          	mul	a4,a4,a2
800043c8:	83c1                	srli	a5,a5,0x10
800043ca:	02c787b3          	mul	a5,a5,a2
800043ce:	974e                	add	a4,a4,s3
800043d0:	01075813          	srli	a6,a4,0x10
800043d4:	8f6d                	and	a4,a4,a1
800043d6:	97c2                	add	a5,a5,a6
800043d8:	0107d993          	srli	s3,a5,0x10
800043dc:	07c2                	slli	a5,a5,0x10
800043de:	97ba                	add	a5,a5,a4
800043e0:	fef6ae23          	sw	a5,-4(a3)
800043e4:	fd254be3          	blt	a0,s2,800043ba <__multadd+0x22>
800043e8:	04098d63          	beqz	s3,80004442 <__multadd+0xaa>
800043ec:	441c                	lw	a5,8(s0)
800043ee:	04f94163          	blt	s2,a5,80004430 <__multadd+0x98>
800043f2:	404c                	lw	a1,4(s0)
800043f4:	8526                	mv	a0,s1
800043f6:	0585                	addi	a1,a1,1
800043f8:	3d51                	jal	8000428c <_Balloc>
800043fa:	8a2a                	mv	s4,a0
800043fc:	ed11                	bnez	a0,80004418 <__multadd+0x80>
800043fe:	00003697          	auipc	a3,0x3
80004402:	0d268693          	addi	a3,a3,210 # 800074d0 <__clz_tab+0x210>
80004406:	4601                	li	a2,0
80004408:	0b500593          	li	a1,181
8000440c:	00003517          	auipc	a0,0x3
80004410:	13850513          	addi	a0,a0,312 # 80007544 <__sf_fake_stdout+0x20>
80004414:	545000ef          	jal	ra,80005158 <__assert_func>
80004418:	4810                	lw	a2,16(s0)
8000441a:	00c40593          	addi	a1,s0,12
8000441e:	0531                	addi	a0,a0,12
80004420:	0609                	addi	a2,a2,2
80004422:	060a                	slli	a2,a2,0x2
80004424:	ce5ff0ef          	jal	ra,80004108 <memcpy>
80004428:	85a2                	mv	a1,s0
8000442a:	8526                	mv	a0,s1
8000442c:	3731                	jal	80004338 <_Bfree>
8000442e:	8452                	mv	s0,s4
80004430:	00490793          	addi	a5,s2,4
80004434:	078a                	slli	a5,a5,0x2
80004436:	97a2                	add	a5,a5,s0
80004438:	0137a223          	sw	s3,4(a5)
8000443c:	0905                	addi	s2,s2,1
8000443e:	01242823          	sw	s2,16(s0)
80004442:	40f2                	lw	ra,28(sp)
80004444:	8522                	mv	a0,s0
80004446:	4462                	lw	s0,24(sp)
80004448:	44d2                	lw	s1,20(sp)
8000444a:	4942                	lw	s2,16(sp)
8000444c:	49b2                	lw	s3,12(sp)
8000444e:	4a22                	lw	s4,8(sp)
80004450:	6105                	addi	sp,sp,32
80004452:	8082                	ret

80004454 <__hi0bits>:
__hi0bits():
80004454:	7741                	lui	a4,0xffff0
80004456:	8f69                	and	a4,a4,a0
80004458:	87aa                	mv	a5,a0
8000445a:	4501                	li	a0,0
8000445c:	e319                	bnez	a4,80004462 <__hi0bits+0xe>
8000445e:	07c2                	slli	a5,a5,0x10
80004460:	4541                	li	a0,16
80004462:	ff000737          	lui	a4,0xff000
80004466:	8f7d                	and	a4,a4,a5
80004468:	e319                	bnez	a4,8000446e <__hi0bits+0x1a>
8000446a:	0521                	addi	a0,a0,8
8000446c:	07a2                	slli	a5,a5,0x8
8000446e:	f0000737          	lui	a4,0xf0000
80004472:	8f7d                	and	a4,a4,a5
80004474:	e319                	bnez	a4,8000447a <__hi0bits+0x26>
80004476:	0511                	addi	a0,a0,4
80004478:	0792                	slli	a5,a5,0x4
8000447a:	c0000737          	lui	a4,0xc0000
8000447e:	8f7d                	and	a4,a4,a5
80004480:	e319                	bnez	a4,80004486 <__hi0bits+0x32>
80004482:	0509                	addi	a0,a0,2
80004484:	078a                	slli	a5,a5,0x2
80004486:	0007c963          	bltz	a5,80004498 <__hi0bits+0x44>
8000448a:	40000737          	lui	a4,0x40000
8000448e:	8ff9                	and	a5,a5,a4
80004490:	0505                	addi	a0,a0,1
80004492:	e399                	bnez	a5,80004498 <__hi0bits+0x44>
80004494:	02000513          	li	a0,32
80004498:	8082                	ret

8000449a <__lo0bits>:
__lo0bits():
8000449a:	411c                	lw	a5,0(a0)
8000449c:	872a                	mv	a4,a0
8000449e:	0077f693          	andi	a3,a5,7
800044a2:	c285                	beqz	a3,800044c2 <__lo0bits+0x28>
800044a4:	0017f693          	andi	a3,a5,1
800044a8:	4501                	li	a0,0
800044aa:	eea1                	bnez	a3,80004502 <__lo0bits+0x68>
800044ac:	0027f693          	andi	a3,a5,2
800044b0:	c689                	beqz	a3,800044ba <__lo0bits+0x20>
800044b2:	8385                	srli	a5,a5,0x1
800044b4:	c31c                	sw	a5,0(a4)
800044b6:	4505                	li	a0,1
800044b8:	8082                	ret
800044ba:	8389                	srli	a5,a5,0x2
800044bc:	c31c                	sw	a5,0(a4)
800044be:	4509                	li	a0,2
800044c0:	8082                	ret
800044c2:	01079693          	slli	a3,a5,0x10
800044c6:	82c1                	srli	a3,a3,0x10
800044c8:	4501                	li	a0,0
800044ca:	e299                	bnez	a3,800044d0 <__lo0bits+0x36>
800044cc:	83c1                	srli	a5,a5,0x10
800044ce:	4541                	li	a0,16
800044d0:	0ff7f693          	zext.b	a3,a5
800044d4:	e299                	bnez	a3,800044da <__lo0bits+0x40>
800044d6:	0521                	addi	a0,a0,8
800044d8:	83a1                	srli	a5,a5,0x8
800044da:	00f7f693          	andi	a3,a5,15
800044de:	e299                	bnez	a3,800044e4 <__lo0bits+0x4a>
800044e0:	0511                	addi	a0,a0,4
800044e2:	8391                	srli	a5,a5,0x4
800044e4:	0037f693          	andi	a3,a5,3
800044e8:	e299                	bnez	a3,800044ee <__lo0bits+0x54>
800044ea:	0509                	addi	a0,a0,2
800044ec:	8389                	srli	a5,a5,0x2
800044ee:	0017f693          	andi	a3,a5,1
800044f2:	e681                	bnez	a3,800044fa <__lo0bits+0x60>
800044f4:	8385                	srli	a5,a5,0x1
800044f6:	0505                	addi	a0,a0,1
800044f8:	c399                	beqz	a5,800044fe <__lo0bits+0x64>
800044fa:	c31c                	sw	a5,0(a4)
800044fc:	8082                	ret
800044fe:	02000513          	li	a0,32
80004502:	8082                	ret

80004504 <__i2b>:
__i2b():
80004504:	1141                	addi	sp,sp,-16
80004506:	c422                	sw	s0,8(sp)
80004508:	842e                	mv	s0,a1
8000450a:	4585                	li	a1,1
8000450c:	c606                	sw	ra,12(sp)
8000450e:	3bbd                	jal	8000428c <_Balloc>
80004510:	ed11                	bnez	a0,8000452c <__i2b+0x28>
80004512:	00003697          	auipc	a3,0x3
80004516:	fbe68693          	addi	a3,a3,-66 # 800074d0 <__clz_tab+0x210>
8000451a:	4601                	li	a2,0
8000451c:	14000593          	li	a1,320
80004520:	00003517          	auipc	a0,0x3
80004524:	02450513          	addi	a0,a0,36 # 80007544 <__sf_fake_stdout+0x20>
80004528:	431000ef          	jal	ra,80005158 <__assert_func>
8000452c:	40b2                	lw	ra,12(sp)
8000452e:	c940                	sw	s0,20(a0)
80004530:	4422                	lw	s0,8(sp)
80004532:	4705                	li	a4,1
80004534:	c918                	sw	a4,16(a0)
80004536:	0141                	addi	sp,sp,16
80004538:	8082                	ret

8000453a <__multiply>:
__multiply():
8000453a:	4998                	lw	a4,16(a1)
8000453c:	4a1c                	lw	a5,16(a2)
8000453e:	1101                	addi	sp,sp,-32
80004540:	cc22                	sw	s0,24(sp)
80004542:	c84a                	sw	s2,16(sp)
80004544:	ce06                	sw	ra,28(sp)
80004546:	ca26                	sw	s1,20(sp)
80004548:	c64e                	sw	s3,12(sp)
8000454a:	c452                	sw	s4,8(sp)
8000454c:	842e                	mv	s0,a1
8000454e:	8932                	mv	s2,a2
80004550:	00f75463          	bge	a4,a5,80004558 <__multiply+0x1e>
80004554:	8432                	mv	s0,a2
80004556:	892e                	mv	s2,a1
80004558:	01042a03          	lw	s4,16(s0)
8000455c:	01092983          	lw	s3,16(s2)
80004560:	441c                	lw	a5,8(s0)
80004562:	404c                	lw	a1,4(s0)
80004564:	013a04b3          	add	s1,s4,s3
80004568:	0097d363          	bge	a5,s1,8000456e <__multiply+0x34>
8000456c:	0585                	addi	a1,a1,1
8000456e:	d1fff0ef          	jal	ra,8000428c <_Balloc>
80004572:	ed11                	bnez	a0,8000458e <__multiply+0x54>
80004574:	00003697          	auipc	a3,0x3
80004578:	f5c68693          	addi	a3,a3,-164 # 800074d0 <__clz_tab+0x210>
8000457c:	4601                	li	a2,0
8000457e:	15d00593          	li	a1,349
80004582:	00003517          	auipc	a0,0x3
80004586:	fc250513          	addi	a0,a0,-62 # 80007544 <__sf_fake_stdout+0x20>
8000458a:	3cf000ef          	jal	ra,80005158 <__assert_func>
8000458e:	01450693          	addi	a3,a0,20
80004592:	00249813          	slli	a6,s1,0x2
80004596:	9836                	add	a6,a6,a3
80004598:	87b6                	mv	a5,a3
8000459a:	0507ea63          	bltu	a5,a6,800045ee <__multiply+0xb4>
8000459e:	01440313          	addi	t1,s0,20
800045a2:	002a1593          	slli	a1,s4,0x2
800045a6:	01490613          	addi	a2,s2,20
800045aa:	00299893          	slli	a7,s3,0x2
800045ae:	959a                	add	a1,a1,t1
800045b0:	01540793          	addi	a5,s0,21
800045b4:	98b2                	add	a7,a7,a2
800045b6:	4e11                	li	t3,4
800045b8:	00f5e863          	bltu	a1,a5,800045c8 <__multiply+0x8e>
800045bc:	40858433          	sub	s0,a1,s0
800045c0:	142d                	addi	s0,s0,-21
800045c2:	9871                	andi	s0,s0,-4
800045c4:	00440e13          	addi	t3,s0,4
800045c8:	6ec1                	lui	t4,0x10
800045ca:	1efd                	addi	t4,t4,-1
800045cc:	03166563          	bltu	a2,a7,800045f6 <__multiply+0xbc>
800045d0:	00905663          	blez	s1,800045dc <__multiply+0xa2>
800045d4:	ffc82783          	lw	a5,-4(a6)
800045d8:	1871                	addi	a6,a6,-4
800045da:	cff1                	beqz	a5,800046b6 <__multiply+0x17c>
800045dc:	40f2                	lw	ra,28(sp)
800045de:	4462                	lw	s0,24(sp)
800045e0:	c904                	sw	s1,16(a0)
800045e2:	4942                	lw	s2,16(sp)
800045e4:	44d2                	lw	s1,20(sp)
800045e6:	49b2                	lw	s3,12(sp)
800045e8:	4a22                	lw	s4,8(sp)
800045ea:	6105                	addi	sp,sp,32
800045ec:	8082                	ret
800045ee:	0007a023          	sw	zero,0(a5)
800045f2:	0791                	addi	a5,a5,4
800045f4:	b75d                	j	8000459a <__multiply+0x60>
800045f6:	00062f83          	lw	t6,0(a2)
800045fa:	01dfffb3          	and	t6,t6,t4
800045fe:	040f8b63          	beqz	t6,80004654 <__multiply+0x11a>
80004602:	83b6                	mv	t2,a3
80004604:	829a                	mv	t0,t1
80004606:	4901                	li	s2,0
80004608:	0002a703          	lw	a4,0(t0) # 80004272 <memset+0x8e>
8000460c:	0003a403          	lw	s0,0(t2)
80004610:	0391                	addi	t2,t2,4
80004612:	01d77f33          	and	t5,a4,t4
80004616:	03ff0f33          	mul	t5,t5,t6
8000461a:	01d477b3          	and	a5,s0,t4
8000461e:	8041                	srli	s0,s0,0x10
80004620:	0291                	addi	t0,t0,4
80004622:	9f3e                	add	t5,t5,a5
80004624:	01075793          	srli	a5,a4,0x10
80004628:	03f787b3          	mul	a5,a5,t6
8000462c:	9f4a                	add	t5,t5,s2
8000462e:	010f5713          	srli	a4,t5,0x10
80004632:	01df7f33          	and	t5,t5,t4
80004636:	97a2                	add	a5,a5,s0
80004638:	97ba                	add	a5,a5,a4
8000463a:	0107d913          	srli	s2,a5,0x10
8000463e:	07c2                	slli	a5,a5,0x10
80004640:	01e7e7b3          	or	a5,a5,t5
80004644:	fef3ae23          	sw	a5,-4(t2)
80004648:	fcb2e0e3          	bltu	t0,a1,80004608 <__multiply+0xce>
8000464c:	01c687b3          	add	a5,a3,t3
80004650:	0127a023          	sw	s2,0(a5)
80004654:	00265383          	lhu	t2,2(a2)
80004658:	04038c63          	beqz	t2,800046b0 <__multiply+0x176>
8000465c:	429c                	lw	a5,0(a3)
8000465e:	8fb6                	mv	t6,a3
80004660:	8f1a                	mv	t5,t1
80004662:	4281                	li	t0,0
80004664:	000f2703          	lw	a4,0(t5)
80004668:	002fd403          	lhu	s0,2(t6)
8000466c:	01d7f7b3          	and	a5,a5,t4
80004670:	01d77733          	and	a4,a4,t4
80004674:	02770733          	mul	a4,a4,t2
80004678:	0f91                	addi	t6,t6,4
8000467a:	0f11                	addi	t5,t5,4
8000467c:	9722                	add	a4,a4,s0
8000467e:	9716                	add	a4,a4,t0
80004680:	01071293          	slli	t0,a4,0x10
80004684:	00f2e7b3          	or	a5,t0,a5
80004688:	feffae23          	sw	a5,-4(t6)
8000468c:	ffef5783          	lhu	a5,-2(t5)
80004690:	000fa283          	lw	t0,0(t6)
80004694:	8341                	srli	a4,a4,0x10
80004696:	027787b3          	mul	a5,a5,t2
8000469a:	01d2f2b3          	and	t0,t0,t4
8000469e:	9796                	add	a5,a5,t0
800046a0:	97ba                	add	a5,a5,a4
800046a2:	0107d293          	srli	t0,a5,0x10
800046a6:	fabf6fe3          	bltu	t5,a1,80004664 <__multiply+0x12a>
800046aa:	01c68733          	add	a4,a3,t3
800046ae:	c31c                	sw	a5,0(a4)
800046b0:	0611                	addi	a2,a2,4
800046b2:	0691                	addi	a3,a3,4
800046b4:	bf21                	j	800045cc <__multiply+0x92>
800046b6:	14fd                	addi	s1,s1,-1
800046b8:	bf21                	j	800045d0 <__multiply+0x96>

800046ba <__pow5mult>:
__pow5mult():
800046ba:	1101                	addi	sp,sp,-32
800046bc:	ca26                	sw	s1,20(sp)
800046be:	c84a                	sw	s2,16(sp)
800046c0:	c64e                	sw	s3,12(sp)
800046c2:	ce06                	sw	ra,28(sp)
800046c4:	cc22                	sw	s0,24(sp)
800046c6:	c452                	sw	s4,8(sp)
800046c8:	00367793          	andi	a5,a2,3
800046cc:	892a                	mv	s2,a0
800046ce:	84b2                	mv	s1,a2
800046d0:	89ae                	mv	s3,a1
800046d2:	cf89                	beqz	a5,800046ec <__pow5mult+0x32>
800046d4:	17fd                	addi	a5,a5,-1
800046d6:	00003717          	auipc	a4,0x3
800046da:	fb270713          	addi	a4,a4,-78 # 80007688 <p05.0>
800046de:	078a                	slli	a5,a5,0x2
800046e0:	97ba                	add	a5,a5,a4
800046e2:	4390                	lw	a2,0(a5)
800046e4:	4681                	li	a3,0
800046e6:	cb3ff0ef          	jal	ra,80004398 <__multadd>
800046ea:	89aa                	mv	s3,a0
800046ec:	8489                	srai	s1,s1,0x2
800046ee:	c4d9                	beqz	s1,8000477c <__pow5mult+0xc2>
800046f0:	02492783          	lw	a5,36(s2)
800046f4:	ef85                	bnez	a5,8000472c <__pow5mult+0x72>
800046f6:	4541                	li	a0,16
800046f8:	9e9ff0ef          	jal	ra,800040e0 <malloc>
800046fc:	02a92223          	sw	a0,36(s2)
80004700:	ed11                	bnez	a0,8000471c <__pow5mult+0x62>
80004702:	00003697          	auipc	a3,0x3
80004706:	d6268693          	addi	a3,a3,-670 # 80007464 <__clz_tab+0x1a4>
8000470a:	4601                	li	a2,0
8000470c:	1ae00593          	li	a1,430
80004710:	00003517          	auipc	a0,0x3
80004714:	e3450513          	addi	a0,a0,-460 # 80007544 <__sf_fake_stdout+0x20>
80004718:	241000ef          	jal	ra,80005158 <__assert_func>
8000471c:	00052223          	sw	zero,4(a0)
80004720:	00052423          	sw	zero,8(a0)
80004724:	00052023          	sw	zero,0(a0)
80004728:	00052623          	sw	zero,12(a0)
8000472c:	02492a03          	lw	s4,36(s2)
80004730:	008a2403          	lw	s0,8(s4)
80004734:	e811                	bnez	s0,80004748 <__pow5mult+0x8e>
80004736:	27100593          	li	a1,625
8000473a:	854a                	mv	a0,s2
8000473c:	33e1                	jal	80004504 <__i2b>
8000473e:	00aa2423          	sw	a0,8(s4)
80004742:	842a                	mv	s0,a0
80004744:	00052023          	sw	zero,0(a0)
80004748:	0014f793          	andi	a5,s1,1
8000474c:	cb99                	beqz	a5,80004762 <__pow5mult+0xa8>
8000474e:	85ce                	mv	a1,s3
80004750:	8622                	mv	a2,s0
80004752:	854a                	mv	a0,s2
80004754:	33dd                	jal	8000453a <__multiply>
80004756:	8a2a                	mv	s4,a0
80004758:	85ce                	mv	a1,s3
8000475a:	854a                	mv	a0,s2
8000475c:	bddff0ef          	jal	ra,80004338 <_Bfree>
80004760:	89d2                	mv	s3,s4
80004762:	8485                	srai	s1,s1,0x1
80004764:	cc81                	beqz	s1,8000477c <__pow5mult+0xc2>
80004766:	4008                	lw	a0,0(s0)
80004768:	e901                	bnez	a0,80004778 <__pow5mult+0xbe>
8000476a:	8622                	mv	a2,s0
8000476c:	85a2                	mv	a1,s0
8000476e:	854a                	mv	a0,s2
80004770:	33e9                	jal	8000453a <__multiply>
80004772:	c008                	sw	a0,0(s0)
80004774:	00052023          	sw	zero,0(a0)
80004778:	842a                	mv	s0,a0
8000477a:	b7f9                	j	80004748 <__pow5mult+0x8e>
8000477c:	40f2                	lw	ra,28(sp)
8000477e:	4462                	lw	s0,24(sp)
80004780:	44d2                	lw	s1,20(sp)
80004782:	4942                	lw	s2,16(sp)
80004784:	4a22                	lw	s4,8(sp)
80004786:	854e                	mv	a0,s3
80004788:	49b2                	lw	s3,12(sp)
8000478a:	6105                	addi	sp,sp,32
8000478c:	8082                	ret

8000478e <__lshift>:
__lshift():
8000478e:	1101                	addi	sp,sp,-32
80004790:	cc22                	sw	s0,24(sp)
80004792:	842e                	mv	s0,a1
80004794:	c05a                	sw	s6,0(sp)
80004796:	01042b03          	lw	s6,16(s0)
8000479a:	ca26                	sw	s1,20(sp)
8000479c:	41cc                	lw	a1,4(a1)
8000479e:	40565493          	srai	s1,a2,0x5
800047a2:	441c                	lw	a5,8(s0)
800047a4:	9b26                	add	s6,s6,s1
800047a6:	c84a                	sw	s2,16(sp)
800047a8:	c452                	sw	s4,8(sp)
800047aa:	c256                	sw	s5,4(sp)
800047ac:	ce06                	sw	ra,28(sp)
800047ae:	c64e                	sw	s3,12(sp)
800047b0:	8aaa                	mv	s5,a0
800047b2:	8932                	mv	s2,a2
800047b4:	001b0a13          	addi	s4,s6,1
800047b8:	0347c463          	blt	a5,s4,800047e0 <__lshift+0x52>
800047bc:	8556                	mv	a0,s5
800047be:	acfff0ef          	jal	ra,8000428c <_Balloc>
800047c2:	89aa                	mv	s3,a0
800047c4:	e10d                	bnez	a0,800047e6 <__lshift+0x58>
800047c6:	00003697          	auipc	a3,0x3
800047ca:	d0a68693          	addi	a3,a3,-758 # 800074d0 <__clz_tab+0x210>
800047ce:	4601                	li	a2,0
800047d0:	1d900593          	li	a1,473
800047d4:	00003517          	auipc	a0,0x3
800047d8:	d7050513          	addi	a0,a0,-656 # 80007544 <__sf_fake_stdout+0x20>
800047dc:	17d000ef          	jal	ra,80005158 <__assert_func>
800047e0:	0585                	addi	a1,a1,1
800047e2:	0786                	slli	a5,a5,0x1
800047e4:	bfd1                	j	800047b8 <__lshift+0x2a>
800047e6:	01450793          	addi	a5,a0,20
800047ea:	86be                	mv	a3,a5
800047ec:	4701                	li	a4,0
800047ee:	0691                	addi	a3,a3,4
800047f0:	08974563          	blt	a4,s1,8000487a <__lshift+0xec>
800047f4:	0004d363          	bgez	s1,800047fa <__lshift+0x6c>
800047f8:	4481                	li	s1,0
800047fa:	048a                	slli	s1,s1,0x2
800047fc:	009786b3          	add	a3,a5,s1
80004800:	481c                	lw	a5,16(s0)
80004802:	01440713          	addi	a4,s0,20
80004806:	01f97613          	andi	a2,s2,31
8000480a:	078a                	slli	a5,a5,0x2
8000480c:	97ba                	add	a5,a5,a4
8000480e:	ca35                	beqz	a2,80004882 <__lshift+0xf4>
80004810:	02000813          	li	a6,32
80004814:	40c80833          	sub	a6,a6,a2
80004818:	88b6                	mv	a7,a3
8000481a:	4581                	li	a1,0
8000481c:	4308                	lw	a0,0(a4)
8000481e:	0891                	addi	a7,a7,4
80004820:	0711                	addi	a4,a4,4
80004822:	00c51533          	sll	a0,a0,a2
80004826:	8dc9                	or	a1,a1,a0
80004828:	feb8ae23          	sw	a1,-4(a7) # fcbffffc <_sp+0x6cbefffc>
8000482c:	ffc72583          	lw	a1,-4(a4)
80004830:	0105d5b3          	srl	a1,a1,a6
80004834:	fef764e3          	bltu	a4,a5,8000481c <__lshift+0x8e>
80004838:	01540713          	addi	a4,s0,21
8000483c:	4611                	li	a2,4
8000483e:	00e7e763          	bltu	a5,a4,8000484c <__lshift+0xbe>
80004842:	8f81                	sub	a5,a5,s0
80004844:	17ad                	addi	a5,a5,-21
80004846:	9bf1                	andi	a5,a5,-4
80004848:	00478613          	addi	a2,a5,4
8000484c:	96b2                	add	a3,a3,a2
8000484e:	c28c                	sw	a1,0(a3)
80004850:	c199                	beqz	a1,80004856 <__lshift+0xc8>
80004852:	002b0a13          	addi	s4,s6,2
80004856:	1a7d                	addi	s4,s4,-1
80004858:	0149a823          	sw	s4,16(s3)
8000485c:	8556                	mv	a0,s5
8000485e:	85a2                	mv	a1,s0
80004860:	ad9ff0ef          	jal	ra,80004338 <_Bfree>
80004864:	40f2                	lw	ra,28(sp)
80004866:	4462                	lw	s0,24(sp)
80004868:	44d2                	lw	s1,20(sp)
8000486a:	4942                	lw	s2,16(sp)
8000486c:	4a22                	lw	s4,8(sp)
8000486e:	4a92                	lw	s5,4(sp)
80004870:	4b02                	lw	s6,0(sp)
80004872:	854e                	mv	a0,s3
80004874:	49b2                	lw	s3,12(sp)
80004876:	6105                	addi	sp,sp,32
80004878:	8082                	ret
8000487a:	fe06ae23          	sw	zero,-4(a3)
8000487e:	0705                	addi	a4,a4,1
80004880:	b7bd                	j	800047ee <__lshift+0x60>
80004882:	4310                	lw	a2,0(a4)
80004884:	0711                	addi	a4,a4,4
80004886:	0691                	addi	a3,a3,4
80004888:	fec6ae23          	sw	a2,-4(a3)
8000488c:	fef76be3          	bltu	a4,a5,80004882 <__lshift+0xf4>
80004890:	b7d9                	j	80004856 <__lshift+0xc8>

80004892 <__mcmp>:
__mcmp():
80004892:	4914                	lw	a3,16(a0)
80004894:	4998                	lw	a4,16(a1)
80004896:	87aa                	mv	a5,a0
80004898:	40e68533          	sub	a0,a3,a4
8000489c:	02e69563          	bne	a3,a4,800048c6 <__mcmp+0x34>
800048a0:	070a                	slli	a4,a4,0x2
800048a2:	07d1                	addi	a5,a5,20
800048a4:	05d1                	addi	a1,a1,20
800048a6:	00e786b3          	add	a3,a5,a4
800048aa:	95ba                	add	a1,a1,a4
800048ac:	16f1                	addi	a3,a3,-4
800048ae:	15f1                	addi	a1,a1,-4
800048b0:	4290                	lw	a2,0(a3)
800048b2:	4198                	lw	a4,0(a1)
800048b4:	00e60763          	beq	a2,a4,800048c2 <__mcmp+0x30>
800048b8:	557d                	li	a0,-1
800048ba:	00e66663          	bltu	a2,a4,800048c6 <__mcmp+0x34>
800048be:	4505                	li	a0,1
800048c0:	8082                	ret
800048c2:	fed7e5e3          	bltu	a5,a3,800048ac <__mcmp+0x1a>
800048c6:	8082                	ret

800048c8 <__mdiff>:
__mdiff():
800048c8:	1101                	addi	sp,sp,-32
800048ca:	cc22                	sw	s0,24(sp)
800048cc:	842e                	mv	s0,a1
800048ce:	c84a                	sw	s2,16(sp)
800048d0:	85b2                	mv	a1,a2
800048d2:	892a                	mv	s2,a0
800048d4:	8522                	mv	a0,s0
800048d6:	ca26                	sw	s1,20(sp)
800048d8:	ce06                	sw	ra,28(sp)
800048da:	c64e                	sw	s3,12(sp)
800048dc:	84b2                	mv	s1,a2
800048de:	3f55                	jal	80004892 <__mcmp>
800048e0:	ed15                	bnez	a0,8000491c <__mdiff+0x54>
800048e2:	4581                	li	a1,0
800048e4:	854a                	mv	a0,s2
800048e6:	9a7ff0ef          	jal	ra,8000428c <_Balloc>
800048ea:	ed11                	bnez	a0,80004906 <__mdiff+0x3e>
800048ec:	00003697          	auipc	a3,0x3
800048f0:	be468693          	addi	a3,a3,-1052 # 800074d0 <__clz_tab+0x210>
800048f4:	4601                	li	a2,0
800048f6:	23200593          	li	a1,562
800048fa:	00003517          	auipc	a0,0x3
800048fe:	c4a50513          	addi	a0,a0,-950 # 80007544 <__sf_fake_stdout+0x20>
80004902:	057000ef          	jal	ra,80005158 <__assert_func>
80004906:	4785                	li	a5,1
80004908:	c91c                	sw	a5,16(a0)
8000490a:	00052a23          	sw	zero,20(a0)
8000490e:	40f2                	lw	ra,28(sp)
80004910:	4462                	lw	s0,24(sp)
80004912:	44d2                	lw	s1,20(sp)
80004914:	4942                	lw	s2,16(sp)
80004916:	49b2                	lw	s3,12(sp)
80004918:	6105                	addi	sp,sp,32
8000491a:	8082                	ret
8000491c:	4985                	li	s3,1
8000491e:	00054663          	bltz	a0,8000492a <__mdiff+0x62>
80004922:	87a6                	mv	a5,s1
80004924:	4981                	li	s3,0
80004926:	84a2                	mv	s1,s0
80004928:	843e                	mv	s0,a5
8000492a:	40cc                	lw	a1,4(s1)
8000492c:	854a                	mv	a0,s2
8000492e:	95fff0ef          	jal	ra,8000428c <_Balloc>
80004932:	e909                	bnez	a0,80004944 <__mdiff+0x7c>
80004934:	00003697          	auipc	a3,0x3
80004938:	b9c68693          	addi	a3,a3,-1124 # 800074d0 <__clz_tab+0x210>
8000493c:	4601                	li	a2,0
8000493e:	24000593          	li	a1,576
80004942:	bf65                	j	800048fa <__mdiff+0x32>
80004944:	0104a803          	lw	a6,16(s1)
80004948:	4818                	lw	a4,16(s0)
8000494a:	01448893          	addi	a7,s1,20
8000494e:	00281693          	slli	a3,a6,0x2
80004952:	01440793          	addi	a5,s0,20
80004956:	070a                	slli	a4,a4,0x2
80004958:	6ec1                	lui	t4,0x10
8000495a:	01352623          	sw	s3,12(a0)
8000495e:	96c6                	add	a3,a3,a7
80004960:	97ba                	add	a5,a5,a4
80004962:	01450613          	addi	a2,a0,20
80004966:	4e51                	li	t3,20
80004968:	4301                	li	t1,0
8000496a:	1efd                	addi	t4,t4,-1
8000496c:	01c48733          	add	a4,s1,t3
80004970:	4318                	lw	a4,0(a4)
80004972:	01c405b3          	add	a1,s0,t3
80004976:	0005af03          	lw	t5,0(a1) # 10000 <__stack_size+0xf800>
8000497a:	01d775b3          	and	a1,a4,t4
8000497e:	959a                	add	a1,a1,t1
80004980:	01df7333          	and	t1,t5,t4
80004984:	406585b3          	sub	a1,a1,t1
80004988:	010f5f13          	srli	t5,t5,0x10
8000498c:	8341                	srli	a4,a4,0x10
8000498e:	4105d313          	srai	t1,a1,0x10
80004992:	41e70733          	sub	a4,a4,t5
80004996:	971a                	add	a4,a4,t1
80004998:	41075313          	srai	t1,a4,0x10
8000499c:	01d5f5b3          	and	a1,a1,t4
800049a0:	0742                	slli	a4,a4,0x10
800049a2:	01c50f33          	add	t5,a0,t3
800049a6:	8f4d                	or	a4,a4,a1
800049a8:	0e11                	addi	t3,t3,4
800049aa:	00ef2023          	sw	a4,0(t5)
800049ae:	008e0733          	add	a4,t3,s0
800049b2:	faf76de3          	bltu	a4,a5,8000496c <__mdiff+0xa4>
800049b6:	01540593          	addi	a1,s0,21
800049ba:	4711                	li	a4,4
800049bc:	00b7e763          	bltu	a5,a1,800049ca <__mdiff+0x102>
800049c0:	8f81                	sub	a5,a5,s0
800049c2:	17ad                	addi	a5,a5,-21
800049c4:	9bf1                	andi	a5,a5,-4
800049c6:	00478713          	addi	a4,a5,4
800049ca:	98ba                	add	a7,a7,a4
800049cc:	6e41                	lui	t3,0x10
800049ce:	9732                	add	a4,a4,a2
800049d0:	8eba                	mv	t4,a4
800049d2:	85c6                	mv	a1,a7
800049d4:	1e7d                	addi	t3,t3,-1
800049d6:	02d5e263          	bltu	a1,a3,800049fa <__mdiff+0x132>
800049da:	ffd88613          	addi	a2,a7,-3
800049de:	4781                	li	a5,0
800049e0:	00c6e663          	bltu	a3,a2,800049ec <__mdiff+0x124>
800049e4:	068d                	addi	a3,a3,3
800049e6:	411687b3          	sub	a5,a3,a7
800049ea:	9bf1                	andi	a5,a5,-4
800049ec:	97ba                	add	a5,a5,a4
800049ee:	17f1                	addi	a5,a5,-4
800049f0:	4398                	lw	a4,0(a5)
800049f2:	c71d                	beqz	a4,80004a20 <__mdiff+0x158>
800049f4:	01052823          	sw	a6,16(a0)
800049f8:	bf19                	j	8000490e <__mdiff+0x46>
800049fa:	419c                	lw	a5,0(a1)
800049fc:	0e91                	addi	t4,t4,4
800049fe:	0591                	addi	a1,a1,4
80004a00:	01c7f633          	and	a2,a5,t3
80004a04:	961a                	add	a2,a2,t1
80004a06:	41065313          	srai	t1,a2,0x10
80004a0a:	83c1                	srli	a5,a5,0x10
80004a0c:	979a                	add	a5,a5,t1
80004a0e:	4107d313          	srai	t1,a5,0x10
80004a12:	01c67633          	and	a2,a2,t3
80004a16:	07c2                	slli	a5,a5,0x10
80004a18:	8fd1                	or	a5,a5,a2
80004a1a:	fefeae23          	sw	a5,-4(t4) # fffc <__stack_size+0xf7fc>
80004a1e:	bf65                	j	800049d6 <__mdiff+0x10e>
80004a20:	187d                	addi	a6,a6,-1
80004a22:	b7f1                	j	800049ee <__mdiff+0x126>

80004a24 <__d2b>:
__d2b():
80004a24:	7179                	addi	sp,sp,-48
80004a26:	d226                	sw	s1,36(sp)
80004a28:	84ae                	mv	s1,a1
80004a2a:	4585                	li	a1,1
80004a2c:	d422                	sw	s0,40(sp)
80004a2e:	d04a                	sw	s2,32(sp)
80004a30:	ce4e                	sw	s3,28(sp)
80004a32:	d606                	sw	ra,44(sp)
80004a34:	cc52                	sw	s4,24(sp)
80004a36:	8432                	mv	s0,a2
80004a38:	89b6                	mv	s3,a3
80004a3a:	893a                	mv	s2,a4
80004a3c:	851ff0ef          	jal	ra,8000428c <_Balloc>
80004a40:	ed09                	bnez	a0,80004a5a <__d2b+0x36>
80004a42:	00003697          	auipc	a3,0x3
80004a46:	a8e68693          	addi	a3,a3,-1394 # 800074d0 <__clz_tab+0x210>
80004a4a:	4601                	li	a2,0
80004a4c:	30a00593          	li	a1,778
80004a50:	00003517          	auipc	a0,0x3
80004a54:	af450513          	addi	a0,a0,-1292 # 80007544 <__sf_fake_stdout+0x20>
80004a58:	2701                	jal	80005158 <__assert_func>
80004a5a:	00100737          	lui	a4,0x100
80004a5e:	fff70793          	addi	a5,a4,-1 # fffff <__stack_size+0xff7ff>
80004a62:	8fe1                	and	a5,a5,s0
80004a64:	8051                	srli	s0,s0,0x14
80004a66:	7ff47413          	andi	s0,s0,2047
80004a6a:	8a2a                	mv	s4,a0
80004a6c:	e035                	bnez	s0,80004ad0 <__d2b+0xac>
80004a6e:	c63e                	sw	a5,12(sp)
80004a70:	c4ad                	beqz	s1,80004ada <__d2b+0xb6>
80004a72:	0028                	addi	a0,sp,8
80004a74:	c426                	sw	s1,8(sp)
80004a76:	a25ff0ef          	jal	ra,8000449a <__lo0bits>
80004a7a:	46a2                	lw	a3,8(sp)
80004a7c:	cd21                	beqz	a0,80004ad4 <__d2b+0xb0>
80004a7e:	4732                	lw	a4,12(sp)
80004a80:	02000793          	li	a5,32
80004a84:	8f89                	sub	a5,a5,a0
80004a86:	00f717b3          	sll	a5,a4,a5
80004a8a:	8fd5                	or	a5,a5,a3
80004a8c:	00a75733          	srl	a4,a4,a0
80004a90:	00fa2a23          	sw	a5,20(s4)
80004a94:	c63a                	sw	a4,12(sp)
80004a96:	44b2                	lw	s1,12(sp)
80004a98:	009a2c23          	sw	s1,24(s4)
80004a9c:	009034b3          	snez	s1,s1
80004aa0:	0485                	addi	s1,s1,1
80004aa2:	009a2823          	sw	s1,16(s4)
80004aa6:	c439                	beqz	s0,80004af4 <__d2b+0xd0>
80004aa8:	bcd40413          	addi	s0,s0,-1075
80004aac:	942a                	add	s0,s0,a0
80004aae:	03500793          	li	a5,53
80004ab2:	0089a023          	sw	s0,0(s3)
80004ab6:	40a78533          	sub	a0,a5,a0
80004aba:	00a92023          	sw	a0,0(s2)
80004abe:	50b2                	lw	ra,44(sp)
80004ac0:	5422                	lw	s0,40(sp)
80004ac2:	5492                	lw	s1,36(sp)
80004ac4:	5902                	lw	s2,32(sp)
80004ac6:	49f2                	lw	s3,28(sp)
80004ac8:	8552                	mv	a0,s4
80004aca:	4a62                	lw	s4,24(sp)
80004acc:	6145                	addi	sp,sp,48
80004ace:	8082                	ret
80004ad0:	8fd9                	or	a5,a5,a4
80004ad2:	bf71                	j	80004a6e <__d2b+0x4a>
80004ad4:	00da2a23          	sw	a3,20(s4)
80004ad8:	bf7d                	j	80004a96 <__d2b+0x72>
80004ada:	0068                	addi	a0,sp,12
80004adc:	9bfff0ef          	jal	ra,8000449a <__lo0bits>
80004ae0:	47b2                	lw	a5,12(sp)
80004ae2:	02050513          	addi	a0,a0,32
80004ae6:	4485                	li	s1,1
80004ae8:	00fa2a23          	sw	a5,20(s4)
80004aec:	4785                	li	a5,1
80004aee:	00fa2823          	sw	a5,16(s4)
80004af2:	bf55                	j	80004aa6 <__d2b+0x82>
80004af4:	bce50793          	addi	a5,a0,-1074
80004af8:	00f9a023          	sw	a5,0(s3)
80004afc:	00249793          	slli	a5,s1,0x2
80004b00:	97d2                	add	a5,a5,s4
80004b02:	4b88                	lw	a0,16(a5)
80004b04:	0496                	slli	s1,s1,0x5
80004b06:	94fff0ef          	jal	ra,80004454 <__hi0bits>
80004b0a:	8c89                	sub	s1,s1,a0
80004b0c:	00992023          	sw	s1,0(s2)
80004b10:	b77d                	j	80004abe <__d2b+0x9a>

80004b12 <_calloc_r>:
_calloc_r():
80004b12:	8732                	mv	a4,a2
80004b14:	02e5b7b3          	mulhu	a5,a1,a4
80004b18:	1101                	addi	sp,sp,-32
80004b1a:	ce06                	sw	ra,28(sp)
80004b1c:	cc22                	sw	s0,24(sp)
80004b1e:	02c58633          	mul	a2,a1,a2
80004b22:	cb89                	beqz	a5,80004b34 <_calloc_r+0x22>
80004b24:	47b1                	li	a5,12
80004b26:	c11c                	sw	a5,0(a0)
80004b28:	4401                	li	s0,0
80004b2a:	40f2                	lw	ra,28(sp)
80004b2c:	8522                	mv	a0,s0
80004b2e:	4462                	lw	s0,24(sp)
80004b30:	6105                	addi	sp,sp,32
80004b32:	8082                	ret
80004b34:	85b2                	mv	a1,a2
80004b36:	c632                	sw	a2,12(sp)
80004b38:	284d                	jal	80004bea <_malloc_r>
80004b3a:	842a                	mv	s0,a0
80004b3c:	d57d                	beqz	a0,80004b2a <_calloc_r+0x18>
80004b3e:	4632                	lw	a2,12(sp)
80004b40:	4581                	li	a1,0
80004b42:	ea2ff0ef          	jal	ra,800041e4 <memset>
80004b46:	b7d5                	j	80004b2a <_calloc_r+0x18>

80004b48 <_free_r>:
_free_r():
80004b48:	c1c5                	beqz	a1,80004be8 <_free_r+0xa0>
80004b4a:	ffc5a783          	lw	a5,-4(a1)
80004b4e:	1101                	addi	sp,sp,-32
80004b50:	cc22                	sw	s0,24(sp)
80004b52:	ce06                	sw	ra,28(sp)
80004b54:	ffc58413          	addi	s0,a1,-4
80004b58:	0007d363          	bgez	a5,80004b5e <_free_r+0x16>
80004b5c:	943e                	add	s0,s0,a5
80004b5e:	c62a                	sw	a0,12(sp)
80004b60:	73c000ef          	jal	ra,8000529c <__malloc_lock>
80004b64:	86c18713          	addi	a4,gp,-1940 # 9000023c <__malloc_free_list>
80004b68:	431c                	lw	a5,0(a4)
80004b6a:	4532                	lw	a0,12(sp)
80004b6c:	eb89                	bnez	a5,80004b7e <_free_r+0x36>
80004b6e:	00042223          	sw	zero,4(s0)
80004b72:	c300                	sw	s0,0(a4)
80004b74:	4462                	lw	s0,24(sp)
80004b76:	40f2                	lw	ra,28(sp)
80004b78:	6105                	addi	sp,sp,32
80004b7a:	7240006f          	j	8000529e <__malloc_unlock>
80004b7e:	00f47d63          	bgeu	s0,a5,80004b98 <_free_r+0x50>
80004b82:	4010                	lw	a2,0(s0)
80004b84:	00c406b3          	add	a3,s0,a2
80004b88:	00d79663          	bne	a5,a3,80004b94 <_free_r+0x4c>
80004b8c:	4394                	lw	a3,0(a5)
80004b8e:	43dc                	lw	a5,4(a5)
80004b90:	96b2                	add	a3,a3,a2
80004b92:	c014                	sw	a3,0(s0)
80004b94:	c05c                	sw	a5,4(s0)
80004b96:	bff1                	j	80004b72 <_free_r+0x2a>
80004b98:	873e                	mv	a4,a5
80004b9a:	43dc                	lw	a5,4(a5)
80004b9c:	c399                	beqz	a5,80004ba2 <_free_r+0x5a>
80004b9e:	fef47de3          	bgeu	s0,a5,80004b98 <_free_r+0x50>
80004ba2:	4314                	lw	a3,0(a4)
80004ba4:	00d70633          	add	a2,a4,a3
80004ba8:	00861f63          	bne	a2,s0,80004bc6 <_free_r+0x7e>
80004bac:	4010                	lw	a2,0(s0)
80004bae:	96b2                	add	a3,a3,a2
80004bb0:	c314                	sw	a3,0(a4)
80004bb2:	00d70633          	add	a2,a4,a3
80004bb6:	fac79fe3          	bne	a5,a2,80004b74 <_free_r+0x2c>
80004bba:	4390                	lw	a2,0(a5)
80004bbc:	43dc                	lw	a5,4(a5)
80004bbe:	96b2                	add	a3,a3,a2
80004bc0:	c314                	sw	a3,0(a4)
80004bc2:	c35c                	sw	a5,4(a4)
80004bc4:	bf45                	j	80004b74 <_free_r+0x2c>
80004bc6:	00c47563          	bgeu	s0,a2,80004bd0 <_free_r+0x88>
80004bca:	47b1                	li	a5,12
80004bcc:	c11c                	sw	a5,0(a0)
80004bce:	b75d                	j	80004b74 <_free_r+0x2c>
80004bd0:	4010                	lw	a2,0(s0)
80004bd2:	00c406b3          	add	a3,s0,a2
80004bd6:	00d79663          	bne	a5,a3,80004be2 <_free_r+0x9a>
80004bda:	4394                	lw	a3,0(a5)
80004bdc:	43dc                	lw	a5,4(a5)
80004bde:	96b2                	add	a3,a3,a2
80004be0:	c014                	sw	a3,0(s0)
80004be2:	c05c                	sw	a5,4(s0)
80004be4:	c340                	sw	s0,4(a4)
80004be6:	b779                	j	80004b74 <_free_r+0x2c>
80004be8:	8082                	ret

80004bea <_malloc_r>:
_malloc_r():
80004bea:	1101                	addi	sp,sp,-32
80004bec:	ca26                	sw	s1,20(sp)
80004bee:	00358493          	addi	s1,a1,3
80004bf2:	98f1                	andi	s1,s1,-4
80004bf4:	c84a                	sw	s2,16(sp)
80004bf6:	ce06                	sw	ra,28(sp)
80004bf8:	cc22                	sw	s0,24(sp)
80004bfa:	c64e                	sw	s3,12(sp)
80004bfc:	04a1                	addi	s1,s1,8
80004bfe:	47b1                	li	a5,12
80004c00:	892a                	mv	s2,a0
80004c02:	04f4f063          	bgeu	s1,a5,80004c42 <_malloc_r+0x58>
80004c06:	44b1                	li	s1,12
80004c08:	02b4ef63          	bltu	s1,a1,80004c46 <_malloc_r+0x5c>
80004c0c:	854a                	mv	a0,s2
80004c0e:	2579                	jal	8000529c <__malloc_lock>
80004c10:	86c18693          	addi	a3,gp,-1940 # 9000023c <__malloc_free_list>
80004c14:	4298                	lw	a4,0(a3)
80004c16:	843a                	mv	s0,a4
80004c18:	e031                	bnez	s0,80004c5c <_malloc_r+0x72>
80004c1a:	87018413          	addi	s0,gp,-1936 # 90000240 <__malloc_sbrk_start>
80004c1e:	401c                	lw	a5,0(s0)
80004c20:	e789                	bnez	a5,80004c2a <_malloc_r+0x40>
80004c22:	4581                	li	a1,0
80004c24:	854a                	mv	a0,s2
80004c26:	2115                	jal	8000504a <_sbrk_r>
80004c28:	c008                	sw	a0,0(s0)
80004c2a:	85a6                	mv	a1,s1
80004c2c:	854a                	mv	a0,s2
80004c2e:	2931                	jal	8000504a <_sbrk_r>
80004c30:	59fd                	li	s3,-1
80004c32:	07351863          	bne	a0,s3,80004ca2 <_malloc_r+0xb8>
80004c36:	47b1                	li	a5,12
80004c38:	00f92023          	sw	a5,0(s2)
80004c3c:	854a                	mv	a0,s2
80004c3e:	2585                	jal	8000529e <__malloc_unlock>
80004c40:	a031                	j	80004c4c <_malloc_r+0x62>
80004c42:	fc04d3e3          	bgez	s1,80004c08 <_malloc_r+0x1e>
80004c46:	47b1                	li	a5,12
80004c48:	00f92023          	sw	a5,0(s2)
80004c4c:	4501                	li	a0,0
80004c4e:	40f2                	lw	ra,28(sp)
80004c50:	4462                	lw	s0,24(sp)
80004c52:	44d2                	lw	s1,20(sp)
80004c54:	4942                	lw	s2,16(sp)
80004c56:	49b2                	lw	s3,12(sp)
80004c58:	6105                	addi	sp,sp,32
80004c5a:	8082                	ret
80004c5c:	401c                	lw	a5,0(s0)
80004c5e:	8f85                	sub	a5,a5,s1
80004c60:	0207ce63          	bltz	a5,80004c9c <_malloc_r+0xb2>
80004c64:	462d                	li	a2,11
80004c66:	00f67663          	bgeu	a2,a5,80004c72 <_malloc_r+0x88>
80004c6a:	c01c                	sw	a5,0(s0)
80004c6c:	943e                	add	s0,s0,a5
80004c6e:	c004                	sw	s1,0(s0)
80004c70:	a029                	j	80004c7a <_malloc_r+0x90>
80004c72:	405c                	lw	a5,4(s0)
80004c74:	02871263          	bne	a4,s0,80004c98 <_malloc_r+0xae>
80004c78:	c29c                	sw	a5,0(a3)
80004c7a:	854a                	mv	a0,s2
80004c7c:	250d                	jal	8000529e <__malloc_unlock>
80004c7e:	00b40513          	addi	a0,s0,11
80004c82:	00440793          	addi	a5,s0,4
80004c86:	9961                	andi	a0,a0,-8
80004c88:	40f50733          	sub	a4,a0,a5
80004c8c:	fcf501e3          	beq	a0,a5,80004c4e <_malloc_r+0x64>
80004c90:	943a                	add	s0,s0,a4
80004c92:	8f89                	sub	a5,a5,a0
80004c94:	c01c                	sw	a5,0(s0)
80004c96:	bf65                	j	80004c4e <_malloc_r+0x64>
80004c98:	c35c                	sw	a5,4(a4)
80004c9a:	b7c5                	j	80004c7a <_malloc_r+0x90>
80004c9c:	8722                	mv	a4,s0
80004c9e:	4040                	lw	s0,4(s0)
80004ca0:	bfa5                	j	80004c18 <_malloc_r+0x2e>
80004ca2:	00350413          	addi	s0,a0,3
80004ca6:	9871                	andi	s0,s0,-4
80004ca8:	fc8503e3          	beq	a0,s0,80004c6e <_malloc_r+0x84>
80004cac:	40a405b3          	sub	a1,s0,a0
80004cb0:	854a                	mv	a0,s2
80004cb2:	2e61                	jal	8000504a <_sbrk_r>
80004cb4:	fb351de3          	bne	a0,s3,80004c6e <_malloc_r+0x84>
80004cb8:	bfbd                	j	80004c36 <_malloc_r+0x4c>

80004cba <__sfputc_r>:
__sfputc_r():
80004cba:	461c                	lw	a5,8(a2)
80004cbc:	17fd                	addi	a5,a5,-1
80004cbe:	c61c                	sw	a5,8(a2)
80004cc0:	0007da63          	bgez	a5,80004cd4 <__sfputc_r+0x1a>
80004cc4:	4e18                	lw	a4,24(a2)
80004cc6:	00e7c563          	blt	a5,a4,80004cd0 <__sfputc_r+0x16>
80004cca:	47a9                	li	a5,10
80004ccc:	00f59463          	bne	a1,a5,80004cd4 <__sfputc_r+0x1a>
80004cd0:	f75fd06f          	j	80002c44 <__swbuf_r>
80004cd4:	421c                	lw	a5,0(a2)
80004cd6:	852e                	mv	a0,a1
80004cd8:	00178713          	addi	a4,a5,1
80004cdc:	c218                	sw	a4,0(a2)
80004cde:	00b78023          	sb	a1,0(a5)
80004ce2:	8082                	ret

80004ce4 <__sfputs_r>:
__sfputs_r():
80004ce4:	1101                	addi	sp,sp,-32
80004ce6:	cc22                	sw	s0,24(sp)
80004ce8:	ca26                	sw	s1,20(sp)
80004cea:	c84a                	sw	s2,16(sp)
80004cec:	c64e                	sw	s3,12(sp)
80004cee:	c452                	sw	s4,8(sp)
80004cf0:	ce06                	sw	ra,28(sp)
80004cf2:	892a                	mv	s2,a0
80004cf4:	89ae                	mv	s3,a1
80004cf6:	8432                	mv	s0,a2
80004cf8:	00d604b3          	add	s1,a2,a3
80004cfc:	5a7d                	li	s4,-1
80004cfe:	00941463          	bne	s0,s1,80004d06 <__sfputs_r+0x22>
80004d02:	4501                	li	a0,0
80004d04:	a809                	j	80004d16 <__sfputs_r+0x32>
80004d06:	00044583          	lbu	a1,0(s0)
80004d0a:	864e                	mv	a2,s3
80004d0c:	854a                	mv	a0,s2
80004d0e:	3775                	jal	80004cba <__sfputc_r>
80004d10:	0405                	addi	s0,s0,1
80004d12:	ff4516e3          	bne	a0,s4,80004cfe <__sfputs_r+0x1a>
80004d16:	40f2                	lw	ra,28(sp)
80004d18:	4462                	lw	s0,24(sp)
80004d1a:	44d2                	lw	s1,20(sp)
80004d1c:	4942                	lw	s2,16(sp)
80004d1e:	49b2                	lw	s3,12(sp)
80004d20:	4a22                	lw	s4,8(sp)
80004d22:	6105                	addi	sp,sp,32
80004d24:	8082                	ret

80004d26 <_vfiprintf_r>:
_vfiprintf_r():
80004d26:	7135                	addi	sp,sp,-160
80004d28:	cd22                	sw	s0,152(sp)
80004d2a:	cb26                	sw	s1,148(sp)
80004d2c:	c94a                	sw	s2,144(sp)
80004d2e:	c74e                	sw	s3,140(sp)
80004d30:	cf06                	sw	ra,156(sp)
80004d32:	c552                	sw	s4,136(sp)
80004d34:	c356                	sw	s5,132(sp)
80004d36:	c15a                	sw	s6,128(sp)
80004d38:	dede                	sw	s7,124(sp)
80004d3a:	dce2                	sw	s8,120(sp)
80004d3c:	dae6                	sw	s9,116(sp)
80004d3e:	89aa                	mv	s3,a0
80004d40:	84ae                	mv	s1,a1
80004d42:	8932                	mv	s2,a2
80004d44:	8436                	mv	s0,a3
80004d46:	c509                	beqz	a0,80004d50 <_vfiprintf_r+0x2a>
80004d48:	4d1c                	lw	a5,24(a0)
80004d4a:	e399                	bnez	a5,80004d50 <_vfiprintf_r+0x2a>
80004d4c:	926ff0ef          	jal	ra,80003e72 <__sinit>
80004d50:	00002797          	auipc	a5,0x2
80004d54:	7b478793          	addi	a5,a5,1972 # 80007504 <__sf_fake_stdin>
80004d58:	0cf49c63          	bne	s1,a5,80004e30 <_vfiprintf_r+0x10a>
80004d5c:	0049a483          	lw	s1,4(s3)
80004d60:	00c4d783          	lhu	a5,12(s1)
80004d64:	8ba1                	andi	a5,a5,8
80004d66:	c7fd                	beqz	a5,80004e54 <_vfiprintf_r+0x12e>
80004d68:	489c                	lw	a5,16(s1)
80004d6a:	c7ed                	beqz	a5,80004e54 <_vfiprintf_r+0x12e>
80004d6c:	02000793          	li	a5,32
80004d70:	02f104a3          	sb	a5,41(sp)
80004d74:	03000793          	li	a5,48
80004d78:	d202                	sw	zero,36(sp)
80004d7a:	02f10523          	sb	a5,42(sp)
80004d7e:	c622                	sw	s0,12(sp)
80004d80:	02500b93          	li	s7,37
80004d84:	00003a97          	auipc	s5,0x3
80004d88:	910a8a93          	addi	s5,s5,-1776 # 80007694 <p05.0+0xc>
80004d8c:	4c05                	li	s8,1
80004d8e:	4b29                	li	s6,10
80004d90:	844a                	mv	s0,s2
80004d92:	00044783          	lbu	a5,0(s0)
80004d96:	c399                	beqz	a5,80004d9c <_vfiprintf_r+0x76>
80004d98:	0f779163          	bne	a5,s7,80004e7a <_vfiprintf_r+0x154>
80004d9c:	41240cb3          	sub	s9,s0,s2
80004da0:	01240d63          	beq	s0,s2,80004dba <_vfiprintf_r+0x94>
80004da4:	86e6                	mv	a3,s9
80004da6:	864a                	mv	a2,s2
80004da8:	85a6                	mv	a1,s1
80004daa:	854e                	mv	a0,s3
80004dac:	3f25                	jal	80004ce4 <__sfputs_r>
80004dae:	57fd                	li	a5,-1
80004db0:	1ef50763          	beq	a0,a5,80004f9e <_vfiprintf_r+0x278>
80004db4:	5792                	lw	a5,36(sp)
80004db6:	97e6                	add	a5,a5,s9
80004db8:	d23e                	sw	a5,36(sp)
80004dba:	00044783          	lbu	a5,0(s0)
80004dbe:	1e078063          	beqz	a5,80004f9e <_vfiprintf_r+0x278>
80004dc2:	57fd                	li	a5,-1
80004dc4:	00140913          	addi	s2,s0,1
80004dc8:	c802                	sw	zero,16(sp)
80004dca:	ce02                	sw	zero,28(sp)
80004dcc:	ca3e                	sw	a5,20(sp)
80004dce:	cc02                	sw	zero,24(sp)
80004dd0:	040109a3          	sb	zero,83(sp)
80004dd4:	d482                	sw	zero,104(sp)
80004dd6:	00094583          	lbu	a1,0(s2)
80004dda:	4615                	li	a2,5
80004ddc:	8556                	mv	a0,s5
80004dde:	b10ff0ef          	jal	ra,800040ee <memchr>
80004de2:	47c2                	lw	a5,16(sp)
80004de4:	00190413          	addi	s0,s2,1
80004de8:	e959                	bnez	a0,80004e7e <_vfiprintf_r+0x158>
80004dea:	0107f713          	andi	a4,a5,16
80004dee:	c709                	beqz	a4,80004df8 <_vfiprintf_r+0xd2>
80004df0:	02000713          	li	a4,32
80004df4:	04e109a3          	sb	a4,83(sp)
80004df8:	0087f713          	andi	a4,a5,8
80004dfc:	c709                	beqz	a4,80004e06 <_vfiprintf_r+0xe0>
80004dfe:	02b00713          	li	a4,43
80004e02:	04e109a3          	sb	a4,83(sp)
80004e06:	00094683          	lbu	a3,0(s2)
80004e0a:	02a00713          	li	a4,42
80004e0e:	08e68063          	beq	a3,a4,80004e8e <_vfiprintf_r+0x168>
80004e12:	47f2                	lw	a5,28(sp)
80004e14:	844a                	mv	s0,s2
80004e16:	4681                	li	a3,0
80004e18:	4625                	li	a2,9
80004e1a:	00044703          	lbu	a4,0(s0)
80004e1e:	00140593          	addi	a1,s0,1
80004e22:	fd070713          	addi	a4,a4,-48
80004e26:	0ae67963          	bgeu	a2,a4,80004ed8 <_vfiprintf_r+0x1b2>
80004e2a:	cab5                	beqz	a3,80004e9e <_vfiprintf_r+0x178>
80004e2c:	ce3e                	sw	a5,28(sp)
80004e2e:	a885                	j	80004e9e <_vfiprintf_r+0x178>
80004e30:	00002797          	auipc	a5,0x2
80004e34:	6f478793          	addi	a5,a5,1780 # 80007524 <__sf_fake_stdout>
80004e38:	00f49563          	bne	s1,a5,80004e42 <_vfiprintf_r+0x11c>
80004e3c:	0089a483          	lw	s1,8(s3)
80004e40:	b705                	j	80004d60 <_vfiprintf_r+0x3a>
80004e42:	00002797          	auipc	a5,0x2
80004e46:	6a278793          	addi	a5,a5,1698 # 800074e4 <__sf_fake_stderr>
80004e4a:	f0f49be3          	bne	s1,a5,80004d60 <_vfiprintf_r+0x3a>
80004e4e:	00c9a483          	lw	s1,12(s3)
80004e52:	b739                	j	80004d60 <_vfiprintf_r+0x3a>
80004e54:	85a6                	mv	a1,s1
80004e56:	854e                	mv	a0,s3
80004e58:	eb3fd0ef          	jal	ra,80002d0a <__swsetup_r>
80004e5c:	d901                	beqz	a0,80004d6c <_vfiprintf_r+0x46>
80004e5e:	557d                	li	a0,-1
80004e60:	40fa                	lw	ra,156(sp)
80004e62:	446a                	lw	s0,152(sp)
80004e64:	44da                	lw	s1,148(sp)
80004e66:	494a                	lw	s2,144(sp)
80004e68:	49ba                	lw	s3,140(sp)
80004e6a:	4a2a                	lw	s4,136(sp)
80004e6c:	4a9a                	lw	s5,132(sp)
80004e6e:	4b0a                	lw	s6,128(sp)
80004e70:	5bf6                	lw	s7,124(sp)
80004e72:	5c66                	lw	s8,120(sp)
80004e74:	5cd6                	lw	s9,116(sp)
80004e76:	610d                	addi	sp,sp,160
80004e78:	8082                	ret
80004e7a:	0405                	addi	s0,s0,1
80004e7c:	bf19                	j	80004d92 <_vfiprintf_r+0x6c>
80004e7e:	41550533          	sub	a0,a0,s5
80004e82:	00ac1533          	sll	a0,s8,a0
80004e86:	8fc9                	or	a5,a5,a0
80004e88:	c83e                	sw	a5,16(sp)
80004e8a:	8922                	mv	s2,s0
80004e8c:	b7a9                	j	80004dd6 <_vfiprintf_r+0xb0>
80004e8e:	4732                	lw	a4,12(sp)
80004e90:	00470693          	addi	a3,a4,4
80004e94:	4318                	lw	a4,0(a4)
80004e96:	c636                	sw	a3,12(sp)
80004e98:	02074963          	bltz	a4,80004eca <_vfiprintf_r+0x1a4>
80004e9c:	ce3a                	sw	a4,28(sp)
80004e9e:	00044703          	lbu	a4,0(s0)
80004ea2:	02e00793          	li	a5,46
80004ea6:	04f71f63          	bne	a4,a5,80004f04 <_vfiprintf_r+0x1de>
80004eaa:	00144703          	lbu	a4,1(s0)
80004eae:	02a00793          	li	a5,42
80004eb2:	02f71b63          	bne	a4,a5,80004ee8 <_vfiprintf_r+0x1c2>
80004eb6:	47b2                	lw	a5,12(sp)
80004eb8:	0409                	addi	s0,s0,2
80004eba:	00478713          	addi	a4,a5,4
80004ebe:	439c                	lw	a5,0(a5)
80004ec0:	c63a                	sw	a4,12(sp)
80004ec2:	0207c163          	bltz	a5,80004ee4 <_vfiprintf_r+0x1be>
80004ec6:	ca3e                	sw	a5,20(sp)
80004ec8:	a835                	j	80004f04 <_vfiprintf_r+0x1de>
80004eca:	40e00733          	neg	a4,a4
80004ece:	0027e793          	ori	a5,a5,2
80004ed2:	ce3a                	sw	a4,28(sp)
80004ed4:	c83e                	sw	a5,16(sp)
80004ed6:	b7e1                	j	80004e9e <_vfiprintf_r+0x178>
80004ed8:	036787b3          	mul	a5,a5,s6
80004edc:	842e                	mv	s0,a1
80004ede:	4685                	li	a3,1
80004ee0:	97ba                	add	a5,a5,a4
80004ee2:	bf25                	j	80004e1a <_vfiprintf_r+0xf4>
80004ee4:	57fd                	li	a5,-1
80004ee6:	b7c5                	j	80004ec6 <_vfiprintf_r+0x1a0>
80004ee8:	0405                	addi	s0,s0,1
80004eea:	ca02                	sw	zero,20(sp)
80004eec:	4681                	li	a3,0
80004eee:	4781                	li	a5,0
80004ef0:	4625                	li	a2,9
80004ef2:	00044703          	lbu	a4,0(s0)
80004ef6:	00140593          	addi	a1,s0,1
80004efa:	fd070713          	addi	a4,a4,-48
80004efe:	06e67863          	bgeu	a2,a4,80004f6e <_vfiprintf_r+0x248>
80004f02:	f2f1                	bnez	a3,80004ec6 <_vfiprintf_r+0x1a0>
80004f04:	00044583          	lbu	a1,0(s0)
80004f08:	460d                	li	a2,3
80004f0a:	00002517          	auipc	a0,0x2
80004f0e:	79250513          	addi	a0,a0,1938 # 8000769c <p05.0+0x14>
80004f12:	9dcff0ef          	jal	ra,800040ee <memchr>
80004f16:	cd11                	beqz	a0,80004f32 <_vfiprintf_r+0x20c>
80004f18:	00002797          	auipc	a5,0x2
80004f1c:	78478793          	addi	a5,a5,1924 # 8000769c <p05.0+0x14>
80004f20:	8d1d                	sub	a0,a0,a5
80004f22:	04000793          	li	a5,64
80004f26:	00a797b3          	sll	a5,a5,a0
80004f2a:	4542                	lw	a0,16(sp)
80004f2c:	0405                	addi	s0,s0,1
80004f2e:	8d5d                	or	a0,a0,a5
80004f30:	c82a                	sw	a0,16(sp)
80004f32:	00044583          	lbu	a1,0(s0)
80004f36:	4619                	li	a2,6
80004f38:	00002517          	auipc	a0,0x2
80004f3c:	76850513          	addi	a0,a0,1896 # 800076a0 <p05.0+0x18>
80004f40:	00140913          	addi	s2,s0,1
80004f44:	02b10423          	sb	a1,40(sp)
80004f48:	9a6ff0ef          	jal	ra,800040ee <memchr>
80004f4c:	c12d                	beqz	a0,80004fae <_vfiprintf_r+0x288>
80004f4e:	ffffd797          	auipc	a5,0xffffd
80004f52:	33678793          	addi	a5,a5,822 # 80002284 <_printf_float>
80004f56:	e795                	bnez	a5,80004f82 <_vfiprintf_r+0x25c>
80004f58:	4742                	lw	a4,16(sp)
80004f5a:	47b2                	lw	a5,12(sp)
80004f5c:	10077713          	andi	a4,a4,256
80004f60:	cf09                	beqz	a4,80004f7a <_vfiprintf_r+0x254>
80004f62:	0791                	addi	a5,a5,4
80004f64:	c63e                	sw	a5,12(sp)
80004f66:	5792                	lw	a5,36(sp)
80004f68:	97d2                	add	a5,a5,s4
80004f6a:	d23e                	sw	a5,36(sp)
80004f6c:	b515                	j	80004d90 <_vfiprintf_r+0x6a>
80004f6e:	036787b3          	mul	a5,a5,s6
80004f72:	842e                	mv	s0,a1
80004f74:	4685                	li	a3,1
80004f76:	97ba                	add	a5,a5,a4
80004f78:	bfad                	j	80004ef2 <_vfiprintf_r+0x1cc>
80004f7a:	079d                	addi	a5,a5,7
80004f7c:	9be1                	andi	a5,a5,-8
80004f7e:	07a1                	addi	a5,a5,8
80004f80:	b7d5                	j	80004f64 <_vfiprintf_r+0x23e>
80004f82:	0078                	addi	a4,sp,12
80004f84:	00000697          	auipc	a3,0x0
80004f88:	d6068693          	addi	a3,a3,-672 # 80004ce4 <__sfputs_r>
80004f8c:	8626                	mv	a2,s1
80004f8e:	080c                	addi	a1,sp,16
80004f90:	854e                	mv	a0,s3
80004f92:	af2fd0ef          	jal	ra,80002284 <_printf_float>
80004f96:	57fd                	li	a5,-1
80004f98:	8a2a                	mv	s4,a0
80004f9a:	fcf516e3          	bne	a0,a5,80004f66 <_vfiprintf_r+0x240>
80004f9e:	00c4d783          	lhu	a5,12(s1)
80004fa2:	0407f793          	andi	a5,a5,64
80004fa6:	ea079ce3          	bnez	a5,80004e5e <_vfiprintf_r+0x138>
80004faa:	5512                	lw	a0,36(sp)
80004fac:	bd55                	j	80004e60 <_vfiprintf_r+0x13a>
80004fae:	0078                	addi	a4,sp,12
80004fb0:	00000697          	auipc	a3,0x0
80004fb4:	d3468693          	addi	a3,a3,-716 # 80004ce4 <__sfputs_r>
80004fb8:	8626                	mv	a2,s1
80004fba:	080c                	addi	a1,sp,16
80004fbc:	854e                	mv	a0,s3
80004fbe:	8a7fd0ef          	jal	ra,80002864 <_printf_i>
80004fc2:	bfd1                	j	80004f96 <_vfiprintf_r+0x270>

80004fc4 <_putc_r>:
_putc_r():
80004fc4:	1101                	addi	sp,sp,-32
80004fc6:	cc22                	sw	s0,24(sp)
80004fc8:	ce06                	sw	ra,28(sp)
80004fca:	842a                	mv	s0,a0
80004fcc:	c909                	beqz	a0,80004fde <_putc_r+0x1a>
80004fce:	4d1c                	lw	a5,24(a0)
80004fd0:	e799                	bnez	a5,80004fde <_putc_r+0x1a>
80004fd2:	c632                	sw	a2,12(sp)
80004fd4:	c42e                	sw	a1,8(sp)
80004fd6:	e9dfe0ef          	jal	ra,80003e72 <__sinit>
80004fda:	4632                	lw	a2,12(sp)
80004fdc:	45a2                	lw	a1,8(sp)
80004fde:	00002797          	auipc	a5,0x2
80004fe2:	52678793          	addi	a5,a5,1318 # 80007504 <__sf_fake_stdin>
80004fe6:	02f61663          	bne	a2,a5,80005012 <_putc_r+0x4e>
80004fea:	4050                	lw	a2,4(s0)
80004fec:	461c                	lw	a5,8(a2)
80004fee:	17fd                	addi	a5,a5,-1
80004ff0:	c61c                	sw	a5,8(a2)
80004ff2:	0407d063          	bgez	a5,80005032 <_putc_r+0x6e>
80004ff6:	4e18                	lw	a4,24(a2)
80004ff8:	00e7c763          	blt	a5,a4,80005006 <_putc_r+0x42>
80004ffc:	0ff5f793          	zext.b	a5,a1
80005000:	4729                	li	a4,10
80005002:	02e79863          	bne	a5,a4,80005032 <_putc_r+0x6e>
80005006:	8522                	mv	a0,s0
80005008:	4462                	lw	s0,24(sp)
8000500a:	40f2                	lw	ra,28(sp)
8000500c:	6105                	addi	sp,sp,32
8000500e:	c37fd06f          	j	80002c44 <__swbuf_r>
80005012:	00002797          	auipc	a5,0x2
80005016:	51278793          	addi	a5,a5,1298 # 80007524 <__sf_fake_stdout>
8000501a:	00f61463          	bne	a2,a5,80005022 <_putc_r+0x5e>
8000501e:	4410                	lw	a2,8(s0)
80005020:	b7f1                	j	80004fec <_putc_r+0x28>
80005022:	00002797          	auipc	a5,0x2
80005026:	4c278793          	addi	a5,a5,1218 # 800074e4 <__sf_fake_stderr>
8000502a:	fcf611e3          	bne	a2,a5,80004fec <_putc_r+0x28>
8000502e:	4450                	lw	a2,12(s0)
80005030:	bf75                	j	80004fec <_putc_r+0x28>
80005032:	421c                	lw	a5,0(a2)
80005034:	0ff5f513          	zext.b	a0,a1
80005038:	00178713          	addi	a4,a5,1
8000503c:	c218                	sw	a4,0(a2)
8000503e:	00b78023          	sb	a1,0(a5)
80005042:	40f2                	lw	ra,28(sp)
80005044:	4462                	lw	s0,24(sp)
80005046:	6105                	addi	sp,sp,32
80005048:	8082                	ret

8000504a <_sbrk_r>:
_sbrk_r():
8000504a:	1141                	addi	sp,sp,-16
8000504c:	c422                	sw	s0,8(sp)
8000504e:	842a                	mv	s0,a0
80005050:	852e                	mv	a0,a1
80005052:	8601a223          	sw	zero,-1948(gp) # 90000234 <errno>
80005056:	c606                	sw	ra,12(sp)
80005058:	b8cfb0ef          	jal	ra,800003e4 <_sbrk>
8000505c:	57fd                	li	a5,-1
8000505e:	00f51663          	bne	a0,a5,8000506a <_sbrk_r+0x20>
80005062:	8641a783          	lw	a5,-1948(gp) # 90000234 <errno>
80005066:	c391                	beqz	a5,8000506a <_sbrk_r+0x20>
80005068:	c01c                	sw	a5,0(s0)
8000506a:	40b2                	lw	ra,12(sp)
8000506c:	4422                	lw	s0,8(sp)
8000506e:	0141                	addi	sp,sp,16
80005070:	8082                	ret

80005072 <__sread>:
__sread():
80005072:	1141                	addi	sp,sp,-16
80005074:	c422                	sw	s0,8(sp)
80005076:	842e                	mv	s0,a1
80005078:	00e59583          	lh	a1,14(a1)
8000507c:	c606                	sw	ra,12(sp)
8000507e:	240d                	jal	800052a0 <_read_r>
80005080:	00054963          	bltz	a0,80005092 <__sread+0x20>
80005084:	487c                	lw	a5,84(s0)
80005086:	97aa                	add	a5,a5,a0
80005088:	c87c                	sw	a5,84(s0)
8000508a:	40b2                	lw	ra,12(sp)
8000508c:	4422                	lw	s0,8(sp)
8000508e:	0141                	addi	sp,sp,16
80005090:	8082                	ret
80005092:	00c45783          	lhu	a5,12(s0)
80005096:	777d                	lui	a4,0xfffff
80005098:	177d                	addi	a4,a4,-1
8000509a:	8ff9                	and	a5,a5,a4
8000509c:	00f41623          	sh	a5,12(s0)
800050a0:	b7ed                	j	8000508a <__sread+0x18>

800050a2 <__swrite>:
__swrite():
800050a2:	00c5d783          	lhu	a5,12(a1)
800050a6:	1101                	addi	sp,sp,-32
800050a8:	cc22                	sw	s0,24(sp)
800050aa:	ca26                	sw	s1,20(sp)
800050ac:	c84a                	sw	s2,16(sp)
800050ae:	c64e                	sw	s3,12(sp)
800050b0:	ce06                	sw	ra,28(sp)
800050b2:	1007f793          	andi	a5,a5,256
800050b6:	84aa                	mv	s1,a0
800050b8:	842e                	mv	s0,a1
800050ba:	8932                	mv	s2,a2
800050bc:	89b6                	mv	s3,a3
800050be:	c791                	beqz	a5,800050ca <__swrite+0x28>
800050c0:	00e59583          	lh	a1,14(a1)
800050c4:	4689                	li	a3,2
800050c6:	4601                	li	a2,0
800050c8:	22bd                	jal	80005236 <_lseek_r>
800050ca:	00c45783          	lhu	a5,12(s0)
800050ce:	777d                	lui	a4,0xfffff
800050d0:	177d                	addi	a4,a4,-1
800050d2:	8ff9                	and	a5,a5,a4
800050d4:	00e41583          	lh	a1,14(s0)
800050d8:	00f41623          	sh	a5,12(s0)
800050dc:	4462                	lw	s0,24(sp)
800050de:	40f2                	lw	ra,28(sp)
800050e0:	86ce                	mv	a3,s3
800050e2:	864a                	mv	a2,s2
800050e4:	49b2                	lw	s3,12(sp)
800050e6:	4942                	lw	s2,16(sp)
800050e8:	8526                	mv	a0,s1
800050ea:	44d2                	lw	s1,20(sp)
800050ec:	6105                	addi	sp,sp,32
800050ee:	a83d                	j	8000512c <_write_r>

800050f0 <__sseek>:
__sseek():
800050f0:	1141                	addi	sp,sp,-16
800050f2:	c422                	sw	s0,8(sp)
800050f4:	842e                	mv	s0,a1
800050f6:	00e59583          	lh	a1,14(a1)
800050fa:	c606                	sw	ra,12(sp)
800050fc:	2a2d                	jal	80005236 <_lseek_r>
800050fe:	57fd                	li	a5,-1
80005100:	00c45703          	lhu	a4,12(s0)
80005104:	00f51b63          	bne	a0,a5,8000511a <__sseek+0x2a>
80005108:	77fd                	lui	a5,0xfffff
8000510a:	17fd                	addi	a5,a5,-1
8000510c:	8ff9                	and	a5,a5,a4
8000510e:	00f41623          	sh	a5,12(s0)
80005112:	40b2                	lw	ra,12(sp)
80005114:	4422                	lw	s0,8(sp)
80005116:	0141                	addi	sp,sp,16
80005118:	8082                	ret
8000511a:	6785                	lui	a5,0x1
8000511c:	8fd9                	or	a5,a5,a4
8000511e:	00f41623          	sh	a5,12(s0)
80005122:	c868                	sw	a0,84(s0)
80005124:	b7fd                	j	80005112 <__sseek+0x22>

80005126 <__sclose>:
__sclose():
80005126:	00e59583          	lh	a1,14(a1)
8000512a:	a0a5                	j	80005192 <_close_r>

8000512c <_write_r>:
_write_r():
8000512c:	1141                	addi	sp,sp,-16
8000512e:	c422                	sw	s0,8(sp)
80005130:	842a                	mv	s0,a0
80005132:	852e                	mv	a0,a1
80005134:	85b2                	mv	a1,a2
80005136:	8636                	mv	a2,a3
80005138:	8601a223          	sw	zero,-1948(gp) # 90000234 <errno>
8000513c:	c606                	sw	ra,12(sp)
8000513e:	ad6fb0ef          	jal	ra,80000414 <_write>
80005142:	57fd                	li	a5,-1
80005144:	00f51663          	bne	a0,a5,80005150 <_write_r+0x24>
80005148:	8641a783          	lw	a5,-1948(gp) # 90000234 <errno>
8000514c:	c391                	beqz	a5,80005150 <_write_r+0x24>
8000514e:	c01c                	sw	a5,0(s0)
80005150:	40b2                	lw	ra,12(sp)
80005152:	4422                	lw	s0,8(sp)
80005154:	0141                	addi	sp,sp,16
80005156:	8082                	ret

80005158 <__assert_func>:
__assert_func():
80005158:	1141                	addi	sp,sp,-16
8000515a:	0fffb797          	auipc	a5,0xfffb
8000515e:	07e7a783          	lw	a5,126(a5) # 900001d8 <_impure_ptr>
80005162:	8832                	mv	a6,a2
80005164:	c606                	sw	ra,12(sp)
80005166:	88aa                	mv	a7,a0
80005168:	872e                	mv	a4,a1
8000516a:	47c8                	lw	a0,12(a5)
8000516c:	8636                	mv	a2,a3
8000516e:	00002797          	auipc	a5,0x2
80005172:	53a78793          	addi	a5,a5,1338 # 800076a8 <p05.0+0x20>
80005176:	00081763          	bnez	a6,80005184 <__assert_func+0x2c>
8000517a:	00002797          	auipc	a5,0x2
8000517e:	dda78793          	addi	a5,a5,-550 # 80006f54 <__clzsi2+0xd6>
80005182:	883e                	mv	a6,a5
80005184:	86c6                	mv	a3,a7
80005186:	00002597          	auipc	a1,0x2
8000518a:	53258593          	addi	a1,a1,1330 # 800076b8 <p05.0+0x30>
8000518e:	2035                	jal	800051ba <fiprintf>
80005190:	2ab1                	jal	800052ec <abort>

80005192 <_close_r>:
_close_r():
80005192:	1141                	addi	sp,sp,-16
80005194:	c422                	sw	s0,8(sp)
80005196:	842a                	mv	s0,a0
80005198:	852e                	mv	a0,a1
8000519a:	8601a223          	sw	zero,-1948(gp) # 90000234 <errno>
8000519e:	c606                	sw	ra,12(sp)
800051a0:	9a8fb0ef          	jal	ra,80000348 <_close>
800051a4:	57fd                	li	a5,-1
800051a6:	00f51663          	bne	a0,a5,800051b2 <_close_r+0x20>
800051aa:	8641a783          	lw	a5,-1948(gp) # 90000234 <errno>
800051ae:	c391                	beqz	a5,800051b2 <_close_r+0x20>
800051b0:	c01c                	sw	a5,0(s0)
800051b2:	40b2                	lw	ra,12(sp)
800051b4:	4422                	lw	s0,8(sp)
800051b6:	0141                	addi	sp,sp,16
800051b8:	8082                	ret

800051ba <fiprintf>:
fprintf():
800051ba:	7139                	addi	sp,sp,-64
800051bc:	d432                	sw	a2,40(sp)
800051be:	d636                	sw	a3,44(sp)
800051c0:	862e                	mv	a2,a1
800051c2:	1034                	addi	a3,sp,40
800051c4:	85aa                	mv	a1,a0
800051c6:	0fffb517          	auipc	a0,0xfffb
800051ca:	01252503          	lw	a0,18(a0) # 900001d8 <_impure_ptr>
800051ce:	ce06                	sw	ra,28(sp)
800051d0:	d83a                	sw	a4,48(sp)
800051d2:	da3e                	sw	a5,52(sp)
800051d4:	dc42                	sw	a6,56(sp)
800051d6:	de46                	sw	a7,60(sp)
800051d8:	c636                	sw	a3,12(sp)
800051da:	b4dff0ef          	jal	ra,80004d26 <_vfiprintf_r>
800051de:	40f2                	lw	ra,28(sp)
800051e0:	6121                	addi	sp,sp,64
800051e2:	8082                	ret

800051e4 <_fstat_r>:
_fstat_r():
800051e4:	1141                	addi	sp,sp,-16
800051e6:	c422                	sw	s0,8(sp)
800051e8:	842a                	mv	s0,a0
800051ea:	852e                	mv	a0,a1
800051ec:	85b2                	mv	a1,a2
800051ee:	8601a223          	sw	zero,-1948(gp) # 90000234 <errno>
800051f2:	c606                	sw	ra,12(sp)
800051f4:	984fb0ef          	jal	ra,80000378 <_fstat>
800051f8:	57fd                	li	a5,-1
800051fa:	00f51663          	bne	a0,a5,80005206 <_fstat_r+0x22>
800051fe:	8641a783          	lw	a5,-1948(gp) # 90000234 <errno>
80005202:	c391                	beqz	a5,80005206 <_fstat_r+0x22>
80005204:	c01c                	sw	a5,0(s0)
80005206:	40b2                	lw	ra,12(sp)
80005208:	4422                	lw	s0,8(sp)
8000520a:	0141                	addi	sp,sp,16
8000520c:	8082                	ret

8000520e <_isatty_r>:
_isatty_r():
8000520e:	1141                	addi	sp,sp,-16
80005210:	c422                	sw	s0,8(sp)
80005212:	842a                	mv	s0,a0
80005214:	852e                	mv	a0,a1
80005216:	8601a223          	sw	zero,-1948(gp) # 90000234 <errno>
8000521a:	c606                	sw	ra,12(sp)
8000521c:	984fb0ef          	jal	ra,800003a0 <_isatty>
80005220:	57fd                	li	a5,-1
80005222:	00f51663          	bne	a0,a5,8000522e <_isatty_r+0x20>
80005226:	8641a783          	lw	a5,-1948(gp) # 90000234 <errno>
8000522a:	c391                	beqz	a5,8000522e <_isatty_r+0x20>
8000522c:	c01c                	sw	a5,0(s0)
8000522e:	40b2                	lw	ra,12(sp)
80005230:	4422                	lw	s0,8(sp)
80005232:	0141                	addi	sp,sp,16
80005234:	8082                	ret

80005236 <_lseek_r>:
_lseek_r():
80005236:	1141                	addi	sp,sp,-16
80005238:	c422                	sw	s0,8(sp)
8000523a:	842a                	mv	s0,a0
8000523c:	852e                	mv	a0,a1
8000523e:	85b2                	mv	a1,a2
80005240:	8636                	mv	a2,a3
80005242:	8601a223          	sw	zero,-1948(gp) # 90000234 <errno>
80005246:	c606                	sw	ra,12(sp)
80005248:	96cfb0ef          	jal	ra,800003b4 <_lseek>
8000524c:	57fd                	li	a5,-1
8000524e:	00f51663          	bne	a0,a5,8000525a <_lseek_r+0x24>
80005252:	8641a783          	lw	a5,-1948(gp) # 90000234 <errno>
80005256:	c391                	beqz	a5,8000525a <_lseek_r+0x24>
80005258:	c01c                	sw	a5,0(s0)
8000525a:	40b2                	lw	ra,12(sp)
8000525c:	4422                	lw	s0,8(sp)
8000525e:	0141                	addi	sp,sp,16
80005260:	8082                	ret

80005262 <__ascii_mbtowc>:
__ascii_mbtowc():
80005262:	e185                	bnez	a1,80005282 <__ascii_mbtowc+0x20>
80005264:	1141                	addi	sp,sp,-16
80005266:	006c                	addi	a1,sp,12
80005268:	4501                	li	a0,0
8000526a:	ca11                	beqz	a2,8000527e <__ascii_mbtowc+0x1c>
8000526c:	5579                	li	a0,-2
8000526e:	ca81                	beqz	a3,8000527e <__ascii_mbtowc+0x1c>
80005270:	00064783          	lbu	a5,0(a2)
80005274:	c19c                	sw	a5,0(a1)
80005276:	00064503          	lbu	a0,0(a2)
8000527a:	00a03533          	snez	a0,a0
8000527e:	0141                	addi	sp,sp,16
80005280:	8082                	ret
80005282:	4501                	li	a0,0
80005284:	ca19                	beqz	a2,8000529a <__ascii_mbtowc+0x38>
80005286:	5579                	li	a0,-2
80005288:	ca89                	beqz	a3,8000529a <__ascii_mbtowc+0x38>
8000528a:	00064783          	lbu	a5,0(a2)
8000528e:	c19c                	sw	a5,0(a1)
80005290:	00064503          	lbu	a0,0(a2)
80005294:	00a03533          	snez	a0,a0
80005298:	8082                	ret
8000529a:	8082                	ret

8000529c <__malloc_lock>:
__malloc_lock():
8000529c:	8082                	ret

8000529e <__malloc_unlock>:
__malloc_unlock():
8000529e:	8082                	ret

800052a0 <_read_r>:
_read_r():
800052a0:	1141                	addi	sp,sp,-16
800052a2:	c422                	sw	s0,8(sp)
800052a4:	842a                	mv	s0,a0
800052a6:	852e                	mv	a0,a1
800052a8:	85b2                	mv	a1,a2
800052aa:	8636                	mv	a2,a3
800052ac:	8601a223          	sw	zero,-1948(gp) # 90000234 <errno>
800052b0:	c606                	sw	ra,12(sp)
800052b2:	90afb0ef          	jal	ra,800003bc <_read>
800052b6:	57fd                	li	a5,-1
800052b8:	00f51663          	bne	a0,a5,800052c4 <_read_r+0x24>
800052bc:	8641a783          	lw	a5,-1948(gp) # 90000234 <errno>
800052c0:	c391                	beqz	a5,800052c4 <_read_r+0x24>
800052c2:	c01c                	sw	a5,0(s0)
800052c4:	40b2                	lw	ra,12(sp)
800052c6:	4422                	lw	s0,8(sp)
800052c8:	0141                	addi	sp,sp,16
800052ca:	8082                	ret

800052cc <__ascii_wctomb>:
__ascii_wctomb():
800052cc:	cd91                	beqz	a1,800052e8 <__ascii_wctomb+0x1c>
800052ce:	0ff00793          	li	a5,255
800052d2:	00c7f763          	bgeu	a5,a2,800052e0 <__ascii_wctomb+0x14>
800052d6:	08a00793          	li	a5,138
800052da:	c11c                	sw	a5,0(a0)
800052dc:	557d                	li	a0,-1
800052de:	8082                	ret
800052e0:	00c58023          	sb	a2,0(a1)
800052e4:	4505                	li	a0,1
800052e6:	8082                	ret
800052e8:	4501                	li	a0,0
800052ea:	8082                	ret

800052ec <abort>:
abort():
800052ec:	1141                	addi	sp,sp,-16
800052ee:	4519                	li	a0,6
800052f0:	c606                	sw	ra,12(sp)
800052f2:	20ad                	jal	8000535c <raise>
800052f4:	4505                	li	a0,1
800052f6:	85efb0ef          	jal	ra,80000354 <_exit>

800052fa <_raise_r>:
_raise_r():
800052fa:	1101                	addi	sp,sp,-32
800052fc:	cc22                	sw	s0,24(sp)
800052fe:	ce06                	sw	ra,28(sp)
80005300:	47fd                	li	a5,31
80005302:	842a                	mv	s0,a0
80005304:	00b7f963          	bgeu	a5,a1,80005316 <_raise_r+0x1c>
80005308:	47d9                	li	a5,22
8000530a:	c11c                	sw	a5,0(a0)
8000530c:	557d                	li	a0,-1
8000530e:	40f2                	lw	ra,28(sp)
80005310:	4462                	lw	s0,24(sp)
80005312:	6105                	addi	sp,sp,32
80005314:	8082                	ret
80005316:	417c                	lw	a5,68(a0)
80005318:	862e                	mv	a2,a1
8000531a:	c791                	beqz	a5,80005326 <_raise_r+0x2c>
8000531c:	00259713          	slli	a4,a1,0x2
80005320:	97ba                	add	a5,a5,a4
80005322:	4398                	lw	a4,0(a5)
80005324:	eb19                	bnez	a4,8000533a <_raise_r+0x40>
80005326:	8522                	mv	a0,s0
80005328:	c632                	sw	a2,12(sp)
8000532a:	20a5                	jal	80005392 <_getpid_r>
8000532c:	85aa                	mv	a1,a0
8000532e:	8522                	mv	a0,s0
80005330:	4462                	lw	s0,24(sp)
80005332:	4632                	lw	a2,12(sp)
80005334:	40f2                	lw	ra,28(sp)
80005336:	6105                	addi	sp,sp,32
80005338:	a805                	j	80005368 <_kill_r>
8000533a:	4685                	li	a3,1
8000533c:	4501                	li	a0,0
8000533e:	fcd708e3          	beq	a4,a3,8000530e <_raise_r+0x14>
80005342:	56fd                	li	a3,-1
80005344:	00d71663          	bne	a4,a3,80005350 <_raise_r+0x56>
80005348:	47d9                	li	a5,22
8000534a:	c01c                	sw	a5,0(s0)
8000534c:	4505                	li	a0,1
8000534e:	b7c1                	j	8000530e <_raise_r+0x14>
80005350:	852e                	mv	a0,a1
80005352:	0007a023          	sw	zero,0(a5)
80005356:	9702                	jalr	a4
80005358:	4501                	li	a0,0
8000535a:	bf55                	j	8000530e <_raise_r+0x14>

8000535c <raise>:
raise():
8000535c:	85aa                	mv	a1,a0
8000535e:	0fffb517          	auipc	a0,0xfffb
80005362:	e7a52503          	lw	a0,-390(a0) # 900001d8 <_impure_ptr>
80005366:	bf51                	j	800052fa <_raise_r>

80005368 <_kill_r>:
_kill_r():
80005368:	1141                	addi	sp,sp,-16
8000536a:	c422                	sw	s0,8(sp)
8000536c:	842a                	mv	s0,a0
8000536e:	852e                	mv	a0,a1
80005370:	85b2                	mv	a1,a2
80005372:	8601a223          	sw	zero,-1948(gp) # 90000234 <errno>
80005376:	c606                	sw	ra,12(sp)
80005378:	830fb0ef          	jal	ra,800003a8 <_kill>
8000537c:	57fd                	li	a5,-1
8000537e:	00f51663          	bne	a0,a5,8000538a <_kill_r+0x22>
80005382:	8641a783          	lw	a5,-1948(gp) # 90000234 <errno>
80005386:	c391                	beqz	a5,8000538a <_kill_r+0x22>
80005388:	c01c                	sw	a5,0(s0)
8000538a:	40b2                	lw	ra,12(sp)
8000538c:	4422                	lw	s0,8(sp)
8000538e:	0141                	addi	sp,sp,16
80005390:	8082                	ret

80005392 <_getpid_r>:
_getpid_r():
80005392:	806fb06f          	j	80000398 <_getpid>

80005396 <__adddf3>:
__adddf3():
/home/xl_ci/toolchain/riscv-gnu-toolchain/riscv-gcc/libgcc/soft-fp/adddf3.c:44
80005396:	00100837          	lui	a6,0x100
8000539a:	187d                	addi	a6,a6,-1
/home/xl_ci/toolchain/riscv-gnu-toolchain/riscv-gcc/libgcc/soft-fp/adddf3.c:36
8000539c:	1101                	addi	sp,sp,-32
/home/xl_ci/toolchain/riscv-gnu-toolchain/riscv-gcc/libgcc/soft-fp/adddf3.c:44
8000539e:	00b877b3          	and	a5,a6,a1
800053a2:	0145d713          	srli	a4,a1,0x14
/home/xl_ci/toolchain/riscv-gnu-toolchain/riscv-gcc/libgcc/soft-fp/adddf3.c:45
800053a6:	00d87833          	and	a6,a6,a3
800053aa:	0146d313          	srli	t1,a3,0x14
/home/xl_ci/toolchain/riscv-gnu-toolchain/riscv-gcc/libgcc/soft-fp/adddf3.c:36
800053ae:	cc22                	sw	s0,24(sp)
/home/xl_ci/toolchain/riscv-gnu-toolchain/riscv-gcc/libgcc/soft-fp/adddf3.c:44
800053b0:	078e                	slli	a5,a5,0x3
800053b2:	7ff77413          	andi	s0,a4,2047
800053b6:	01d55713          	srli	a4,a0,0x1d
/home/xl_ci/toolchain/riscv-gnu-toolchain/riscv-gcc/libgcc/soft-fp/adddf3.c:45
800053ba:	080e                	slli	a6,a6,0x3
/home/xl_ci/toolchain/riscv-gnu-toolchain/riscv-gcc/libgcc/soft-fp/adddf3.c:36
800053bc:	ca26                	sw	s1,20(sp)
/home/xl_ci/toolchain/riscv-gnu-toolchain/riscv-gcc/libgcc/soft-fp/adddf3.c:44
800053be:	8fd9                	or	a5,a5,a4
800053c0:	01f5d493          	srli	s1,a1,0x1f
/home/xl_ci/toolchain/riscv-gnu-toolchain/riscv-gcc/libgcc/soft-fp/adddf3.c:45
800053c4:	01d65713          	srli	a4,a2,0x1d
800053c8:	7ff37313          	andi	t1,t1,2047
/home/xl_ci/toolchain/riscv-gnu-toolchain/riscv-gcc/libgcc/soft-fp/adddf3.c:36
800053cc:	ce06                	sw	ra,28(sp)
800053ce:	c84a                	sw	s2,16(sp)
800053d0:	c64e                	sw	s3,12(sp)
/home/xl_ci/toolchain/riscv-gnu-toolchain/riscv-gcc/libgcc/soft-fp/adddf3.c:45
800053d2:	82fd                	srli	a3,a3,0x1f
800053d4:	01076733          	or	a4,a4,a6
/home/xl_ci/toolchain/riscv-gnu-toolchain/riscv-gcc/libgcc/soft-fp/adddf3.c:44
800053d8:	00351593          	slli	a1,a0,0x3
/home/xl_ci/toolchain/riscv-gnu-toolchain/riscv-gcc/libgcc/soft-fp/adddf3.c:45
800053dc:	060e                	slli	a2,a2,0x3
/home/xl_ci/toolchain/riscv-gnu-toolchain/riscv-gcc/libgcc/soft-fp/adddf3.c:46
800053de:	40640833          	sub	a6,s0,t1
800053e2:	22d49863          	bne	s1,a3,80005612 <__adddf3+0x27c>
/home/xl_ci/toolchain/riscv-gnu-toolchain/riscv-gcc/libgcc/soft-fp/adddf3.c:46 (discriminator 7)
800053e6:	0f005363          	blez	a6,800054cc <__adddf3+0x136>
/home/xl_ci/toolchain/riscv-gnu-toolchain/riscv-gcc/libgcc/soft-fp/adddf3.c:46 (discriminator 9)
800053ea:	02031863          	bnez	t1,8000541a <__adddf3+0x84>
/home/xl_ci/toolchain/riscv-gnu-toolchain/riscv-gcc/libgcc/soft-fp/adddf3.c:46 (discriminator 11)
800053ee:	00c766b3          	or	a3,a4,a2
800053f2:	58068363          	beqz	a3,80005978 <__adddf3+0x5e2>
/home/xl_ci/toolchain/riscv-gnu-toolchain/riscv-gcc/libgcc/soft-fp/adddf3.c:46 (discriminator 14)
800053f6:	fff80513          	addi	a0,a6,-1 # fffff <__stack_size+0xff7ff>
800053fa:	e909                	bnez	a0,8000540c <__adddf3+0x76>
/home/xl_ci/toolchain/riscv-gnu-toolchain/riscv-gcc/libgcc/soft-fp/adddf3.c:46 (discriminator 23)
800053fc:	962e                	add	a2,a2,a1
800053fe:	00b63533          	sltu	a0,a2,a1
80005402:	97ba                	add	a5,a5,a4
80005404:	97aa                	add	a5,a5,a0
80005406:	85b2                	mv	a1,a2
/home/xl_ci/toolchain/riscv-gnu-toolchain/riscv-gcc/libgcc/soft-fp/adddf3.c:45 (discriminator 80)
80005408:	4405                	li	s0,1
/home/xl_ci/toolchain/riscv-gnu-toolchain/riscv-gcc/libgcc/soft-fp/adddf3.c:46 (discriminator 80)
8000540a:	a8b9                	j	80005468 <__adddf3+0xd2>
/home/xl_ci/toolchain/riscv-gnu-toolchain/riscv-gcc/libgcc/soft-fp/adddf3.c:46 (discriminator 24)
8000540c:	7ff00693          	li	a3,2047
80005410:	00d81d63          	bne	a6,a3,8000542a <__adddf3+0x94>
/home/xl_ci/toolchain/riscv-gnu-toolchain/riscv-gcc/libgcc/soft-fp/adddf3.c:46
80005414:	7ff00413          	li	s0,2047
80005418:	a24d                	j	800055ba <__adddf3+0x224>
/home/xl_ci/toolchain/riscv-gnu-toolchain/riscv-gcc/libgcc/soft-fp/adddf3.c:46 (discriminator 12)
8000541a:	7ff00693          	li	a3,2047
8000541e:	18d40e63          	beq	s0,a3,800055ba <__adddf3+0x224>
/home/xl_ci/toolchain/riscv-gnu-toolchain/riscv-gcc/libgcc/soft-fp/adddf3.c:46 (discriminator 38)
80005422:	008006b7          	lui	a3,0x800
80005426:	8f55                	or	a4,a4,a3
80005428:	8542                	mv	a0,a6
/home/xl_ci/toolchain/riscv-gnu-toolchain/riscv-gcc/libgcc/soft-fp/adddf3.c:46 (discriminator 47)
8000542a:	03800693          	li	a3,56
8000542e:	08a6cb63          	blt	a3,a0,800054c4 <__adddf3+0x12e>
/home/xl_ci/toolchain/riscv-gnu-toolchain/riscv-gcc/libgcc/soft-fp/adddf3.c:46 (discriminator 48)
80005432:	46fd                	li	a3,31
80005434:	06a6c263          	blt	a3,a0,80005498 <__adddf3+0x102>
/home/xl_ci/toolchain/riscv-gnu-toolchain/riscv-gcc/libgcc/soft-fp/adddf3.c:46 (discriminator 50)
80005438:	02000813          	li	a6,32
8000543c:	40a80833          	sub	a6,a6,a0
80005440:	010716b3          	sll	a3,a4,a6
80005444:	00a658b3          	srl	a7,a2,a0
80005448:	01061633          	sll	a2,a2,a6
8000544c:	0116e6b3          	or	a3,a3,a7
80005450:	00c03633          	snez	a2,a2
80005454:	8e55                	or	a2,a2,a3
80005456:	00a75733          	srl	a4,a4,a0
/home/xl_ci/toolchain/riscv-gnu-toolchain/riscv-gcc/libgcc/soft-fp/adddf3.c:46 (discriminator 64)
8000545a:	962e                	add	a2,a2,a1
8000545c:	00b63533          	sltu	a0,a2,a1
80005460:	973e                	add	a4,a4,a5
80005462:	00a707b3          	add	a5,a4,a0
80005466:	85b2                	mv	a1,a2
/home/xl_ci/toolchain/riscv-gnu-toolchain/riscv-gcc/libgcc/soft-fp/adddf3.c:46 (discriminator 122)
80005468:	00800737          	lui	a4,0x800
8000546c:	8f7d                	and	a4,a4,a5
8000546e:	14070663          	beqz	a4,800055ba <__adddf3+0x224>
/home/xl_ci/toolchain/riscv-gnu-toolchain/riscv-gcc/libgcc/soft-fp/adddf3.c:46 (discriminator 182)
80005472:	0405                	addi	s0,s0,1
80005474:	7ff00713          	li	a4,2047
80005478:	48e40d63          	beq	s0,a4,80005912 <__adddf3+0x57c>
/home/xl_ci/toolchain/riscv-gnu-toolchain/riscv-gcc/libgcc/soft-fp/adddf3.c:46
8000547c:	ff800737          	lui	a4,0xff800
80005480:	177d                	addi	a4,a4,-1
80005482:	8ff9                	and	a5,a5,a4
80005484:	0015f513          	andi	a0,a1,1
80005488:	0015d713          	srli	a4,a1,0x1
8000548c:	8d59                	or	a0,a0,a4
8000548e:	01f79593          	slli	a1,a5,0x1f
80005492:	8dc9                	or	a1,a1,a0
80005494:	8385                	srli	a5,a5,0x1
80005496:	a215                	j	800055ba <__adddf3+0x224>
/home/xl_ci/toolchain/riscv-gnu-toolchain/riscv-gcc/libgcc/soft-fp/adddf3.c:46 (discriminator 51)
80005498:	fe050693          	addi	a3,a0,-32
8000549c:	02000893          	li	a7,32
800054a0:	00d756b3          	srl	a3,a4,a3
800054a4:	4801                	li	a6,0
800054a6:	01150863          	beq	a0,a7,800054b6 <__adddf3+0x120>
/home/xl_ci/toolchain/riscv-gnu-toolchain/riscv-gcc/libgcc/soft-fp/adddf3.c:46 (discriminator 58)
800054aa:	04000813          	li	a6,64
800054ae:	40a80533          	sub	a0,a6,a0
800054b2:	00a71833          	sll	a6,a4,a0
/home/xl_ci/toolchain/riscv-gnu-toolchain/riscv-gcc/libgcc/soft-fp/adddf3.c:46 (discriminator 61)
800054b6:	00c86633          	or	a2,a6,a2
800054ba:	00c03633          	snez	a2,a2
800054be:	8e55                	or	a2,a2,a3
/home/xl_ci/toolchain/riscv-gnu-toolchain/riscv-gcc/libgcc/soft-fp/adddf3.c:46 (discriminator 49)
800054c0:	4701                	li	a4,0
800054c2:	bf61                	j	8000545a <__adddf3+0xc4>
800054c4:	8e59                	or	a2,a2,a4
800054c6:	00c03633          	snez	a2,a2
800054ca:	bfdd                	j	800054c0 <__adddf3+0x12a>
/home/xl_ci/toolchain/riscv-gnu-toolchain/riscv-gcc/libgcc/soft-fp/adddf3.c:46 (discriminator 10)
800054cc:	0a080b63          	beqz	a6,80005582 <__adddf3+0x1ec>
/home/xl_ci/toolchain/riscv-gnu-toolchain/riscv-gcc/libgcc/soft-fp/adddf3.c:46 (discriminator 66)
800054d0:	40830533          	sub	a0,t1,s0
800054d4:	e40d                	bnez	s0,800054fe <__adddf3+0x168>
/home/xl_ci/toolchain/riscv-gnu-toolchain/riscv-gcc/libgcc/soft-fp/adddf3.c:46 (discriminator 68)
800054d6:	00b7e6b3          	or	a3,a5,a1
800054da:	42068363          	beqz	a3,80005900 <__adddf3+0x56a>
/home/xl_ci/toolchain/riscv-gnu-toolchain/riscv-gcc/libgcc/soft-fp/adddf3.c:46 (discriminator 71)
800054de:	fff50693          	addi	a3,a0,-1
800054e2:	e699                	bnez	a3,800054f0 <__adddf3+0x15a>
/home/xl_ci/toolchain/riscv-gnu-toolchain/riscv-gcc/libgcc/soft-fp/adddf3.c:46 (discriminator 80)
800054e4:	95b2                	add	a1,a1,a2
800054e6:	97ba                	add	a5,a5,a4
800054e8:	00c5b633          	sltu	a2,a1,a2
800054ec:	97b2                	add	a5,a5,a2
800054ee:	bf29                	j	80005408 <__adddf3+0x72>
/home/xl_ci/toolchain/riscv-gnu-toolchain/riscv-gcc/libgcc/soft-fp/adddf3.c:46 (discriminator 81)
800054f0:	7ff00813          	li	a6,2047
800054f4:	01051d63          	bne	a0,a6,8000550e <__adddf3+0x178>
/home/xl_ci/toolchain/riscv-gnu-toolchain/riscv-gcc/libgcc/soft-fp/adddf3.c:45
800054f8:	87ba                	mv	a5,a4
800054fa:	85b2                	mv	a1,a2
800054fc:	bf21                	j	80005414 <__adddf3+0x7e>
/home/xl_ci/toolchain/riscv-gnu-toolchain/riscv-gcc/libgcc/soft-fp/adddf3.c:46 (discriminator 69)
800054fe:	7ff00693          	li	a3,2047
80005502:	fed30be3          	beq	t1,a3,800054f8 <__adddf3+0x162>
/home/xl_ci/toolchain/riscv-gnu-toolchain/riscv-gcc/libgcc/soft-fp/adddf3.c:46 (discriminator 95)
80005506:	008006b7          	lui	a3,0x800
8000550a:	8fd5                	or	a5,a5,a3
8000550c:	86aa                	mv	a3,a0
/home/xl_ci/toolchain/riscv-gnu-toolchain/riscv-gcc/libgcc/soft-fp/adddf3.c:46 (discriminator 104)
8000550e:	03800513          	li	a0,56
80005512:	06d54363          	blt	a0,a3,80005578 <__adddf3+0x1e2>
/home/xl_ci/toolchain/riscv-gnu-toolchain/riscv-gcc/libgcc/soft-fp/adddf3.c:46 (discriminator 105)
80005516:	457d                	li	a0,31
80005518:	02d54b63          	blt	a0,a3,8000554e <__adddf3+0x1b8>
/home/xl_ci/toolchain/riscv-gnu-toolchain/riscv-gcc/libgcc/soft-fp/adddf3.c:46 (discriminator 107)
8000551c:	02000813          	li	a6,32
80005520:	40d80833          	sub	a6,a6,a3
80005524:	01079533          	sll	a0,a5,a6
80005528:	00d5d8b3          	srl	a7,a1,a3
8000552c:	010595b3          	sll	a1,a1,a6
80005530:	01156533          	or	a0,a0,a7
80005534:	00b035b3          	snez	a1,a1
80005538:	8d4d                	or	a0,a0,a1
8000553a:	00d7d7b3          	srl	a5,a5,a3
/home/xl_ci/toolchain/riscv-gnu-toolchain/riscv-gcc/libgcc/soft-fp/adddf3.c:46 (discriminator 121)
8000553e:	00c505b3          	add	a1,a0,a2
80005542:	97ba                	add	a5,a5,a4
80005544:	00c5b633          	sltu	a2,a1,a2
80005548:	97b2                	add	a5,a5,a2
/home/xl_ci/toolchain/riscv-gnu-toolchain/riscv-gcc/libgcc/soft-fp/adddf3.c:45 (discriminator 121)
8000554a:	841a                	mv	s0,t1
8000554c:	bf31                	j	80005468 <__adddf3+0xd2>
/home/xl_ci/toolchain/riscv-gnu-toolchain/riscv-gcc/libgcc/soft-fp/adddf3.c:46 (discriminator 108)
8000554e:	fe068513          	addi	a0,a3,-32 # 7fffe0 <__stack_size+0x7ff7e0>
80005552:	02000893          	li	a7,32
80005556:	00a7d833          	srl	a6,a5,a0
8000555a:	4501                	li	a0,0
8000555c:	01168763          	beq	a3,a7,8000556a <__adddf3+0x1d4>
/home/xl_ci/toolchain/riscv-gnu-toolchain/riscv-gcc/libgcc/soft-fp/adddf3.c:46 (discriminator 115)
80005560:	04000513          	li	a0,64
80005564:	8d15                	sub	a0,a0,a3
80005566:	00a79533          	sll	a0,a5,a0
/home/xl_ci/toolchain/riscv-gnu-toolchain/riscv-gcc/libgcc/soft-fp/adddf3.c:46 (discriminator 118)
8000556a:	8d4d                	or	a0,a0,a1
8000556c:	00a03533          	snez	a0,a0
80005570:	00a86533          	or	a0,a6,a0
/home/xl_ci/toolchain/riscv-gnu-toolchain/riscv-gcc/libgcc/soft-fp/adddf3.c:46 (discriminator 106)
80005574:	4781                	li	a5,0
80005576:	b7e1                	j	8000553e <__adddf3+0x1a8>
80005578:	00b7e533          	or	a0,a5,a1
8000557c:	00a03533          	snez	a0,a0
80005580:	bfd5                	j	80005574 <__adddf3+0x1de>
/home/xl_ci/toolchain/riscv-gnu-toolchain/riscv-gcc/libgcc/soft-fp/adddf3.c:46 (discriminator 67)
80005582:	00140693          	addi	a3,s0,1
80005586:	7fe6f513          	andi	a0,a3,2046
8000558a:	e13d                	bnez	a0,800055f0 <__adddf3+0x25a>
/home/xl_ci/toolchain/riscv-gnu-toolchain/riscv-gcc/libgcc/soft-fp/adddf3.c:46 (discriminator 123)
8000558c:	00b7e6b3          	or	a3,a5,a1
80005590:	e429                	bnez	s0,800055da <__adddf3+0x244>
/home/xl_ci/toolchain/riscv-gnu-toolchain/riscv-gcc/libgcc/soft-fp/adddf3.c:46 (discriminator 125)
80005592:	36068b63          	beqz	a3,80005908 <__adddf3+0x572>
/home/xl_ci/toolchain/riscv-gnu-toolchain/riscv-gcc/libgcc/soft-fp/adddf3.c:46 (discriminator 128)
80005596:	00c766b3          	or	a3,a4,a2
8000559a:	c285                	beqz	a3,800055ba <__adddf3+0x224>
/home/xl_ci/toolchain/riscv-gnu-toolchain/riscv-gcc/libgcc/soft-fp/adddf3.c:46 (discriminator 134)
8000559c:	962e                	add	a2,a2,a1
8000559e:	97ba                	add	a5,a5,a4
800055a0:	00b63533          	sltu	a0,a2,a1
800055a4:	97aa                	add	a5,a5,a0
800055a6:	00800737          	lui	a4,0x800
800055aa:	8f7d                	and	a4,a4,a5
800055ac:	85b2                	mv	a1,a2
800055ae:	c711                	beqz	a4,800055ba <__adddf3+0x224>
/home/xl_ci/toolchain/riscv-gnu-toolchain/riscv-gcc/libgcc/soft-fp/adddf3.c:46 (discriminator 136)
800055b0:	ff800737          	lui	a4,0xff800
800055b4:	177d                	addi	a4,a4,-1
800055b6:	8ff9                	and	a5,a5,a4
800055b8:	4405                	li	s0,1
/home/xl_ci/toolchain/riscv-gnu-toolchain/riscv-gcc/libgcc/soft-fp/adddf3.c:47 (discriminator 421)
800055ba:	0075f713          	andi	a4,a1,7
800055be:	34070c63          	beqz	a4,80005916 <__adddf3+0x580>
/home/xl_ci/toolchain/riscv-gnu-toolchain/riscv-gcc/libgcc/soft-fp/adddf3.c:47 (discriminator 37)
800055c2:	00f5f713          	andi	a4,a1,15
800055c6:	4691                	li	a3,4
800055c8:	34d70763          	beq	a4,a3,80005916 <__adddf3+0x580>
/home/xl_ci/toolchain/riscv-gnu-toolchain/riscv-gcc/libgcc/soft-fp/adddf3.c:47 (discriminator 44)
800055cc:	00458713          	addi	a4,a1,4
800055d0:	00b73533          	sltu	a0,a4,a1
800055d4:	97aa                	add	a5,a5,a0
800055d6:	85ba                	mv	a1,a4
800055d8:	ae3d                	j	80005916 <__adddf3+0x580>
/home/xl_ci/toolchain/riscv-gnu-toolchain/riscv-gcc/libgcc/soft-fp/adddf3.c:46 (discriminator 153)
800055da:	de99                	beqz	a3,800054f8 <__adddf3+0x162>
/home/xl_ci/toolchain/riscv-gnu-toolchain/riscv-gcc/libgcc/soft-fp/adddf3.c:46 (discriminator 155)
800055dc:	8e59                	or	a2,a2,a4
800055de:	e2060be3          	beqz	a2,80005414 <__adddf3+0x7e>
/home/xl_ci/toolchain/riscv-gnu-toolchain/riscv-gcc/libgcc/soft-fp/adddf3.c:46
800055e2:	4481                	li	s1,0
800055e4:	004007b7          	lui	a5,0x400
800055e8:	4581                	li	a1,0
800055ea:	7ff00413          	li	s0,2047
800055ee:	a625                	j	80005916 <__adddf3+0x580>
/home/xl_ci/toolchain/riscv-gnu-toolchain/riscv-gcc/libgcc/soft-fp/adddf3.c:46 (discriminator 124)
800055f0:	7ff00513          	li	a0,2047
800055f4:	30a68d63          	beq	a3,a0,8000590e <__adddf3+0x578>
/home/xl_ci/toolchain/riscv-gnu-toolchain/riscv-gcc/libgcc/soft-fp/adddf3.c:46
800055f8:	962e                	add	a2,a2,a1
800055fa:	00b63533          	sltu	a0,a2,a1
800055fe:	97ba                	add	a5,a5,a4
80005600:	97aa                	add	a5,a5,a0
80005602:	01f79513          	slli	a0,a5,0x1f
80005606:	8205                	srli	a2,a2,0x1
80005608:	00c565b3          	or	a1,a0,a2
8000560c:	8385                	srli	a5,a5,0x1
8000560e:	8436                	mv	s0,a3
80005610:	b76d                	j	800055ba <__adddf3+0x224>
/home/xl_ci/toolchain/riscv-gnu-toolchain/riscv-gcc/libgcc/soft-fp/adddf3.c:46 (discriminator 8)
80005612:	0d005663          	blez	a6,800056de <__adddf3+0x348>
/home/xl_ci/toolchain/riscv-gnu-toolchain/riscv-gcc/libgcc/soft-fp/adddf3.c:46 (discriminator 200)
80005616:	08031163          	bnez	t1,80005698 <__adddf3+0x302>
/home/xl_ci/toolchain/riscv-gnu-toolchain/riscv-gcc/libgcc/soft-fp/adddf3.c:46 (discriminator 202)
8000561a:	00c766b3          	or	a3,a4,a2
8000561e:	34068d63          	beqz	a3,80005978 <__adddf3+0x5e2>
/home/xl_ci/toolchain/riscv-gnu-toolchain/riscv-gcc/libgcc/soft-fp/adddf3.c:46 (discriminator 205)
80005622:	fff80513          	addi	a0,a6,-1
80005626:	e911                	bnez	a0,8000563a <__adddf3+0x2a4>
/home/xl_ci/toolchain/riscv-gnu-toolchain/riscv-gcc/libgcc/soft-fp/adddf3.c:46 (discriminator 214)
80005628:	40c58633          	sub	a2,a1,a2
8000562c:	00c5b533          	sltu	a0,a1,a2
80005630:	8f99                	sub	a5,a5,a4
80005632:	8f89                	sub	a5,a5,a0
80005634:	85b2                	mv	a1,a2
/home/xl_ci/toolchain/riscv-gnu-toolchain/riscv-gcc/libgcc/soft-fp/adddf3.c:45 (discriminator 271)
80005636:	4405                	li	s0,1
/home/xl_ci/toolchain/riscv-gnu-toolchain/riscv-gcc/libgcc/soft-fp/adddf3.c:46 (discriminator 271)
80005638:	a0b1                	j	80005684 <__adddf3+0x2ee>
/home/xl_ci/toolchain/riscv-gnu-toolchain/riscv-gcc/libgcc/soft-fp/adddf3.c:46 (discriminator 215)
8000563a:	7ff00693          	li	a3,2047
8000563e:	dcd80be3          	beq	a6,a3,80005414 <__adddf3+0x7e>
/home/xl_ci/toolchain/riscv-gnu-toolchain/riscv-gcc/libgcc/soft-fp/adddf3.c:46 (discriminator 238)
80005642:	03800693          	li	a3,56
80005646:	08a6c863          	blt	a3,a0,800056d6 <__adddf3+0x340>
/home/xl_ci/toolchain/riscv-gnu-toolchain/riscv-gcc/libgcc/soft-fp/adddf3.c:46 (discriminator 239)
8000564a:	46fd                	li	a3,31
8000564c:	04a6cf63          	blt	a3,a0,800056aa <__adddf3+0x314>
/home/xl_ci/toolchain/riscv-gnu-toolchain/riscv-gcc/libgcc/soft-fp/adddf3.c:46 (discriminator 241)
80005650:	02000813          	li	a6,32
80005654:	40a80833          	sub	a6,a6,a0
80005658:	010716b3          	sll	a3,a4,a6
8000565c:	00a658b3          	srl	a7,a2,a0
80005660:	01061633          	sll	a2,a2,a6
80005664:	0116e6b3          	or	a3,a3,a7
80005668:	00c03633          	snez	a2,a2
8000566c:	8e55                	or	a2,a2,a3
8000566e:	00a75733          	srl	a4,a4,a0
/home/xl_ci/toolchain/riscv-gnu-toolchain/riscv-gcc/libgcc/soft-fp/adddf3.c:46 (discriminator 255)
80005672:	40c58633          	sub	a2,a1,a2
80005676:	00c5b533          	sltu	a0,a1,a2
8000567a:	40e78733          	sub	a4,a5,a4
8000567e:	40a707b3          	sub	a5,a4,a0
80005682:	85b2                	mv	a1,a2
/home/xl_ci/toolchain/riscv-gnu-toolchain/riscv-gcc/libgcc/soft-fp/adddf3.c:46 (discriminator 313)
80005684:	00800937          	lui	s2,0x800
80005688:	0127f733          	and	a4,a5,s2
8000568c:	d71d                	beqz	a4,800055ba <__adddf3+0x224>
/home/xl_ci/toolchain/riscv-gnu-toolchain/riscv-gcc/libgcc/soft-fp/adddf3.c:46 (discriminator 373)
8000568e:	197d                	addi	s2,s2,-1
80005690:	0127f933          	and	s2,a5,s2
80005694:	89ae                	mv	s3,a1
80005696:	aa5d                	j	8000584c <__adddf3+0x4b6>
/home/xl_ci/toolchain/riscv-gnu-toolchain/riscv-gcc/libgcc/soft-fp/adddf3.c:46 (discriminator 203)
80005698:	7ff00693          	li	a3,2047
8000569c:	f0d40fe3          	beq	s0,a3,800055ba <__adddf3+0x224>
/home/xl_ci/toolchain/riscv-gnu-toolchain/riscv-gcc/libgcc/soft-fp/adddf3.c:46 (discriminator 229)
800056a0:	008006b7          	lui	a3,0x800
800056a4:	8f55                	or	a4,a4,a3
800056a6:	8542                	mv	a0,a6
800056a8:	bf69                	j	80005642 <__adddf3+0x2ac>
/home/xl_ci/toolchain/riscv-gnu-toolchain/riscv-gcc/libgcc/soft-fp/adddf3.c:46 (discriminator 242)
800056aa:	fe050693          	addi	a3,a0,-32
800056ae:	02000893          	li	a7,32
800056b2:	00d756b3          	srl	a3,a4,a3
800056b6:	4801                	li	a6,0
800056b8:	01150863          	beq	a0,a7,800056c8 <__adddf3+0x332>
/home/xl_ci/toolchain/riscv-gnu-toolchain/riscv-gcc/libgcc/soft-fp/adddf3.c:46 (discriminator 249)
800056bc:	04000813          	li	a6,64
800056c0:	40a80533          	sub	a0,a6,a0
800056c4:	00a71833          	sll	a6,a4,a0
/home/xl_ci/toolchain/riscv-gnu-toolchain/riscv-gcc/libgcc/soft-fp/adddf3.c:46 (discriminator 252)
800056c8:	00c86633          	or	a2,a6,a2
800056cc:	00c03633          	snez	a2,a2
800056d0:	8e55                	or	a2,a2,a3
/home/xl_ci/toolchain/riscv-gnu-toolchain/riscv-gcc/libgcc/soft-fp/adddf3.c:46 (discriminator 240)
800056d2:	4701                	li	a4,0
800056d4:	bf79                	j	80005672 <__adddf3+0x2dc>
800056d6:	8e59                	or	a2,a2,a4
800056d8:	00c03633          	snez	a2,a2
800056dc:	bfdd                	j	800056d2 <__adddf3+0x33c>
/home/xl_ci/toolchain/riscv-gnu-toolchain/riscv-gcc/libgcc/soft-fp/adddf3.c:46 (discriminator 201)
800056de:	0c080563          	beqz	a6,800057a8 <__adddf3+0x412>
/home/xl_ci/toolchain/riscv-gnu-toolchain/riscv-gcc/libgcc/soft-fp/adddf3.c:46 (discriminator 257)
800056e2:	40830533          	sub	a0,t1,s0
800056e6:	e81d                	bnez	s0,8000571c <__adddf3+0x386>
/home/xl_ci/toolchain/riscv-gnu-toolchain/riscv-gcc/libgcc/soft-fp/adddf3.c:46 (discriminator 259)
800056e8:	00b7e833          	or	a6,a5,a1
800056ec:	28080863          	beqz	a6,8000597c <__adddf3+0x5e6>
/home/xl_ci/toolchain/riscv-gnu-toolchain/riscv-gcc/libgcc/soft-fp/adddf3.c:46 (discriminator 262)
800056f0:	fff50813          	addi	a6,a0,-1
800056f4:	00081b63          	bnez	a6,8000570a <__adddf3+0x374>
/home/xl_ci/toolchain/riscv-gnu-toolchain/riscv-gcc/libgcc/soft-fp/adddf3.c:46 (discriminator 271)
800056f8:	40b605b3          	sub	a1,a2,a1
800056fc:	40f707b3          	sub	a5,a4,a5
80005700:	00b63633          	sltu	a2,a2,a1
80005704:	8f91                	sub	a5,a5,a2
80005706:	84b6                	mv	s1,a3
80005708:	b73d                	j	80005636 <__adddf3+0x2a0>
/home/xl_ci/toolchain/riscv-gnu-toolchain/riscv-gcc/libgcc/soft-fp/adddf3.c:46 (discriminator 272)
8000570a:	7ff00893          	li	a7,2047
8000570e:	03151063          	bne	a0,a7,8000572e <__adddf3+0x398>
/home/xl_ci/toolchain/riscv-gnu-toolchain/riscv-gcc/libgcc/soft-fp/adddf3.c:45
80005712:	87ba                	mv	a5,a4
80005714:	85b2                	mv	a1,a2
/home/xl_ci/toolchain/riscv-gnu-toolchain/riscv-gcc/libgcc/soft-fp/adddf3.c:46
80005716:	7ff00413          	li	s0,2047
8000571a:	a07d                	j	800057c8 <__adddf3+0x432>
/home/xl_ci/toolchain/riscv-gnu-toolchain/riscv-gcc/libgcc/soft-fp/adddf3.c:46 (discriminator 260)
8000571c:	7ff00813          	li	a6,2047
80005720:	ff0309e3          	beq	t1,a6,80005712 <__adddf3+0x37c>
/home/xl_ci/toolchain/riscv-gnu-toolchain/riscv-gcc/libgcc/soft-fp/adddf3.c:46 (discriminator 286)
80005724:	00800837          	lui	a6,0x800
80005728:	0107e7b3          	or	a5,a5,a6
8000572c:	882a                	mv	a6,a0
/home/xl_ci/toolchain/riscv-gnu-toolchain/riscv-gcc/libgcc/soft-fp/adddf3.c:46 (discriminator 295)
8000572e:	03800513          	li	a0,56
80005732:	07054663          	blt	a0,a6,8000579e <__adddf3+0x408>
/home/xl_ci/toolchain/riscv-gnu-toolchain/riscv-gcc/libgcc/soft-fp/adddf3.c:46 (discriminator 296)
80005736:	457d                	li	a0,31
80005738:	03054d63          	blt	a0,a6,80005772 <__adddf3+0x3dc>
/home/xl_ci/toolchain/riscv-gnu-toolchain/riscv-gcc/libgcc/soft-fp/adddf3.c:46 (discriminator 298)
8000573c:	02000893          	li	a7,32
80005740:	410888b3          	sub	a7,a7,a6
80005744:	01179533          	sll	a0,a5,a7
80005748:	0105de33          	srl	t3,a1,a6
8000574c:	011595b3          	sll	a1,a1,a7
80005750:	01c56533          	or	a0,a0,t3
80005754:	00b035b3          	snez	a1,a1
80005758:	8d4d                	or	a0,a0,a1
8000575a:	0107d7b3          	srl	a5,a5,a6
/home/xl_ci/toolchain/riscv-gnu-toolchain/riscv-gcc/libgcc/soft-fp/adddf3.c:46 (discriminator 312)
8000575e:	40a605b3          	sub	a1,a2,a0
80005762:	40f707b3          	sub	a5,a4,a5
80005766:	00b63633          	sltu	a2,a2,a1
8000576a:	8f91                	sub	a5,a5,a2
/home/xl_ci/toolchain/riscv-gnu-toolchain/riscv-gcc/libgcc/soft-fp/adddf3.c:45 (discriminator 312)
8000576c:	841a                	mv	s0,t1
8000576e:	84b6                	mv	s1,a3
80005770:	bf11                	j	80005684 <__adddf3+0x2ee>
/home/xl_ci/toolchain/riscv-gnu-toolchain/riscv-gcc/libgcc/soft-fp/adddf3.c:46 (discriminator 299)
80005772:	fe080513          	addi	a0,a6,-32 # 7fffe0 <__stack_size+0x7ff7e0>
80005776:	02000e13          	li	t3,32
8000577a:	00a7d8b3          	srl	a7,a5,a0
8000577e:	4501                	li	a0,0
80005780:	01c80863          	beq	a6,t3,80005790 <__adddf3+0x3fa>
/home/xl_ci/toolchain/riscv-gnu-toolchain/riscv-gcc/libgcc/soft-fp/adddf3.c:46 (discriminator 306)
80005784:	04000513          	li	a0,64
80005788:	41050533          	sub	a0,a0,a6
8000578c:	00a79533          	sll	a0,a5,a0
/home/xl_ci/toolchain/riscv-gnu-toolchain/riscv-gcc/libgcc/soft-fp/adddf3.c:46 (discriminator 309)
80005790:	8d4d                	or	a0,a0,a1
80005792:	00a03533          	snez	a0,a0
80005796:	00a8e533          	or	a0,a7,a0
/home/xl_ci/toolchain/riscv-gnu-toolchain/riscv-gcc/libgcc/soft-fp/adddf3.c:46 (discriminator 297)
8000579a:	4781                	li	a5,0
8000579c:	b7c9                	j	8000575e <__adddf3+0x3c8>
8000579e:	00b7e533          	or	a0,a5,a1
800057a2:	00a03533          	snez	a0,a0
800057a6:	bfd5                	j	8000579a <__adddf3+0x404>
/home/xl_ci/toolchain/riscv-gnu-toolchain/riscv-gcc/libgcc/soft-fp/adddf3.c:46 (discriminator 258)
800057a8:	00140513          	addi	a0,s0,1
800057ac:	7fe57513          	andi	a0,a0,2046
800057b0:	e925                	bnez	a0,80005820 <__adddf3+0x48a>
/home/xl_ci/toolchain/riscv-gnu-toolchain/riscv-gcc/libgcc/soft-fp/adddf3.c:46 (discriminator 314)
800057b2:	00b7e833          	or	a6,a5,a1
800057b6:	00c76533          	or	a0,a4,a2
800057ba:	e821                	bnez	s0,8000580a <__adddf3+0x474>
/home/xl_ci/toolchain/riscv-gnu-toolchain/riscv-gcc/libgcc/soft-fp/adddf3.c:46 (discriminator 316)
800057bc:	00081863          	bnez	a6,800057cc <__adddf3+0x436>
/home/xl_ci/toolchain/riscv-gnu-toolchain/riscv-gcc/libgcc/soft-fp/adddf3.c:46 (discriminator 318)
800057c0:	1c050263          	beqz	a0,80005984 <__adddf3+0x5ee>
/home/xl_ci/toolchain/riscv-gnu-toolchain/riscv-gcc/libgcc/soft-fp/adddf3.c:45
800057c4:	87ba                	mv	a5,a4
800057c6:	85b2                	mv	a1,a2
800057c8:	84b6                	mv	s1,a3
800057ca:	bbc5                	j	800055ba <__adddf3+0x224>
/home/xl_ci/toolchain/riscv-gnu-toolchain/riscv-gcc/libgcc/soft-fp/adddf3.c:46 (discriminator 319)
800057cc:	de0507e3          	beqz	a0,800055ba <__adddf3+0x224>
/home/xl_ci/toolchain/riscv-gnu-toolchain/riscv-gcc/libgcc/soft-fp/adddf3.c:46 (discriminator 326)
800057d0:	40c58833          	sub	a6,a1,a2
800057d4:	0105b8b3          	sltu	a7,a1,a6
800057d8:	40e78533          	sub	a0,a5,a4
800057dc:	41150533          	sub	a0,a0,a7
800057e0:	008008b7          	lui	a7,0x800
800057e4:	011578b3          	and	a7,a0,a7
800057e8:	00088a63          	beqz	a7,800057fc <__adddf3+0x466>
/home/xl_ci/toolchain/riscv-gnu-toolchain/riscv-gcc/libgcc/soft-fp/adddf3.c:46 (discriminator 328)
800057ec:	40b605b3          	sub	a1,a2,a1
800057f0:	40f707b3          	sub	a5,a4,a5
800057f4:	00b63633          	sltu	a2,a2,a1
800057f8:	8f91                	sub	a5,a5,a2
800057fa:	b7f9                	j	800057c8 <__adddf3+0x432>
/home/xl_ci/toolchain/riscv-gnu-toolchain/riscv-gcc/libgcc/soft-fp/adddf3.c:46 (discriminator 329)
800057fc:	00a865b3          	or	a1,a6,a0
80005800:	18058663          	beqz	a1,8000598c <__adddf3+0x5f6>
/home/xl_ci/toolchain/riscv-gnu-toolchain/riscv-gcc/libgcc/soft-fp/adddf3.c:46
80005804:	87aa                	mv	a5,a0
80005806:	85c2                	mv	a1,a6
80005808:	bb4d                	j	800055ba <__adddf3+0x224>
/home/xl_ci/toolchain/riscv-gnu-toolchain/riscv-gcc/libgcc/soft-fp/adddf3.c:46 (discriminator 348)
8000580a:	00081863          	bnez	a6,8000581a <__adddf3+0x484>
/home/xl_ci/toolchain/riscv-gnu-toolchain/riscv-gcc/libgcc/soft-fp/adddf3.c:46 (discriminator 349)
8000580e:	18050163          	beqz	a0,80005990 <__adddf3+0x5fa>
/home/xl_ci/toolchain/riscv-gnu-toolchain/riscv-gcc/libgcc/soft-fp/adddf3.c:45
80005812:	87ba                	mv	a5,a4
80005814:	85b2                	mv	a1,a2
/home/xl_ci/toolchain/riscv-gnu-toolchain/riscv-gcc/libgcc/soft-fp/adddf3.c:46
80005816:	84b6                	mv	s1,a3
80005818:	bef5                	j	80005414 <__adddf3+0x7e>
/home/xl_ci/toolchain/riscv-gnu-toolchain/riscv-gcc/libgcc/soft-fp/adddf3.c:46 (discriminator 350)
8000581a:	be050de3          	beqz	a0,80005414 <__adddf3+0x7e>
8000581e:	b3d1                	j	800055e2 <__adddf3+0x24c>
/home/xl_ci/toolchain/riscv-gnu-toolchain/riscv-gcc/libgcc/soft-fp/adddf3.c:46 (discriminator 315)
80005820:	40c589b3          	sub	s3,a1,a2
80005824:	0135b533          	sltu	a0,a1,s3
80005828:	40e78933          	sub	s2,a5,a4
8000582c:	40a90933          	sub	s2,s2,a0
80005830:	00800537          	lui	a0,0x800
80005834:	00a97533          	and	a0,s2,a0
80005838:	c925                	beqz	a0,800058a8 <__adddf3+0x512>
/home/xl_ci/toolchain/riscv-gnu-toolchain/riscv-gcc/libgcc/soft-fp/adddf3.c:46 (discriminator 366)
8000583a:	40b609b3          	sub	s3,a2,a1
8000583e:	40f707b3          	sub	a5,a4,a5
80005842:	01363633          	sltu	a2,a2,s3
80005846:	40c78933          	sub	s2,a5,a2
8000584a:	84b6                	mv	s1,a3
/home/xl_ci/toolchain/riscv-gnu-toolchain/riscv-gcc/libgcc/soft-fp/adddf3.c:46 (discriminator 375)
8000584c:	06090463          	beqz	s2,800058b4 <__adddf3+0x51e>
/home/xl_ci/toolchain/riscv-gnu-toolchain/riscv-gcc/libgcc/soft-fp/adddf3.c:46 (discriminator 378)
80005850:	854a                	mv	a0,s2
80005852:	62c010ef          	jal	ra,80006e7e <__clzsi2>
/home/xl_ci/toolchain/riscv-gnu-toolchain/riscv-gcc/libgcc/soft-fp/adddf3.c:46 (discriminator 392)
80005856:	ff850713          	addi	a4,a0,-8 # 7ffff8 <__stack_size+0x7ff7f8>
8000585a:	47fd                	li	a5,31
8000585c:	06e7c263          	blt	a5,a4,800058c0 <__adddf3+0x52a>
/home/xl_ci/toolchain/riscv-gnu-toolchain/riscv-gcc/libgcc/soft-fp/adddf3.c:46 (discriminator 398)
80005860:	02000793          	li	a5,32
80005864:	8f99                	sub	a5,a5,a4
80005866:	00e91933          	sll	s2,s2,a4
8000586a:	00f9d7b3          	srl	a5,s3,a5
8000586e:	0127e7b3          	or	a5,a5,s2
80005872:	00e995b3          	sll	a1,s3,a4
/home/xl_ci/toolchain/riscv-gnu-toolchain/riscv-gcc/libgcc/soft-fp/adddf3.c:46 (discriminator 402)
80005876:	06874f63          	blt	a4,s0,800058f4 <__adddf3+0x55e>
/home/xl_ci/toolchain/riscv-gnu-toolchain/riscv-gcc/libgcc/soft-fp/adddf3.c:46 (discriminator 403)
8000587a:	8f01                	sub	a4,a4,s0
8000587c:	00170693          	addi	a3,a4,1 # ff800001 <_sp+0x6f7f0001>
80005880:	467d                	li	a2,31
80005882:	04d64563          	blt	a2,a3,800058cc <__adddf3+0x536>
/home/xl_ci/toolchain/riscv-gnu-toolchain/riscv-gcc/libgcc/soft-fp/adddf3.c:46 (discriminator 405)
80005886:	02000713          	li	a4,32
8000588a:	8f15                	sub	a4,a4,a3
8000588c:	00e79633          	sll	a2,a5,a4
80005890:	00d5d533          	srl	a0,a1,a3
80005894:	00e595b3          	sll	a1,a1,a4
80005898:	8e49                	or	a2,a2,a0
8000589a:	00b035b3          	snez	a1,a1
8000589e:	8dd1                	or	a1,a1,a2
800058a0:	00d7d7b3          	srl	a5,a5,a3
/home/xl_ci/toolchain/riscv-gnu-toolchain/riscv-gcc/libgcc/soft-fp/adddf3.c:46 (discriminator 417)
800058a4:	4401                	li	s0,0
800058a6:	bb11                	j	800055ba <__adddf3+0x224>
/home/xl_ci/toolchain/riscv-gnu-toolchain/riscv-gcc/libgcc/soft-fp/adddf3.c:46 (discriminator 367)
800058a8:	0129e5b3          	or	a1,s3,s2
800058ac:	f1c5                	bnez	a1,8000584c <__adddf3+0x4b6>
800058ae:	4781                	li	a5,0
/home/xl_ci/toolchain/riscv-gnu-toolchain/riscv-gcc/libgcc/soft-fp/adddf3.c:46
800058b0:	4401                	li	s0,0
800058b2:	a8d9                	j	80005988 <__adddf3+0x5f2>
/home/xl_ci/toolchain/riscv-gnu-toolchain/riscv-gcc/libgcc/soft-fp/adddf3.c:46 (discriminator 385)
800058b4:	854e                	mv	a0,s3
800058b6:	5c8010ef          	jal	ra,80006e7e <__clzsi2>
800058ba:	02050513          	addi	a0,a0,32
800058be:	bf61                	j	80005856 <__adddf3+0x4c0>
/home/xl_ci/toolchain/riscv-gnu-toolchain/riscv-gcc/libgcc/soft-fp/adddf3.c:46 (discriminator 394)
800058c0:	fd850793          	addi	a5,a0,-40
800058c4:	00f997b3          	sll	a5,s3,a5
800058c8:	4581                	li	a1,0
800058ca:	b775                	j	80005876 <__adddf3+0x4e0>
/home/xl_ci/toolchain/riscv-gnu-toolchain/riscv-gcc/libgcc/soft-fp/adddf3.c:46 (discriminator 406)
800058cc:	1705                	addi	a4,a4,-31
800058ce:	02000613          	li	a2,32
800058d2:	00e7d733          	srl	a4,a5,a4
800058d6:	4501                	li	a0,0
800058d8:	00c68763          	beq	a3,a2,800058e6 <__adddf3+0x550>
/home/xl_ci/toolchain/riscv-gnu-toolchain/riscv-gcc/libgcc/soft-fp/adddf3.c:46 (discriminator 414)
800058dc:	04000513          	li	a0,64
800058e0:	8d15                	sub	a0,a0,a3
800058e2:	00a79533          	sll	a0,a5,a0
/home/xl_ci/toolchain/riscv-gnu-toolchain/riscv-gcc/libgcc/soft-fp/adddf3.c:46 (discriminator 417)
800058e6:	8d4d                	or	a0,a0,a1
800058e8:	00a03533          	snez	a0,a0
800058ec:	00a765b3          	or	a1,a4,a0
800058f0:	4781                	li	a5,0
800058f2:	bf4d                	j	800058a4 <__adddf3+0x50e>
/home/xl_ci/toolchain/riscv-gnu-toolchain/riscv-gcc/libgcc/soft-fp/adddf3.c:46 (discriminator 404)
800058f4:	8c19                	sub	s0,s0,a4
800058f6:	ff800737          	lui	a4,0xff800
800058fa:	177d                	addi	a4,a4,-1
800058fc:	8ff9                	and	a5,a5,a4
800058fe:	b975                	j	800055ba <__adddf3+0x224>
/home/xl_ci/toolchain/riscv-gnu-toolchain/riscv-gcc/libgcc/soft-fp/adddf3.c:45
80005900:	87ba                	mv	a5,a4
80005902:	85b2                	mv	a1,a2
/home/xl_ci/toolchain/riscv-gnu-toolchain/riscv-gcc/libgcc/soft-fp/adddf3.c:46
80005904:	842a                	mv	s0,a0
80005906:	b955                	j	800055ba <__adddf3+0x224>
/home/xl_ci/toolchain/riscv-gnu-toolchain/riscv-gcc/libgcc/soft-fp/adddf3.c:45
80005908:	87ba                	mv	a5,a4
8000590a:	85b2                	mv	a1,a2
8000590c:	b17d                	j	800055ba <__adddf3+0x224>
8000590e:	7ff00413          	li	s0,2047
80005912:	4781                	li	a5,0
80005914:	4581                	li	a1,0
/home/xl_ci/toolchain/riscv-gnu-toolchain/riscv-gcc/libgcc/soft-fp/adddf3.c:47 (discriminator 47)
80005916:	00800737          	lui	a4,0x800
8000591a:	8f7d                	and	a4,a4,a5
8000591c:	cb11                	beqz	a4,80005930 <__adddf3+0x59a>
/home/xl_ci/toolchain/riscv-gnu-toolchain/riscv-gcc/libgcc/soft-fp/adddf3.c:47 (discriminator 63)
8000591e:	0405                	addi	s0,s0,1
80005920:	7ff00713          	li	a4,2047
80005924:	06e40b63          	beq	s0,a4,8000599a <__adddf3+0x604>
/home/xl_ci/toolchain/riscv-gnu-toolchain/riscv-gcc/libgcc/soft-fp/adddf3.c:47
80005928:	ff800737          	lui	a4,0xff800
8000592c:	177d                	addi	a4,a4,-1
8000592e:	8ff9                	and	a5,a5,a4
/home/xl_ci/toolchain/riscv-gnu-toolchain/riscv-gcc/libgcc/soft-fp/adddf3.c:47 (discriminator 79)
80005930:	01d79713          	slli	a4,a5,0x1d
80005934:	0035d513          	srli	a0,a1,0x3
80005938:	8d59                	or	a0,a0,a4
8000593a:	7ff00713          	li	a4,2047
8000593e:	838d                	srli	a5,a5,0x3
80005940:	00e41963          	bne	s0,a4,80005952 <__adddf3+0x5bc>
/home/xl_ci/toolchain/riscv-gnu-toolchain/riscv-gcc/libgcc/soft-fp/adddf3.c:47 (discriminator 80)
80005944:	8d5d                	or	a0,a0,a5
80005946:	4781                	li	a5,0
80005948:	c509                	beqz	a0,80005952 <__adddf3+0x5bc>
/home/xl_ci/toolchain/riscv-gnu-toolchain/riscv-gcc/libgcc/soft-fp/adddf3.c:47
8000594a:	000807b7          	lui	a5,0x80
8000594e:	4501                	li	a0,0
80005950:	4481                	li	s1,0
/home/xl_ci/toolchain/riscv-gnu-toolchain/riscv-gcc/libgcc/soft-fp/adddf3.c:47 (discriminator 90)
80005952:	01441713          	slli	a4,s0,0x14
80005956:	7ff006b7          	lui	a3,0x7ff00
8000595a:	07b2                	slli	a5,a5,0xc
/home/xl_ci/toolchain/riscv-gnu-toolchain/riscv-gcc/libgcc/soft-fp/adddf3.c:51 (discriminator 90)
8000595c:	40f2                	lw	ra,28(sp)
8000595e:	4462                	lw	s0,24(sp)
/home/xl_ci/toolchain/riscv-gnu-toolchain/riscv-gcc/libgcc/soft-fp/adddf3.c:47 (discriminator 90)
80005960:	8f75                	and	a4,a4,a3
80005962:	83b1                	srli	a5,a5,0xc
80005964:	04fe                	slli	s1,s1,0x1f
80005966:	8fd9                	or	a5,a5,a4
80005968:	0097e733          	or	a4,a5,s1
/home/xl_ci/toolchain/riscv-gnu-toolchain/riscv-gcc/libgcc/soft-fp/adddf3.c:51 (discriminator 90)
8000596c:	4942                	lw	s2,16(sp)
8000596e:	44d2                	lw	s1,20(sp)
80005970:	49b2                	lw	s3,12(sp)
80005972:	85ba                	mv	a1,a4
80005974:	6105                	addi	sp,sp,32
80005976:	8082                	ret
80005978:	8442                	mv	s0,a6
8000597a:	b181                	j	800055ba <__adddf3+0x224>
/home/xl_ci/toolchain/riscv-gnu-toolchain/riscv-gcc/libgcc/soft-fp/adddf3.c:45
8000597c:	87ba                	mv	a5,a4
8000597e:	85b2                	mv	a1,a2
/home/xl_ci/toolchain/riscv-gnu-toolchain/riscv-gcc/libgcc/soft-fp/adddf3.c:46
80005980:	842a                	mv	s0,a0
80005982:	b599                	j	800057c8 <__adddf3+0x432>
80005984:	4781                	li	a5,0
80005986:	4581                	li	a1,0
80005988:	4481                	li	s1,0
8000598a:	b771                	j	80005916 <__adddf3+0x580>
8000598c:	4781                	li	a5,0
8000598e:	bfed                	j	80005988 <__adddf3+0x5f2>
80005990:	4581                	li	a1,0
80005992:	4481                	li	s1,0
80005994:	004007b7          	lui	a5,0x400
80005998:	b989                	j	800055ea <__adddf3+0x254>
8000599a:	4781                	li	a5,0
8000599c:	4581                	li	a1,0
8000599e:	bf49                	j	80005930 <__adddf3+0x59a>

800059a0 <__divdf3>:
__divdf3():
/home/xl_ci/toolchain/riscv-gnu-toolchain/riscv-gcc/libgcc/soft-fp/divdf3.c:36
800059a0:	7179                	addi	sp,sp,-48
800059a2:	d04a                	sw	s2,32(sp)
/home/xl_ci/toolchain/riscv-gnu-toolchain/riscv-gcc/libgcc/soft-fp/divdf3.c:44
800059a4:	0145d913          	srli	s2,a1,0x14
/home/xl_ci/toolchain/riscv-gnu-toolchain/riscv-gcc/libgcc/soft-fp/divdf3.c:36
800059a8:	d226                	sw	s1,36(sp)
800059aa:	ce4e                	sw	s3,28(sp)
800059ac:	cc52                	sw	s4,24(sp)
800059ae:	c85a                	sw	s6,16(sp)
800059b0:	c462                	sw	s8,8(sp)
/home/xl_ci/toolchain/riscv-gnu-toolchain/riscv-gcc/libgcc/soft-fp/divdf3.c:44
800059b2:	00c59493          	slli	s1,a1,0xc
/home/xl_ci/toolchain/riscv-gnu-toolchain/riscv-gcc/libgcc/soft-fp/divdf3.c:36
800059b6:	d606                	sw	ra,44(sp)
800059b8:	d422                	sw	s0,40(sp)
800059ba:	ca56                	sw	s5,20(sp)
800059bc:	c65e                	sw	s7,12(sp)
/home/xl_ci/toolchain/riscv-gnu-toolchain/riscv-gcc/libgcc/soft-fp/divdf3.c:44
800059be:	7ff97913          	andi	s2,s2,2047
/home/xl_ci/toolchain/riscv-gnu-toolchain/riscv-gcc/libgcc/soft-fp/divdf3.c:36
800059c2:	8a2a                	mv	s4,a0
800059c4:	8b32                	mv	s6,a2
800059c6:	8c36                	mv	s8,a3
/home/xl_ci/toolchain/riscv-gnu-toolchain/riscv-gcc/libgcc/soft-fp/divdf3.c:44
800059c8:	80b1                	srli	s1,s1,0xc
800059ca:	01f5d993          	srli	s3,a1,0x1f
800059ce:	08090463          	beqz	s2,80005a56 <__divdf3+0xb6>
800059d2:	7ff00793          	li	a5,2047
800059d6:	0cf90a63          	beq	s2,a5,80005aaa <__divdf3+0x10a>
/home/xl_ci/toolchain/riscv-gnu-toolchain/riscv-gcc/libgcc/soft-fp/divdf3.c:44 (discriminator 1)
800059da:	01d55a93          	srli	s5,a0,0x1d
800059de:	048e                	slli	s1,s1,0x3
800059e0:	009ae4b3          	or	s1,s5,s1
800059e4:	00800ab7          	lui	s5,0x800
800059e8:	0154eab3          	or	s5,s1,s5
800059ec:	00351413          	slli	s0,a0,0x3
800059f0:	c0190913          	addi	s2,s2,-1023 # 7ffc01 <__stack_size+0x7ff401>
/home/xl_ci/toolchain/riscv-gnu-toolchain/riscv-gcc/libgcc/soft-fp/divdf3.c:44 (discriminator 41)
800059f4:	4b81                	li	s7,0
/home/xl_ci/toolchain/riscv-gnu-toolchain/riscv-gcc/libgcc/soft-fp/divdf3.c:45 (discriminator 8)
800059f6:	00cc1513          	slli	a0,s8,0xc
800059fa:	00c55493          	srli	s1,a0,0xc
800059fe:	014c5513          	srli	a0,s8,0x14
80005a02:	7ff57593          	andi	a1,a0,2047
80005a06:	01fc5c13          	srli	s8,s8,0x1f
80005a0a:	c1f9                	beqz	a1,80005ad0 <__divdf3+0x130>
/home/xl_ci/toolchain/riscv-gnu-toolchain/riscv-gcc/libgcc/soft-fp/divdf3.c:45
80005a0c:	7ff00793          	li	a5,2047
80005a10:	10f58b63          	beq	a1,a5,80005b26 <__divdf3+0x186>
/home/xl_ci/toolchain/riscv-gnu-toolchain/riscv-gcc/libgcc/soft-fp/divdf3.c:45 (discriminator 1)
80005a14:	00349513          	slli	a0,s1,0x3
80005a18:	01db5793          	srli	a5,s6,0x1d
80005a1c:	8d5d                	or	a0,a0,a5
80005a1e:	008004b7          	lui	s1,0x800
80005a22:	8cc9                	or	s1,s1,a0
80005a24:	003b1f93          	slli	t6,s6,0x3
80005a28:	c0158513          	addi	a0,a1,-1023
/home/xl_ci/toolchain/riscv-gnu-toolchain/riscv-gcc/libgcc/soft-fp/divdf3.c:45 (discriminator 41)
80005a2c:	4781                	li	a5,0
/home/xl_ci/toolchain/riscv-gnu-toolchain/riscv-gcc/libgcc/soft-fp/divdf3.c:46 (discriminator 8)
80005a2e:	002b9713          	slli	a4,s7,0x2
80005a32:	8f5d                	or	a4,a4,a5
80005a34:	177d                	addi	a4,a4,-1
80005a36:	4639                	li	a2,14
80005a38:	0189c6b3          	xor	a3,s3,s8
80005a3c:	40a905b3          	sub	a1,s2,a0
80005a40:	10e66563          	bltu	a2,a4,80005b4a <__divdf3+0x1aa>
80005a44:	00002617          	auipc	a2,0x2
80005a48:	db860613          	addi	a2,a2,-584 # 800077fc <_ctype_+0x104>
80005a4c:	070a                	slli	a4,a4,0x2
80005a4e:	9732                	add	a4,a4,a2
80005a50:	4318                	lw	a4,0(a4)
80005a52:	9732                	add	a4,a4,a2
80005a54:	8702                	jr	a4
/home/xl_ci/toolchain/riscv-gnu-toolchain/riscv-gcc/libgcc/soft-fp/divdf3.c:44 (discriminator 2)
80005a56:	00a4eab3          	or	s5,s1,a0
80005a5a:	060a8263          	beqz	s5,80005abe <__divdf3+0x11e>
/home/xl_ci/toolchain/riscv-gnu-toolchain/riscv-gcc/libgcc/soft-fp/divdf3.c:44 (discriminator 13)
80005a5e:	c89d                	beqz	s1,80005a94 <__divdf3+0xf4>
/home/xl_ci/toolchain/riscv-gnu-toolchain/riscv-gcc/libgcc/soft-fp/divdf3.c:44 (discriminator 17)
80005a60:	8526                	mv	a0,s1
80005a62:	41c010ef          	jal	ra,80006e7e <__clzsi2>
/home/xl_ci/toolchain/riscv-gnu-toolchain/riscv-gcc/libgcc/soft-fp/divdf3.c:44 (discriminator 31)
80005a66:	ff550793          	addi	a5,a0,-11
80005a6a:	4771                	li	a4,28
80005a6c:	02f74963          	blt	a4,a5,80005a9e <__divdf3+0xfe>
/home/xl_ci/toolchain/riscv-gnu-toolchain/riscv-gcc/libgcc/soft-fp/divdf3.c:44 (discriminator 32)
80005a70:	4af5                	li	s5,29
80005a72:	ff850413          	addi	s0,a0,-8
80005a76:	40fa8ab3          	sub	s5,s5,a5
80005a7a:	008494b3          	sll	s1,s1,s0
80005a7e:	015a5ab3          	srl	s5,s4,s5
80005a82:	009aeab3          	or	s5,s5,s1
80005a86:	008a1433          	sll	s0,s4,s0
/home/xl_ci/toolchain/riscv-gnu-toolchain/riscv-gcc/libgcc/soft-fp/divdf3.c:44 (discriminator 41)
80005a8a:	c0d00593          	li	a1,-1011
80005a8e:	40a58933          	sub	s2,a1,a0
80005a92:	b78d                	j	800059f4 <__divdf3+0x54>
/home/xl_ci/toolchain/riscv-gnu-toolchain/riscv-gcc/libgcc/soft-fp/divdf3.c:44 (discriminator 24)
80005a94:	3ea010ef          	jal	ra,80006e7e <__clzsi2>
80005a98:	02050513          	addi	a0,a0,32
80005a9c:	b7e9                	j	80005a66 <__divdf3+0xc6>
/home/xl_ci/toolchain/riscv-gnu-toolchain/riscv-gcc/libgcc/soft-fp/divdf3.c:44 (discriminator 33)
80005a9e:	fd850493          	addi	s1,a0,-40
80005aa2:	009a1ab3          	sll	s5,s4,s1
80005aa6:	4401                	li	s0,0
80005aa8:	b7cd                	j	80005a8a <__divdf3+0xea>
/home/xl_ci/toolchain/riscv-gnu-toolchain/riscv-gcc/libgcc/soft-fp/divdf3.c:44 (discriminator 3)
80005aaa:	00a4eab3          	or	s5,s1,a0
80005aae:	000a8c63          	beqz	s5,80005ac6 <__divdf3+0x126>
80005ab2:	842a                	mv	s0,a0
/home/xl_ci/toolchain/riscv-gnu-toolchain/riscv-gcc/libgcc/soft-fp/divdf3.c:44
80005ab4:	8aa6                	mv	s5,s1
80005ab6:	7ff00913          	li	s2,2047
80005aba:	4b8d                	li	s7,3
80005abc:	bf2d                	j	800059f6 <__divdf3+0x56>
80005abe:	4401                	li	s0,0
80005ac0:	4901                	li	s2,0
80005ac2:	4b85                	li	s7,1
80005ac4:	bf0d                	j	800059f6 <__divdf3+0x56>
80005ac6:	4401                	li	s0,0
80005ac8:	7ff00913          	li	s2,2047
80005acc:	4b89                	li	s7,2
80005ace:	b725                	j	800059f6 <__divdf3+0x56>
/home/xl_ci/toolchain/riscv-gnu-toolchain/riscv-gcc/libgcc/soft-fp/divdf3.c:45 (discriminator 2)
80005ad0:	0164efb3          	or	t6,s1,s6
80005ad4:	060f8263          	beqz	t6,80005b38 <__divdf3+0x198>
/home/xl_ci/toolchain/riscv-gnu-toolchain/riscv-gcc/libgcc/soft-fp/divdf3.c:45 (discriminator 13)
80005ad8:	c89d                	beqz	s1,80005b0e <__divdf3+0x16e>
/home/xl_ci/toolchain/riscv-gnu-toolchain/riscv-gcc/libgcc/soft-fp/divdf3.c:45 (discriminator 17)
80005ada:	8526                	mv	a0,s1
80005adc:	3a2010ef          	jal	ra,80006e7e <__clzsi2>
80005ae0:	85aa                	mv	a1,a0
/home/xl_ci/toolchain/riscv-gnu-toolchain/riscv-gcc/libgcc/soft-fp/divdf3.c:45 (discriminator 31)
80005ae2:	ff558793          	addi	a5,a1,-11
80005ae6:	4771                	li	a4,28
80005ae8:	02f74963          	blt	a4,a5,80005b1a <__divdf3+0x17a>
/home/xl_ci/toolchain/riscv-gnu-toolchain/riscv-gcc/libgcc/soft-fp/divdf3.c:45 (discriminator 32)
80005aec:	46f5                	li	a3,29
80005aee:	ff858f93          	addi	t6,a1,-8
80005af2:	8e9d                	sub	a3,a3,a5
80005af4:	01f49533          	sll	a0,s1,t6
80005af8:	00db56b3          	srl	a3,s6,a3
80005afc:	00a6e4b3          	or	s1,a3,a0
80005b00:	01fb1fb3          	sll	t6,s6,t6
/home/xl_ci/toolchain/riscv-gnu-toolchain/riscv-gcc/libgcc/soft-fp/divdf3.c:45 (discriminator 41)
80005b04:	c0d00693          	li	a3,-1011
80005b08:	40b68533          	sub	a0,a3,a1
80005b0c:	b705                	j	80005a2c <__divdf3+0x8c>
/home/xl_ci/toolchain/riscv-gnu-toolchain/riscv-gcc/libgcc/soft-fp/divdf3.c:45 (discriminator 24)
80005b0e:	855a                	mv	a0,s6
80005b10:	36e010ef          	jal	ra,80006e7e <__clzsi2>
80005b14:	02050593          	addi	a1,a0,32
80005b18:	b7e9                	j	80005ae2 <__divdf3+0x142>
/home/xl_ci/toolchain/riscv-gnu-toolchain/riscv-gcc/libgcc/soft-fp/divdf3.c:45 (discriminator 33)
80005b1a:	fd858513          	addi	a0,a1,-40
80005b1e:	00ab14b3          	sll	s1,s6,a0
80005b22:	4f81                	li	t6,0
80005b24:	b7c5                	j	80005b04 <__divdf3+0x164>
/home/xl_ci/toolchain/riscv-gnu-toolchain/riscv-gcc/libgcc/soft-fp/divdf3.c:45 (discriminator 3)
80005b26:	0164efb3          	or	t6,s1,s6
80005b2a:	000f8b63          	beqz	t6,80005b40 <__divdf3+0x1a0>
/home/xl_ci/toolchain/riscv-gnu-toolchain/riscv-gcc/libgcc/soft-fp/divdf3.c:45
80005b2e:	8fda                	mv	t6,s6
80005b30:	7ff00513          	li	a0,2047
80005b34:	478d                	li	a5,3
80005b36:	bde5                	j	80005a2e <__divdf3+0x8e>
80005b38:	4481                	li	s1,0
80005b3a:	4501                	li	a0,0
80005b3c:	4785                	li	a5,1
80005b3e:	bdc5                	j	80005a2e <__divdf3+0x8e>
80005b40:	4481                	li	s1,0
80005b42:	7ff00513          	li	a0,2047
80005b46:	4789                	li	a5,2
80005b48:	b5dd                	j	80005a2e <__divdf3+0x8e>
/home/xl_ci/toolchain/riscv-gnu-toolchain/riscv-gcc/libgcc/soft-fp/divdf3.c:46 (discriminator 2)
80005b4a:	0154e663          	bltu	s1,s5,80005b56 <__divdf3+0x1b6>
/home/xl_ci/toolchain/riscv-gnu-toolchain/riscv-gcc/libgcc/soft-fp/divdf3.c:46 (discriminator 11)
80005b4e:	2a9a9663          	bne	s5,s1,80005dfa <__divdf3+0x45a>
/home/xl_ci/toolchain/riscv-gnu-toolchain/riscv-gcc/libgcc/soft-fp/divdf3.c:46 (discriminator 12)
80005b52:	2bf46463          	bltu	s0,t6,80005dfa <__divdf3+0x45a>
/home/xl_ci/toolchain/riscv-gnu-toolchain/riscv-gcc/libgcc/soft-fp/divdf3.c:46 (discriminator 14)
80005b56:	01fa9613          	slli	a2,s5,0x1f
80005b5a:	00145713          	srli	a4,s0,0x1
80005b5e:	01f41793          	slli	a5,s0,0x1f
80005b62:	001ada93          	srli	s5,s5,0x1
80005b66:	00e66433          	or	s0,a2,a4
/home/xl_ci/toolchain/riscv-gnu-toolchain/riscv-gcc/libgcc/soft-fp/divdf3.c:46 (discriminator 19)
80005b6a:	00849513          	slli	a0,s1,0x8
80005b6e:	018fd893          	srli	a7,t6,0x18
80005b72:	00a8e8b3          	or	a7,a7,a0
80005b76:	8141                	srli	a0,a0,0x10
80005b78:	02aade33          	divu	t3,s5,a0
80005b7c:	01089e93          	slli	t4,a7,0x10
80005b80:	010ede93          	srli	t4,t4,0x10
80005b84:	01045713          	srli	a4,s0,0x10
80005b88:	008f9313          	slli	t1,t6,0x8
80005b8c:	02aafab3          	remu	s5,s5,a0
80005b90:	8672                	mv	a2,t3
80005b92:	03ce8833          	mul	a6,t4,t3
80005b96:	0ac2                	slli	s5,s5,0x10
80005b98:	01576733          	or	a4,a4,s5
80005b9c:	01077c63          	bgeu	a4,a6,80005bb4 <__divdf3+0x214>
/home/xl_ci/toolchain/riscv-gnu-toolchain/riscv-gcc/libgcc/soft-fp/divdf3.c:46 (discriminator 22)
80005ba0:	9746                	add	a4,a4,a7
80005ba2:	fffe0613          	addi	a2,t3,-1 # ffff <__stack_size+0xf7ff>
80005ba6:	01176763          	bltu	a4,a7,80005bb4 <__divdf3+0x214>
/home/xl_ci/toolchain/riscv-gnu-toolchain/riscv-gcc/libgcc/soft-fp/divdf3.c:46 (discriminator 24)
80005baa:	01077563          	bgeu	a4,a6,80005bb4 <__divdf3+0x214>
/home/xl_ci/toolchain/riscv-gnu-toolchain/riscv-gcc/libgcc/soft-fp/divdf3.c:46 (discriminator 26)
80005bae:	ffee0613          	addi	a2,t3,-2
80005bb2:	9746                	add	a4,a4,a7
/home/xl_ci/toolchain/riscv-gnu-toolchain/riscv-gcc/libgcc/soft-fp/divdf3.c:46 (discriminator 28)
80005bb4:	41070733          	sub	a4,a4,a6
80005bb8:	02a75e33          	divu	t3,a4,a0
80005bbc:	0442                	slli	s0,s0,0x10
80005bbe:	8041                	srli	s0,s0,0x10
80005bc0:	02a77733          	remu	a4,a4,a0
80005bc4:	82f2                	mv	t0,t3
80005bc6:	03ce8833          	mul	a6,t4,t3
80005bca:	0742                	slli	a4,a4,0x10
80005bcc:	8f41                	or	a4,a4,s0
80005bce:	01077c63          	bgeu	a4,a6,80005be6 <__divdf3+0x246>
/home/xl_ci/toolchain/riscv-gnu-toolchain/riscv-gcc/libgcc/soft-fp/divdf3.c:46 (discriminator 29)
80005bd2:	9746                	add	a4,a4,a7
80005bd4:	fffe0293          	addi	t0,t3,-1
80005bd8:	01176763          	bltu	a4,a7,80005be6 <__divdf3+0x246>
/home/xl_ci/toolchain/riscv-gnu-toolchain/riscv-gcc/libgcc/soft-fp/divdf3.c:46 (discriminator 31)
80005bdc:	01077563          	bgeu	a4,a6,80005be6 <__divdf3+0x246>
/home/xl_ci/toolchain/riscv-gnu-toolchain/riscv-gcc/libgcc/soft-fp/divdf3.c:46 (discriminator 33)
80005be0:	ffee0293          	addi	t0,t3,-2
80005be4:	9746                	add	a4,a4,a7
/home/xl_ci/toolchain/riscv-gnu-toolchain/riscv-gcc/libgcc/soft-fp/divdf3.c:46 (discriminator 35)
80005be6:	41070433          	sub	s0,a4,a6
80005bea:	0642                	slli	a2,a2,0x10
80005bec:	6841                	lui	a6,0x10
80005bee:	005662b3          	or	t0,a2,t0
80005bf2:	fff80e13          	addi	t3,a6,-1 # ffff <__stack_size+0xf7ff>
80005bf6:	0102d613          	srli	a2,t0,0x10
80005bfa:	01c2f733          	and	a4,t0,t3
80005bfe:	01035f13          	srli	t5,t1,0x10
80005c02:	01c37e33          	and	t3,t1,t3
80005c06:	02ee03b3          	mul	t2,t3,a4
80005c0a:	03c604b3          	mul	s1,a2,t3
80005c0e:	02ef0733          	mul	a4,t5,a4
80005c12:	03e60fb3          	mul	t6,a2,t5
80005c16:	00970633          	add	a2,a4,s1
80005c1a:	0103d713          	srli	a4,t2,0x10
80005c1e:	9732                	add	a4,a4,a2
80005c20:	00977363          	bgeu	a4,s1,80005c26 <__divdf3+0x286>
/home/xl_ci/toolchain/riscv-gnu-toolchain/riscv-gcc/libgcc/soft-fp/divdf3.c:46 (discriminator 36)
80005c24:	9fc2                	add	t6,t6,a6
/home/xl_ci/toolchain/riscv-gnu-toolchain/riscv-gcc/libgcc/soft-fp/divdf3.c:46 (discriminator 38)
80005c26:	01075613          	srli	a2,a4,0x10
80005c2a:	967e                	add	a2,a2,t6
80005c2c:	6fc1                	lui	t6,0x10
80005c2e:	1ffd                	addi	t6,t6,-1
80005c30:	01f77833          	and	a6,a4,t6
80005c34:	0842                	slli	a6,a6,0x10
80005c36:	01f3f3b3          	and	t2,t2,t6
80005c3a:	981e                	add	a6,a6,t2
80005c3c:	00c46763          	bltu	s0,a2,80005c4a <__divdf3+0x2aa>
/home/xl_ci/toolchain/riscv-gnu-toolchain/riscv-gcc/libgcc/soft-fp/divdf3.c:46 (discriminator 40)
80005c40:	8496                	mv	s1,t0
80005c42:	02c41e63          	bne	s0,a2,80005c7e <__divdf3+0x2de>
/home/xl_ci/toolchain/riscv-gnu-toolchain/riscv-gcc/libgcc/soft-fp/divdf3.c:46 (discriminator 41)
80005c46:	0307fc63          	bgeu	a5,a6,80005c7e <__divdf3+0x2de>
/home/xl_ci/toolchain/riscv-gnu-toolchain/riscv-gcc/libgcc/soft-fp/divdf3.c:46 (discriminator 43)
80005c4a:	979a                	add	a5,a5,t1
80005c4c:	0067b733          	sltu	a4,a5,t1
80005c50:	9746                	add	a4,a4,a7
80005c52:	943a                	add	s0,s0,a4
80005c54:	fff28493          	addi	s1,t0,-1
80005c58:	0088e663          	bltu	a7,s0,80005c64 <__divdf3+0x2c4>
/home/xl_ci/toolchain/riscv-gnu-toolchain/riscv-gcc/libgcc/soft-fp/divdf3.c:46 (discriminator 46)
80005c5c:	02889163          	bne	a7,s0,80005c7e <__divdf3+0x2de>
/home/xl_ci/toolchain/riscv-gnu-toolchain/riscv-gcc/libgcc/soft-fp/divdf3.c:46 (discriminator 47)
80005c60:	0067ef63          	bltu	a5,t1,80005c7e <__divdf3+0x2de>
/home/xl_ci/toolchain/riscv-gnu-toolchain/riscv-gcc/libgcc/soft-fp/divdf3.c:46 (discriminator 49)
80005c64:	00c46663          	bltu	s0,a2,80005c70 <__divdf3+0x2d0>
/home/xl_ci/toolchain/riscv-gnu-toolchain/riscv-gcc/libgcc/soft-fp/divdf3.c:46 (discriminator 52)
80005c68:	00861b63          	bne	a2,s0,80005c7e <__divdf3+0x2de>
/home/xl_ci/toolchain/riscv-gnu-toolchain/riscv-gcc/libgcc/soft-fp/divdf3.c:46 (discriminator 53)
80005c6c:	0107f963          	bgeu	a5,a6,80005c7e <__divdf3+0x2de>
/home/xl_ci/toolchain/riscv-gnu-toolchain/riscv-gcc/libgcc/soft-fp/divdf3.c:46 (discriminator 55)
80005c70:	979a                	add	a5,a5,t1
80005c72:	0067b733          	sltu	a4,a5,t1
80005c76:	9746                	add	a4,a4,a7
80005c78:	ffe28493          	addi	s1,t0,-2
80005c7c:	943a                	add	s0,s0,a4
/home/xl_ci/toolchain/riscv-gnu-toolchain/riscv-gcc/libgcc/soft-fp/divdf3.c:46 (discriminator 57)
80005c7e:	41078833          	sub	a6,a5,a6
80005c82:	8c11                	sub	s0,s0,a2
80005c84:	0107b7b3          	sltu	a5,a5,a6
80005c88:	8c1d                	sub	s0,s0,a5
80005c8a:	5ffd                	li	t6,-1
80005c8c:	0e888763          	beq	a7,s0,80005d7a <__divdf3+0x3da>
/home/xl_ci/toolchain/riscv-gnu-toolchain/riscv-gcc/libgcc/soft-fp/divdf3.c:46 (discriminator 59)
80005c90:	02a45fb3          	divu	t6,s0,a0
80005c94:	01085713          	srli	a4,a6,0x10
80005c98:	02a47433          	remu	s0,s0,a0
80005c9c:	867e                	mv	a2,t6
80005c9e:	03fe87b3          	mul	a5,t4,t6
80005ca2:	0442                	slli	s0,s0,0x10
80005ca4:	8c59                	or	s0,s0,a4
80005ca6:	00f47c63          	bgeu	s0,a5,80005cbe <__divdf3+0x31e>
/home/xl_ci/toolchain/riscv-gnu-toolchain/riscv-gcc/libgcc/soft-fp/divdf3.c:46 (discriminator 61)
80005caa:	9446                	add	s0,s0,a7
80005cac:	ffff8613          	addi	a2,t6,-1 # ffff <__stack_size+0xf7ff>
80005cb0:	01146763          	bltu	s0,a7,80005cbe <__divdf3+0x31e>
/home/xl_ci/toolchain/riscv-gnu-toolchain/riscv-gcc/libgcc/soft-fp/divdf3.c:46 (discriminator 63)
80005cb4:	00f47563          	bgeu	s0,a5,80005cbe <__divdf3+0x31e>
/home/xl_ci/toolchain/riscv-gnu-toolchain/riscv-gcc/libgcc/soft-fp/divdf3.c:46 (discriminator 65)
80005cb8:	ffef8613          	addi	a2,t6,-2
80005cbc:	9446                	add	s0,s0,a7
/home/xl_ci/toolchain/riscv-gnu-toolchain/riscv-gcc/libgcc/soft-fp/divdf3.c:46 (discriminator 67)
80005cbe:	8c1d                	sub	s0,s0,a5
80005cc0:	02a45733          	divu	a4,s0,a0
80005cc4:	0842                	slli	a6,a6,0x10
80005cc6:	01085813          	srli	a6,a6,0x10
80005cca:	02a47433          	remu	s0,s0,a0
80005cce:	87ba                	mv	a5,a4
80005cd0:	02ee8eb3          	mul	t4,t4,a4
80005cd4:	0442                	slli	s0,s0,0x10
80005cd6:	00886433          	or	s0,a6,s0
80005cda:	01d47c63          	bgeu	s0,t4,80005cf2 <__divdf3+0x352>
/home/xl_ci/toolchain/riscv-gnu-toolchain/riscv-gcc/libgcc/soft-fp/divdf3.c:46 (discriminator 68)
80005cde:	9446                	add	s0,s0,a7
80005ce0:	fff70793          	addi	a5,a4,-1 # ff7fffff <_sp+0x6f7effff>
80005ce4:	01146763          	bltu	s0,a7,80005cf2 <__divdf3+0x352>
/home/xl_ci/toolchain/riscv-gnu-toolchain/riscv-gcc/libgcc/soft-fp/divdf3.c:46 (discriminator 70)
80005ce8:	01d47563          	bgeu	s0,t4,80005cf2 <__divdf3+0x352>
/home/xl_ci/toolchain/riscv-gnu-toolchain/riscv-gcc/libgcc/soft-fp/divdf3.c:46 (discriminator 72)
80005cec:	ffe70793          	addi	a5,a4,-2
80005cf0:	9446                	add	s0,s0,a7
/home/xl_ci/toolchain/riscv-gnu-toolchain/riscv-gcc/libgcc/soft-fp/divdf3.c:46 (discriminator 74)
80005cf2:	0642                	slli	a2,a2,0x10
80005cf4:	8e5d                	or	a2,a2,a5
80005cf6:	01061793          	slli	a5,a2,0x10
80005cfa:	83c1                	srli	a5,a5,0x10
80005cfc:	01065713          	srli	a4,a2,0x10
80005d00:	02ef0833          	mul	a6,t5,a4
80005d04:	41d40433          	sub	s0,s0,t4
80005d08:	02ff0f33          	mul	t5,t5,a5
80005d0c:	03c78eb3          	mul	t4,a5,t3
80005d10:	03c70e33          	mul	t3,a4,t3
80005d14:	010ed793          	srli	a5,t4,0x10
80005d18:	9f72                	add	t5,t5,t3
80005d1a:	97fa                	add	a5,a5,t5
80005d1c:	01c7f463          	bgeu	a5,t3,80005d24 <__divdf3+0x384>
/home/xl_ci/toolchain/riscv-gnu-toolchain/riscv-gcc/libgcc/soft-fp/divdf3.c:46 (discriminator 75)
80005d20:	6741                	lui	a4,0x10
80005d22:	983a                	add	a6,a6,a4
/home/xl_ci/toolchain/riscv-gnu-toolchain/riscv-gcc/libgcc/soft-fp/divdf3.c:46 (discriminator 77)
80005d24:	0107d713          	srli	a4,a5,0x10
80005d28:	9742                	add	a4,a4,a6
80005d2a:	6841                	lui	a6,0x10
80005d2c:	187d                	addi	a6,a6,-1
80005d2e:	0107f533          	and	a0,a5,a6
80005d32:	0542                	slli	a0,a0,0x10
80005d34:	010efeb3          	and	t4,t4,a6
80005d38:	9576                	add	a0,a0,t4
80005d3a:	00e46663          	bltu	s0,a4,80005d46 <__divdf3+0x3a6>
/home/xl_ci/toolchain/riscv-gnu-toolchain/riscv-gcc/libgcc/soft-fp/divdf3.c:46 (discriminator 79)
80005d3e:	18e41f63          	bne	s0,a4,80005edc <__divdf3+0x53c>
/home/xl_ci/toolchain/riscv-gnu-toolchain/riscv-gcc/libgcc/soft-fp/divdf3.c:46 (discriminator 80)
80005d42:	8fb2                	mv	t6,a2
80005d44:	c91d                	beqz	a0,80005d7a <__divdf3+0x3da>
/home/xl_ci/toolchain/riscv-gnu-toolchain/riscv-gcc/libgcc/soft-fp/divdf3.c:46 (discriminator 82)
80005d46:	9446                	add	s0,s0,a7
80005d48:	fff60f93          	addi	t6,a2,-1
80005d4c:	03146163          	bltu	s0,a7,80005d6e <__divdf3+0x3ce>
/home/xl_ci/toolchain/riscv-gnu-toolchain/riscv-gcc/libgcc/soft-fp/divdf3.c:46 (discriminator 88)
80005d50:	00e46663          	bltu	s0,a4,80005d5c <__divdf3+0x3bc>
/home/xl_ci/toolchain/riscv-gnu-toolchain/riscv-gcc/libgcc/soft-fp/divdf3.c:46 (discriminator 91)
80005d54:	18e41363          	bne	s0,a4,80005eda <__divdf3+0x53a>
/home/xl_ci/toolchain/riscv-gnu-toolchain/riscv-gcc/libgcc/soft-fp/divdf3.c:46 (discriminator 92)
80005d58:	00a37d63          	bgeu	t1,a0,80005d72 <__divdf3+0x3d2>
/home/xl_ci/toolchain/riscv-gnu-toolchain/riscv-gcc/libgcc/soft-fp/divdf3.c:46 (discriminator 94)
80005d5c:	00131793          	slli	a5,t1,0x1
80005d60:	0067b333          	sltu	t1,a5,t1
80005d64:	989a                	add	a7,a7,t1
80005d66:	ffe60f93          	addi	t6,a2,-2
80005d6a:	9446                	add	s0,s0,a7
80005d6c:	833e                	mv	t1,a5
/home/xl_ci/toolchain/riscv-gnu-toolchain/riscv-gcc/libgcc/soft-fp/divdf3.c:46 (discriminator 96)
80005d6e:	00e41463          	bne	s0,a4,80005d76 <__divdf3+0x3d6>
/home/xl_ci/toolchain/riscv-gnu-toolchain/riscv-gcc/libgcc/soft-fp/divdf3.c:46 (discriminator 98)
80005d72:	00650463          	beq	a0,t1,80005d7a <__divdf3+0x3da>
/home/xl_ci/toolchain/riscv-gnu-toolchain/riscv-gcc/libgcc/soft-fp/divdf3.c:46 (discriminator 99)
80005d76:	001fef93          	ori	t6,t6,1
/home/xl_ci/toolchain/riscv-gnu-toolchain/riscv-gcc/libgcc/soft-fp/divdf3.c:47 (discriminator 2)
80005d7a:	3ff58793          	addi	a5,a1,1023
80005d7e:	0af05b63          	blez	a5,80005e34 <__divdf3+0x494>
/home/xl_ci/toolchain/riscv-gnu-toolchain/riscv-gcc/libgcc/soft-fp/divdf3.c:47 (discriminator 6)
80005d82:	007ff713          	andi	a4,t6,7
80005d86:	cf01                	beqz	a4,80005d9e <__divdf3+0x3fe>
/home/xl_ci/toolchain/riscv-gnu-toolchain/riscv-gcc/libgcc/soft-fp/divdf3.c:47 (discriminator 8)
80005d88:	00fff713          	andi	a4,t6,15
80005d8c:	4611                	li	a2,4
80005d8e:	00c70863          	beq	a4,a2,80005d9e <__divdf3+0x3fe>
/home/xl_ci/toolchain/riscv-gnu-toolchain/riscv-gcc/libgcc/soft-fp/divdf3.c:47 (discriminator 10)
80005d92:	004f8613          	addi	a2,t6,4
80005d96:	01f63fb3          	sltu	t6,a2,t6
80005d9a:	94fe                	add	s1,s1,t6
80005d9c:	8fb2                	mv	t6,a2
/home/xl_ci/toolchain/riscv-gnu-toolchain/riscv-gcc/libgcc/soft-fp/divdf3.c:47 (discriminator 9)
80005d9e:	01000737          	lui	a4,0x1000
80005da2:	8f65                	and	a4,a4,s1
80005da4:	c719                	beqz	a4,80005db2 <__divdf3+0x412>
/home/xl_ci/toolchain/riscv-gnu-toolchain/riscv-gcc/libgcc/soft-fp/divdf3.c:47 (discriminator 24)
80005da6:	ff0007b7          	lui	a5,0xff000
80005daa:	17fd                	addi	a5,a5,-1
80005dac:	8cfd                	and	s1,s1,a5
80005dae:	40058793          	addi	a5,a1,1024
/home/xl_ci/toolchain/riscv-gnu-toolchain/riscv-gcc/libgcc/soft-fp/divdf3.c:47 (discriminator 26)
80005db2:	7fe00713          	li	a4,2046
80005db6:	06f74263          	blt	a4,a5,80005e1a <__divdf3+0x47a>
/home/xl_ci/toolchain/riscv-gnu-toolchain/riscv-gcc/libgcc/soft-fp/divdf3.c:47
80005dba:	003fdf93          	srli	t6,t6,0x3
80005dbe:	01d49713          	slli	a4,s1,0x1d
80005dc2:	01f76733          	or	a4,a4,t6
80005dc6:	0034d513          	srli	a0,s1,0x3
/home/xl_ci/toolchain/riscv-gnu-toolchain/riscv-gcc/libgcc/soft-fp/divdf3.c:47 (discriminator 119)
80005dca:	07d2                	slli	a5,a5,0x14
80005dcc:	7ff00637          	lui	a2,0x7ff00
80005dd0:	0532                	slli	a0,a0,0xc
/home/xl_ci/toolchain/riscv-gnu-toolchain/riscv-gcc/libgcc/soft-fp/divdf3.c:51 (discriminator 119)
80005dd2:	50b2                	lw	ra,44(sp)
80005dd4:	5422                	lw	s0,40(sp)
/home/xl_ci/toolchain/riscv-gnu-toolchain/riscv-gcc/libgcc/soft-fp/divdf3.c:47 (discriminator 119)
80005dd6:	8ff1                	and	a5,a5,a2
80005dd8:	8131                	srli	a0,a0,0xc
80005dda:	8d5d                	or	a0,a0,a5
80005ddc:	06fe                	slli	a3,a3,0x1f
80005dde:	00d567b3          	or	a5,a0,a3
/home/xl_ci/toolchain/riscv-gnu-toolchain/riscv-gcc/libgcc/soft-fp/divdf3.c:51 (discriminator 119)
80005de2:	5492                	lw	s1,36(sp)
80005de4:	5902                	lw	s2,32(sp)
80005de6:	49f2                	lw	s3,28(sp)
80005de8:	4a62                	lw	s4,24(sp)
80005dea:	4ad2                	lw	s5,20(sp)
80005dec:	4b42                	lw	s6,16(sp)
80005dee:	4bb2                	lw	s7,12(sp)
80005df0:	4c22                	lw	s8,8(sp)
80005df2:	853a                	mv	a0,a4
80005df4:	85be                	mv	a1,a5
80005df6:	6145                	addi	sp,sp,48
80005df8:	8082                	ret
/home/xl_ci/toolchain/riscv-gnu-toolchain/riscv-gcc/libgcc/soft-fp/divdf3.c:46 (discriminator 15)
80005dfa:	15fd                	addi	a1,a1,-1
80005dfc:	4781                	li	a5,0
80005dfe:	b3b5                	j	80005b6a <__divdf3+0x1ca>
/home/xl_ci/toolchain/riscv-gnu-toolchain/riscv-gcc/libgcc/soft-fp/divdf3.c:44 (discriminator 8)
80005e00:	86ce                	mv	a3,s3
/home/xl_ci/toolchain/riscv-gnu-toolchain/riscv-gcc/libgcc/soft-fp/divdf3.c:46 (discriminator 8)
80005e02:	84d6                	mv	s1,s5
80005e04:	8fa2                	mv	t6,s0
80005e06:	87de                	mv	a5,s7
/home/xl_ci/toolchain/riscv-gnu-toolchain/riscv-gcc/libgcc/soft-fp/divdf3.c:47 (discriminator 108)
80005e08:	470d                	li	a4,3
80005e0a:	0ae78a63          	beq	a5,a4,80005ebe <__divdf3+0x51e>
/home/xl_ci/toolchain/riscv-gnu-toolchain/riscv-gcc/libgcc/soft-fp/divdf3.c:47
80005e0e:	4705                	li	a4,1
80005e10:	0ae78e63          	beq	a5,a4,80005ecc <__divdf3+0x52c>
80005e14:	4709                	li	a4,2
80005e16:	f6e792e3          	bne	a5,a4,80005d7a <__divdf3+0x3da>
80005e1a:	4501                	li	a0,0
80005e1c:	4701                	li	a4,0
80005e1e:	7ff00793          	li	a5,2047
80005e22:	b765                	j	80005dca <__divdf3+0x42a>
/home/xl_ci/toolchain/riscv-gnu-toolchain/riscv-gcc/libgcc/soft-fp/divdf3.c:45 (discriminator 5)
80005e24:	86e2                	mv	a3,s8
/home/xl_ci/toolchain/riscv-gnu-toolchain/riscv-gcc/libgcc/soft-fp/divdf3.c:46 (discriminator 5)
80005e26:	b7cd                	j	80005e08 <__divdf3+0x468>
/home/xl_ci/toolchain/riscv-gnu-toolchain/riscv-gcc/libgcc/soft-fp/divdf3.c:46
80005e28:	000804b7          	lui	s1,0x80
80005e2c:	4f81                	li	t6,0
80005e2e:	4681                	li	a3,0
80005e30:	478d                	li	a5,3
80005e32:	bfd9                	j	80005e08 <__divdf3+0x468>
/home/xl_ci/toolchain/riscv-gnu-toolchain/riscv-gcc/libgcc/soft-fp/divdf3.c:47 (discriminator 59)
80005e34:	4505                	li	a0,1
80005e36:	8d1d                	sub	a0,a0,a5
80005e38:	03800713          	li	a4,56
80005e3c:	08a74863          	blt	a4,a0,80005ecc <__divdf3+0x52c>
/home/xl_ci/toolchain/riscv-gnu-toolchain/riscv-gcc/libgcc/soft-fp/divdf3.c:47 (discriminator 60)
80005e40:	477d                	li	a4,31
80005e42:	04a74963          	blt	a4,a0,80005e94 <__divdf3+0x4f4>
/home/xl_ci/toolchain/riscv-gnu-toolchain/riscv-gcc/libgcc/soft-fp/divdf3.c:47 (discriminator 62)
80005e46:	41e58593          	addi	a1,a1,1054
80005e4a:	00b497b3          	sll	a5,s1,a1
80005e4e:	00afd733          	srl	a4,t6,a0
80005e52:	00bf95b3          	sll	a1,t6,a1
80005e56:	8fd9                	or	a5,a5,a4
80005e58:	00b035b3          	snez	a1,a1
80005e5c:	8fcd                	or	a5,a5,a1
80005e5e:	00a4d533          	srl	a0,s1,a0
/home/xl_ci/toolchain/riscv-gnu-toolchain/riscv-gcc/libgcc/soft-fp/divdf3.c:47 (discriminator 75)
80005e62:	0077f713          	andi	a4,a5,7
80005e66:	cf01                	beqz	a4,80005e7e <__divdf3+0x4de>
/home/xl_ci/toolchain/riscv-gnu-toolchain/riscv-gcc/libgcc/soft-fp/divdf3.c:47 (discriminator 76)
80005e68:	00f7f713          	andi	a4,a5,15
80005e6c:	4611                	li	a2,4
80005e6e:	00c70863          	beq	a4,a2,80005e7e <__divdf3+0x4de>
/home/xl_ci/toolchain/riscv-gnu-toolchain/riscv-gcc/libgcc/soft-fp/divdf3.c:47 (discriminator 78)
80005e72:	00478713          	addi	a4,a5,4 # ff000004 <_sp+0x6eff0004>
80005e76:	00f737b3          	sltu	a5,a4,a5
80005e7a:	953e                	add	a0,a0,a5
80005e7c:	87ba                	mv	a5,a4
/home/xl_ci/toolchain/riscv-gnu-toolchain/riscv-gcc/libgcc/soft-fp/divdf3.c:47 (discriminator 77)
80005e7e:	00800737          	lui	a4,0x800
80005e82:	8f69                	and	a4,a4,a0
80005e84:	e739                	bnez	a4,80005ed2 <__divdf3+0x532>
/home/xl_ci/toolchain/riscv-gnu-toolchain/riscv-gcc/libgcc/soft-fp/divdf3.c:47 (discriminator 93)
80005e86:	01d51713          	slli	a4,a0,0x1d
80005e8a:	838d                	srli	a5,a5,0x3
80005e8c:	8f5d                	or	a4,a4,a5
80005e8e:	810d                	srli	a0,a0,0x3
/home/xl_ci/toolchain/riscv-gnu-toolchain/riscv-gcc/libgcc/soft-fp/divdf3.c:47
80005e90:	4781                	li	a5,0
80005e92:	bf25                	j	80005dca <__divdf3+0x42a>
/home/xl_ci/toolchain/riscv-gnu-toolchain/riscv-gcc/libgcc/soft-fp/divdf3.c:47 (discriminator 63)
80005e94:	5705                	li	a4,-31
80005e96:	40f707b3          	sub	a5,a4,a5
80005e9a:	02000613          	li	a2,32
80005e9e:	00f4d7b3          	srl	a5,s1,a5
80005ea2:	4701                	li	a4,0
80005ea4:	00c50663          	beq	a0,a2,80005eb0 <__divdf3+0x510>
/home/xl_ci/toolchain/riscv-gnu-toolchain/riscv-gcc/libgcc/soft-fp/divdf3.c:47 (discriminator 71)
80005ea8:	43e58713          	addi	a4,a1,1086
80005eac:	00e49733          	sll	a4,s1,a4
/home/xl_ci/toolchain/riscv-gnu-toolchain/riscv-gcc/libgcc/soft-fp/divdf3.c:47 (discriminator 74)
80005eb0:	01f76733          	or	a4,a4,t6
80005eb4:	00e03733          	snez	a4,a4
80005eb8:	8fd9                	or	a5,a5,a4
80005eba:	4501                	li	a0,0
80005ebc:	b75d                	j	80005e62 <__divdf3+0x4c2>
/home/xl_ci/toolchain/riscv-gnu-toolchain/riscv-gcc/libgcc/soft-fp/divdf3.c:47
80005ebe:	00080537          	lui	a0,0x80
80005ec2:	4701                	li	a4,0
80005ec4:	7ff00793          	li	a5,2047
80005ec8:	4681                	li	a3,0
80005eca:	b701                	j	80005dca <__divdf3+0x42a>
80005ecc:	4501                	li	a0,0
80005ece:	4701                	li	a4,0
80005ed0:	b7c1                	j	80005e90 <__divdf3+0x4f0>
80005ed2:	4501                	li	a0,0
80005ed4:	4701                	li	a4,0
80005ed6:	4785                	li	a5,1
80005ed8:	bdcd                	j	80005dca <__divdf3+0x42a>
/home/xl_ci/toolchain/riscv-gnu-toolchain/riscv-gcc/libgcc/soft-fp/divdf3.c:46
80005eda:	867e                	mv	a2,t6
80005edc:	8fb2                	mv	t6,a2
80005ede:	bd61                	j	80005d76 <__divdf3+0x3d6>

80005ee0 <__eqdf2>:
__eqdf2():
/home/xl_ci/toolchain/riscv-gnu-toolchain/riscv-gcc/libgcc/soft-fp/eqdf2.c:43
80005ee0:	0145d713          	srli	a4,a1,0x14
80005ee4:	001007b7          	lui	a5,0x100
80005ee8:	17fd                	addi	a5,a5,-1
/home/xl_ci/toolchain/riscv-gnu-toolchain/riscv-gcc/libgcc/soft-fp/eqdf2.c:44
80005eea:	0146d813          	srli	a6,a3,0x14
/home/xl_ci/toolchain/riscv-gnu-toolchain/riscv-gcc/libgcc/soft-fp/eqdf2.c:36
80005eee:	832a                	mv	t1,a0
80005ef0:	8eaa                	mv	t4,a0
/home/xl_ci/toolchain/riscv-gnu-toolchain/riscv-gcc/libgcc/soft-fp/eqdf2.c:43
80005ef2:	7ff77713          	andi	a4,a4,2047
/home/xl_ci/toolchain/riscv-gnu-toolchain/riscv-gcc/libgcc/soft-fp/eqdf2.c:45
80005ef6:	7ff00513          	li	a0,2047
/home/xl_ci/toolchain/riscv-gnu-toolchain/riscv-gcc/libgcc/soft-fp/eqdf2.c:43
80005efa:	00b7f8b3          	and	a7,a5,a1
80005efe:	8f32                	mv	t5,a2
/home/xl_ci/toolchain/riscv-gnu-toolchain/riscv-gcc/libgcc/soft-fp/eqdf2.c:44
80005f00:	8ff5                	and	a5,a5,a3
/home/xl_ci/toolchain/riscv-gnu-toolchain/riscv-gcc/libgcc/soft-fp/eqdf2.c:43
80005f02:	81fd                	srli	a1,a1,0x1f
/home/xl_ci/toolchain/riscv-gnu-toolchain/riscv-gcc/libgcc/soft-fp/eqdf2.c:44
80005f04:	7ff87813          	andi	a6,a6,2047
80005f08:	82fd                	srli	a3,a3,0x1f
/home/xl_ci/toolchain/riscv-gnu-toolchain/riscv-gcc/libgcc/soft-fp/eqdf2.c:45
80005f0a:	00a71a63          	bne	a4,a0,80005f1e <__eqdf2+0x3e>
/home/xl_ci/toolchain/riscv-gnu-toolchain/riscv-gcc/libgcc/soft-fp/eqdf2.c:45 (discriminator 20)
80005f0e:	0068ee33          	or	t3,a7,t1
80005f12:	4505                	li	a0,1
80005f14:	000e1463          	bnez	t3,80005f1c <__eqdf2+0x3c>
/home/xl_ci/toolchain/riscv-gnu-toolchain/riscv-gcc/libgcc/soft-fp/eqdf2.c:45
80005f18:	00e80563          	beq	a6,a4,80005f22 <__eqdf2+0x42>
/home/xl_ci/toolchain/riscv-gnu-toolchain/riscv-gcc/libgcc/soft-fp/eqdf2.c:49
80005f1c:	8082                	ret
/home/xl_ci/toolchain/riscv-gnu-toolchain/riscv-gcc/libgcc/soft-fp/eqdf2.c:45 (discriminator 23)
80005f1e:	00a81563          	bne	a6,a0,80005f28 <__eqdf2+0x48>
/home/xl_ci/toolchain/riscv-gnu-toolchain/riscv-gcc/libgcc/soft-fp/eqdf2.c:45 (discriminator 24)
80005f22:	8e5d                	or	a2,a2,a5
80005f24:	4505                	li	a0,1
80005f26:	fa7d                	bnez	a2,80005f1c <__eqdf2+0x3c>
/home/xl_ci/toolchain/riscv-gnu-toolchain/riscv-gcc/libgcc/soft-fp/eqdf2.c:45 (discriminator 78)
80005f28:	4505                	li	a0,1
80005f2a:	ff0719e3          	bne	a4,a6,80005f1c <__eqdf2+0x3c>
/home/xl_ci/toolchain/riscv-gnu-toolchain/riscv-gcc/libgcc/soft-fp/eqdf2.c:45 (discriminator 80)
80005f2e:	fef897e3          	bne	a7,a5,80005f1c <__eqdf2+0x3c>
/home/xl_ci/toolchain/riscv-gnu-toolchain/riscv-gcc/libgcc/soft-fp/eqdf2.c:45 (discriminator 82)
80005f32:	ffee95e3          	bne	t4,t5,80005f1c <__eqdf2+0x3c>
/home/xl_ci/toolchain/riscv-gnu-toolchain/riscv-gcc/libgcc/soft-fp/eqdf2.c:45 (discriminator 84)
80005f36:	00d58863          	beq	a1,a3,80005f46 <__eqdf2+0x66>
/home/xl_ci/toolchain/riscv-gnu-toolchain/riscv-gcc/libgcc/soft-fp/eqdf2.c:45 (discriminator 85)
80005f3a:	f36d                	bnez	a4,80005f1c <__eqdf2+0x3c>
/home/xl_ci/toolchain/riscv-gnu-toolchain/riscv-gcc/libgcc/soft-fp/eqdf2.c:45 (discriminator 88)
80005f3c:	0068e533          	or	a0,a7,t1
80005f40:	00a03533          	snez	a0,a0
80005f44:	8082                	ret
/home/xl_ci/toolchain/riscv-gnu-toolchain/riscv-gcc/libgcc/soft-fp/eqdf2.c:45
80005f46:	4501                	li	a0,0
80005f48:	8082                	ret

80005f4a <__gedf2>:
__gedf2():
/home/xl_ci/toolchain/riscv-gnu-toolchain/riscv-gcc/libgcc/soft-fp/gedf2.c:43
80005f4a:	00100737          	lui	a4,0x100
80005f4e:	177d                	addi	a4,a4,-1
80005f50:	0145d813          	srli	a6,a1,0x14
80005f54:	00b778b3          	and	a7,a4,a1
/home/xl_ci/toolchain/riscv-gnu-toolchain/riscv-gcc/libgcc/soft-fp/gedf2.c:36
80005f58:	87aa                	mv	a5,a0
80005f5a:	832a                	mv	t1,a0
/home/xl_ci/toolchain/riscv-gnu-toolchain/riscv-gcc/libgcc/soft-fp/gedf2.c:43
80005f5c:	7ff87813          	andi	a6,a6,2047
80005f60:	01f5d513          	srli	a0,a1,0x1f
/home/xl_ci/toolchain/riscv-gnu-toolchain/riscv-gcc/libgcc/soft-fp/gedf2.c:45
80005f64:	7ff00e93          	li	t4,2047
/home/xl_ci/toolchain/riscv-gnu-toolchain/riscv-gcc/libgcc/soft-fp/gedf2.c:44
80005f68:	0146d593          	srli	a1,a3,0x14
80005f6c:	8f75                	and	a4,a4,a3
80005f6e:	8e32                	mv	t3,a2
80005f70:	7ff5f593          	andi	a1,a1,2047
80005f74:	82fd                	srli	a3,a3,0x1f
/home/xl_ci/toolchain/riscv-gnu-toolchain/riscv-gcc/libgcc/soft-fp/gedf2.c:45
80005f76:	01d81863          	bne	a6,t4,80005f86 <__gedf2+0x3c>
/home/xl_ci/toolchain/riscv-gnu-toolchain/riscv-gcc/libgcc/soft-fp/gedf2.c:45 (discriminator 20)
80005f7a:	00f8eeb3          	or	t4,a7,a5
80005f7e:	060e8463          	beqz	t4,80005fe6 <__gedf2+0x9c>
/home/xl_ci/toolchain/riscv-gnu-toolchain/riscv-gcc/libgcc/soft-fp/gedf2.c:45
80005f82:	5579                	li	a0,-2
80005f84:	8082                	ret
/home/xl_ci/toolchain/riscv-gnu-toolchain/riscv-gcc/libgcc/soft-fp/gedf2.c:45 (discriminator 23)
80005f86:	01d59663          	bne	a1,t4,80005f92 <__gedf2+0x48>
/home/xl_ci/toolchain/riscv-gnu-toolchain/riscv-gcc/libgcc/soft-fp/gedf2.c:45 (discriminator 24)
80005f8a:	00c76eb3          	or	t4,a4,a2
80005f8e:	fe0e9ae3          	bnez	t4,80005f82 <__gedf2+0x38>
/home/xl_ci/toolchain/riscv-gnu-toolchain/riscv-gcc/libgcc/soft-fp/gedf2.c:45 (discriminator 62)
80005f92:	04081c63          	bnez	a6,80005fea <__gedf2+0xa0>
/home/xl_ci/toolchain/riscv-gnu-toolchain/riscv-gcc/libgcc/soft-fp/gedf2.c:45 (discriminator 63)
80005f96:	00f8e7b3          	or	a5,a7,a5
80005f9a:	0017b793          	seqz	a5,a5
80005f9e:	e199                	bnez	a1,80005fa4 <__gedf2+0x5a>
/home/xl_ci/toolchain/riscv-gnu-toolchain/riscv-gcc/libgcc/soft-fp/gedf2.c:45 (discriminator 69)
80005fa0:	8e59                	or	a2,a2,a4
80005fa2:	ce0d                	beqz	a2,80005fdc <__gedf2+0x92>
/home/xl_ci/toolchain/riscv-gnu-toolchain/riscv-gcc/libgcc/soft-fp/gedf2.c:45
80005fa4:	eb81                	bnez	a5,80005fb4 <__gedf2+0x6a>
80005fa6:	00d51463          	bne	a0,a3,80005fae <__gedf2+0x64>
/home/xl_ci/toolchain/riscv-gnu-toolchain/riscv-gcc/libgcc/soft-fp/gedf2.c:45 (discriminator 95)
80005faa:	0105d963          	bge	a1,a6,80005fbc <__gedf2+0x72>
/home/xl_ci/toolchain/riscv-gnu-toolchain/riscv-gcc/libgcc/soft-fp/gedf2.c:45 (discriminator 119)
80005fae:	c50d                	beqz	a0,80005fd8 <__gedf2+0x8e>
/home/xl_ci/toolchain/riscv-gnu-toolchain/riscv-gcc/libgcc/soft-fp/gedf2.c:45
80005fb0:	557d                	li	a0,-1
80005fb2:	8082                	ret
/home/xl_ci/toolchain/riscv-gnu-toolchain/riscv-gcc/libgcc/soft-fp/gedf2.c:45 (discriminator 80)
80005fb4:	557d                	li	a0,-1
80005fb6:	c691                	beqz	a3,80005fc2 <__gedf2+0x78>
/home/xl_ci/toolchain/riscv-gnu-toolchain/riscv-gcc/libgcc/soft-fp/gedf2.c:45
80005fb8:	8536                	mv	a0,a3
80005fba:	8082                	ret
/home/xl_ci/toolchain/riscv-gnu-toolchain/riscv-gcc/libgcc/soft-fp/gedf2.c:45 (discriminator 102)
80005fbc:	00b85463          	bge	a6,a1,80005fc4 <__gedf2+0x7a>
/home/xl_ci/toolchain/riscv-gnu-toolchain/riscv-gcc/libgcc/soft-fp/gedf2.c:45 (discriminator 130)
80005fc0:	d965                	beqz	a0,80005fb0 <__gedf2+0x66>
/home/xl_ci/toolchain/riscv-gnu-toolchain/riscv-gcc/libgcc/soft-fp/gedf2.c:49
80005fc2:	8082                	ret
/home/xl_ci/toolchain/riscv-gnu-toolchain/riscv-gcc/libgcc/soft-fp/gedf2.c:45 (discriminator 109)
80005fc4:	ff1765e3          	bltu	a4,a7,80005fae <__gedf2+0x64>
/home/xl_ci/toolchain/riscv-gnu-toolchain/riscv-gcc/libgcc/soft-fp/gedf2.c:45 (discriminator 116)
80005fc8:	00e89c63          	bne	a7,a4,80005fe0 <__gedf2+0x96>
/home/xl_ci/toolchain/riscv-gnu-toolchain/riscv-gcc/libgcc/soft-fp/gedf2.c:45 (discriminator 117)
80005fcc:	fe6e61e3          	bltu	t3,t1,80005fae <__gedf2+0x64>
/home/xl_ci/toolchain/riscv-gnu-toolchain/riscv-gcc/libgcc/soft-fp/gedf2.c:45 (discriminator 128)
80005fd0:	ffc368e3          	bltu	t1,t3,80005fc0 <__gedf2+0x76>
/home/xl_ci/toolchain/riscv-gnu-toolchain/riscv-gcc/libgcc/soft-fp/gedf2.c:45
80005fd4:	4501                	li	a0,0
80005fd6:	8082                	ret
80005fd8:	4505                	li	a0,1
80005fda:	8082                	ret
80005fdc:	ffe5                	bnez	a5,80005fd4 <__gedf2+0x8a>
80005fde:	bfc1                	j	80005fae <__gedf2+0x64>
80005fe0:	fee8e0e3          	bltu	a7,a4,80005fc0 <__gedf2+0x76>
80005fe4:	bfc5                	j	80005fd4 <__gedf2+0x8a>
80005fe6:	fb0582e3          	beq	a1,a6,80005f8a <__gedf2+0x40>
80005fea:	fdd5                	bnez	a1,80005fa6 <__gedf2+0x5c>
80005fec:	4781                	li	a5,0
80005fee:	bf4d                	j	80005fa0 <__gedf2+0x56>

80005ff0 <__ledf2>:
__ledf2():
/home/xl_ci/toolchain/riscv-gnu-toolchain/riscv-gcc/libgcc/soft-fp/ledf2.c:43
80005ff0:	00100737          	lui	a4,0x100
80005ff4:	177d                	addi	a4,a4,-1
80005ff6:	0145d813          	srli	a6,a1,0x14
80005ffa:	00b778b3          	and	a7,a4,a1
/home/xl_ci/toolchain/riscv-gnu-toolchain/riscv-gcc/libgcc/soft-fp/ledf2.c:36
80005ffe:	87aa                	mv	a5,a0
80006000:	832a                	mv	t1,a0
/home/xl_ci/toolchain/riscv-gnu-toolchain/riscv-gcc/libgcc/soft-fp/ledf2.c:43
80006002:	7ff87813          	andi	a6,a6,2047
80006006:	01f5d513          	srli	a0,a1,0x1f
/home/xl_ci/toolchain/riscv-gnu-toolchain/riscv-gcc/libgcc/soft-fp/ledf2.c:45
8000600a:	7ff00e93          	li	t4,2047
/home/xl_ci/toolchain/riscv-gnu-toolchain/riscv-gcc/libgcc/soft-fp/ledf2.c:44
8000600e:	0146d593          	srli	a1,a3,0x14
80006012:	8f75                	and	a4,a4,a3
80006014:	8e32                	mv	t3,a2
80006016:	7ff5f593          	andi	a1,a1,2047
8000601a:	82fd                	srli	a3,a3,0x1f
/home/xl_ci/toolchain/riscv-gnu-toolchain/riscv-gcc/libgcc/soft-fp/ledf2.c:45
8000601c:	01d81863          	bne	a6,t4,8000602c <__ledf2+0x3c>
/home/xl_ci/toolchain/riscv-gnu-toolchain/riscv-gcc/libgcc/soft-fp/ledf2.c:45 (discriminator 20)
80006020:	00f8eeb3          	or	t4,a7,a5
80006024:	060e8463          	beqz	t4,8000608c <__ledf2+0x9c>
/home/xl_ci/toolchain/riscv-gnu-toolchain/riscv-gcc/libgcc/soft-fp/ledf2.c:45
80006028:	4509                	li	a0,2
8000602a:	8082                	ret
/home/xl_ci/toolchain/riscv-gnu-toolchain/riscv-gcc/libgcc/soft-fp/ledf2.c:45 (discriminator 23)
8000602c:	01d59663          	bne	a1,t4,80006038 <__ledf2+0x48>
/home/xl_ci/toolchain/riscv-gnu-toolchain/riscv-gcc/libgcc/soft-fp/ledf2.c:45 (discriminator 24)
80006030:	00c76eb3          	or	t4,a4,a2
80006034:	fe0e9ae3          	bnez	t4,80006028 <__ledf2+0x38>
/home/xl_ci/toolchain/riscv-gnu-toolchain/riscv-gcc/libgcc/soft-fp/ledf2.c:45 (discriminator 62)
80006038:	04081c63          	bnez	a6,80006090 <__ledf2+0xa0>
/home/xl_ci/toolchain/riscv-gnu-toolchain/riscv-gcc/libgcc/soft-fp/ledf2.c:45 (discriminator 63)
8000603c:	00f8e7b3          	or	a5,a7,a5
80006040:	0017b793          	seqz	a5,a5
80006044:	e199                	bnez	a1,8000604a <__ledf2+0x5a>
/home/xl_ci/toolchain/riscv-gnu-toolchain/riscv-gcc/libgcc/soft-fp/ledf2.c:45 (discriminator 69)
80006046:	8e59                	or	a2,a2,a4
80006048:	ce0d                	beqz	a2,80006082 <__ledf2+0x92>
/home/xl_ci/toolchain/riscv-gnu-toolchain/riscv-gcc/libgcc/soft-fp/ledf2.c:45
8000604a:	eb81                	bnez	a5,8000605a <__ledf2+0x6a>
8000604c:	00d51463          	bne	a0,a3,80006054 <__ledf2+0x64>
/home/xl_ci/toolchain/riscv-gnu-toolchain/riscv-gcc/libgcc/soft-fp/ledf2.c:45 (discriminator 95)
80006050:	0105d963          	bge	a1,a6,80006062 <__ledf2+0x72>
/home/xl_ci/toolchain/riscv-gnu-toolchain/riscv-gcc/libgcc/soft-fp/ledf2.c:45 (discriminator 119)
80006054:	c50d                	beqz	a0,8000607e <__ledf2+0x8e>
/home/xl_ci/toolchain/riscv-gnu-toolchain/riscv-gcc/libgcc/soft-fp/ledf2.c:45
80006056:	557d                	li	a0,-1
80006058:	8082                	ret
/home/xl_ci/toolchain/riscv-gnu-toolchain/riscv-gcc/libgcc/soft-fp/ledf2.c:45 (discriminator 80)
8000605a:	557d                	li	a0,-1
8000605c:	c691                	beqz	a3,80006068 <__ledf2+0x78>
/home/xl_ci/toolchain/riscv-gnu-toolchain/riscv-gcc/libgcc/soft-fp/ledf2.c:45
8000605e:	8536                	mv	a0,a3
80006060:	8082                	ret
/home/xl_ci/toolchain/riscv-gnu-toolchain/riscv-gcc/libgcc/soft-fp/ledf2.c:45 (discriminator 102)
80006062:	00b85463          	bge	a6,a1,8000606a <__ledf2+0x7a>
/home/xl_ci/toolchain/riscv-gnu-toolchain/riscv-gcc/libgcc/soft-fp/ledf2.c:45 (discriminator 130)
80006066:	d965                	beqz	a0,80006056 <__ledf2+0x66>
/home/xl_ci/toolchain/riscv-gnu-toolchain/riscv-gcc/libgcc/soft-fp/ledf2.c:49
80006068:	8082                	ret
/home/xl_ci/toolchain/riscv-gnu-toolchain/riscv-gcc/libgcc/soft-fp/ledf2.c:45 (discriminator 109)
8000606a:	ff1765e3          	bltu	a4,a7,80006054 <__ledf2+0x64>
/home/xl_ci/toolchain/riscv-gnu-toolchain/riscv-gcc/libgcc/soft-fp/ledf2.c:45 (discriminator 116)
8000606e:	00e89c63          	bne	a7,a4,80006086 <__ledf2+0x96>
/home/xl_ci/toolchain/riscv-gnu-toolchain/riscv-gcc/libgcc/soft-fp/ledf2.c:45 (discriminator 117)
80006072:	fe6e61e3          	bltu	t3,t1,80006054 <__ledf2+0x64>
/home/xl_ci/toolchain/riscv-gnu-toolchain/riscv-gcc/libgcc/soft-fp/ledf2.c:45 (discriminator 128)
80006076:	ffc368e3          	bltu	t1,t3,80006066 <__ledf2+0x76>
/home/xl_ci/toolchain/riscv-gnu-toolchain/riscv-gcc/libgcc/soft-fp/ledf2.c:45
8000607a:	4501                	li	a0,0
8000607c:	8082                	ret
8000607e:	4505                	li	a0,1
80006080:	8082                	ret
80006082:	ffe5                	bnez	a5,8000607a <__ledf2+0x8a>
80006084:	bfc1                	j	80006054 <__ledf2+0x64>
80006086:	fee8e0e3          	bltu	a7,a4,80006066 <__ledf2+0x76>
8000608a:	bfc5                	j	8000607a <__ledf2+0x8a>
8000608c:	fb0582e3          	beq	a1,a6,80006030 <__ledf2+0x40>
80006090:	fdd5                	bnez	a1,8000604c <__ledf2+0x5c>
80006092:	4781                	li	a5,0
80006094:	bf4d                	j	80006046 <__ledf2+0x56>

80006096 <__muldf3>:
__muldf3():
/home/xl_ci/toolchain/riscv-gnu-toolchain/riscv-gcc/libgcc/soft-fp/muldf3.c:36
80006096:	7179                	addi	sp,sp,-48
80006098:	ce4e                	sw	s3,28(sp)
/home/xl_ci/toolchain/riscv-gnu-toolchain/riscv-gcc/libgcc/soft-fp/muldf3.c:44
8000609a:	0145d993          	srli	s3,a1,0x14
/home/xl_ci/toolchain/riscv-gnu-toolchain/riscv-gcc/libgcc/soft-fp/muldf3.c:36
8000609e:	d422                	sw	s0,40(sp)
800060a0:	d226                	sw	s1,36(sp)
800060a2:	cc52                	sw	s4,24(sp)
800060a4:	ca56                	sw	s5,20(sp)
800060a6:	c65e                	sw	s7,12(sp)
/home/xl_ci/toolchain/riscv-gnu-toolchain/riscv-gcc/libgcc/soft-fp/muldf3.c:44
800060a8:	00c59493          	slli	s1,a1,0xc
/home/xl_ci/toolchain/riscv-gnu-toolchain/riscv-gcc/libgcc/soft-fp/muldf3.c:36
800060ac:	d606                	sw	ra,44(sp)
800060ae:	d04a                	sw	s2,32(sp)
800060b0:	c85a                	sw	s6,16(sp)
/home/xl_ci/toolchain/riscv-gnu-toolchain/riscv-gcc/libgcc/soft-fp/muldf3.c:44
800060b2:	7ff9f993          	andi	s3,s3,2047
/home/xl_ci/toolchain/riscv-gnu-toolchain/riscv-gcc/libgcc/soft-fp/muldf3.c:36
800060b6:	842a                	mv	s0,a0
800060b8:	8bb2                	mv	s7,a2
800060ba:	8ab6                	mv	s5,a3
/home/xl_ci/toolchain/riscv-gnu-toolchain/riscv-gcc/libgcc/soft-fp/muldf3.c:44
800060bc:	80b1                	srli	s1,s1,0xc
800060be:	01f5da13          	srli	s4,a1,0x1f
800060c2:	08098163          	beqz	s3,80006144 <__muldf3+0xae>
800060c6:	7ff00793          	li	a5,2047
800060ca:	0cf98563          	beq	s3,a5,80006194 <__muldf3+0xfe>
/home/xl_ci/toolchain/riscv-gnu-toolchain/riscv-gcc/libgcc/soft-fp/muldf3.c:44 (discriminator 1)
800060ce:	01d55793          	srli	a5,a0,0x1d
800060d2:	048e                	slli	s1,s1,0x3
800060d4:	8cdd                	or	s1,s1,a5
800060d6:	008007b7          	lui	a5,0x800
800060da:	8cdd                	or	s1,s1,a5
800060dc:	00351913          	slli	s2,a0,0x3
800060e0:	c0198993          	addi	s3,s3,-1023
/home/xl_ci/toolchain/riscv-gnu-toolchain/riscv-gcc/libgcc/soft-fp/muldf3.c:44 (discriminator 41)
800060e4:	4b01                	li	s6,0
/home/xl_ci/toolchain/riscv-gnu-toolchain/riscv-gcc/libgcc/soft-fp/muldf3.c:45 (discriminator 8)
800060e6:	014ad513          	srli	a0,s5,0x14
800060ea:	00ca9413          	slli	s0,s5,0xc
800060ee:	7ff57513          	andi	a0,a0,2047
800060f2:	8031                	srli	s0,s0,0xc
800060f4:	01fada93          	srli	s5,s5,0x1f
800060f8:	c161                	beqz	a0,800061b8 <__muldf3+0x122>
/home/xl_ci/toolchain/riscv-gnu-toolchain/riscv-gcc/libgcc/soft-fp/muldf3.c:45
800060fa:	7ff00793          	li	a5,2047
800060fe:	10f50563          	beq	a0,a5,80006208 <__muldf3+0x172>
/home/xl_ci/toolchain/riscv-gnu-toolchain/riscv-gcc/libgcc/soft-fp/muldf3.c:45 (discriminator 1)
80006102:	01dbd793          	srli	a5,s7,0x1d
80006106:	040e                	slli	s0,s0,0x3
80006108:	8c5d                	or	s0,s0,a5
8000610a:	008007b7          	lui	a5,0x800
8000610e:	8c5d                	or	s0,s0,a5
80006110:	c0150513          	addi	a0,a0,-1023 # 7fc01 <__stack_size+0x7f401>
80006114:	003b9793          	slli	a5,s7,0x3
/home/xl_ci/toolchain/riscv-gnu-toolchain/riscv-gcc/libgcc/soft-fp/muldf3.c:45 (discriminator 41)
80006118:	4701                	li	a4,0
/home/xl_ci/toolchain/riscv-gnu-toolchain/riscv-gcc/libgcc/soft-fp/muldf3.c:46 (discriminator 8)
8000611a:	002b1693          	slli	a3,s6,0x2
8000611e:	8ed9                	or	a3,a3,a4
80006120:	954e                	add	a0,a0,s3
80006122:	16fd                	addi	a3,a3,-1
80006124:	4839                	li	a6,14
80006126:	015a4633          	xor	a2,s4,s5
8000612a:	00150593          	addi	a1,a0,1
8000612e:	0ed86e63          	bltu	a6,a3,8000622a <__muldf3+0x194>
80006132:	00001517          	auipc	a0,0x1
80006136:	70650513          	addi	a0,a0,1798 # 80007838 <_ctype_+0x140>
8000613a:	068a                	slli	a3,a3,0x2
8000613c:	96aa                	add	a3,a3,a0
8000613e:	4294                	lw	a3,0(a3)
80006140:	96aa                	add	a3,a3,a0
80006142:	8682                	jr	a3
/home/xl_ci/toolchain/riscv-gnu-toolchain/riscv-gcc/libgcc/soft-fp/muldf3.c:44 (discriminator 2)
80006144:	00a4e933          	or	s2,s1,a0
80006148:	04090f63          	beqz	s2,800061a6 <__muldf3+0x110>
/home/xl_ci/toolchain/riscv-gnu-toolchain/riscv-gcc/libgcc/soft-fp/muldf3.c:44 (discriminator 13)
8000614c:	c88d                	beqz	s1,8000617e <__muldf3+0xe8>
/home/xl_ci/toolchain/riscv-gnu-toolchain/riscv-gcc/libgcc/soft-fp/muldf3.c:44 (discriminator 17)
8000614e:	8526                	mv	a0,s1
80006150:	52f000ef          	jal	ra,80006e7e <__clzsi2>
/home/xl_ci/toolchain/riscv-gnu-toolchain/riscv-gcc/libgcc/soft-fp/muldf3.c:44 (discriminator 31)
80006154:	ff550713          	addi	a4,a0,-11
80006158:	47f1                	li	a5,28
8000615a:	02e7c763          	blt	a5,a4,80006188 <__muldf3+0xf2>
/home/xl_ci/toolchain/riscv-gnu-toolchain/riscv-gcc/libgcc/soft-fp/muldf3.c:44 (discriminator 32)
8000615e:	47f5                	li	a5,29
80006160:	ff850913          	addi	s2,a0,-8
80006164:	8f99                	sub	a5,a5,a4
80006166:	012494b3          	sll	s1,s1,s2
8000616a:	00f457b3          	srl	a5,s0,a5
8000616e:	8cdd                	or	s1,s1,a5
80006170:	01241933          	sll	s2,s0,s2
/home/xl_ci/toolchain/riscv-gnu-toolchain/riscv-gcc/libgcc/soft-fp/muldf3.c:44 (discriminator 41)
80006174:	c0d00993          	li	s3,-1011
80006178:	40a989b3          	sub	s3,s3,a0
8000617c:	b7a5                	j	800060e4 <__muldf3+0x4e>
/home/xl_ci/toolchain/riscv-gnu-toolchain/riscv-gcc/libgcc/soft-fp/muldf3.c:44 (discriminator 24)
8000617e:	501000ef          	jal	ra,80006e7e <__clzsi2>
80006182:	02050513          	addi	a0,a0,32
80006186:	b7f9                	j	80006154 <__muldf3+0xbe>
/home/xl_ci/toolchain/riscv-gnu-toolchain/riscv-gcc/libgcc/soft-fp/muldf3.c:44 (discriminator 33)
80006188:	fd850493          	addi	s1,a0,-40
8000618c:	009414b3          	sll	s1,s0,s1
80006190:	4901                	li	s2,0
80006192:	b7cd                	j	80006174 <__muldf3+0xde>
/home/xl_ci/toolchain/riscv-gnu-toolchain/riscv-gcc/libgcc/soft-fp/muldf3.c:44 (discriminator 3)
80006194:	00a4e933          	or	s2,s1,a0
80006198:	00090b63          	beqz	s2,800061ae <__muldf3+0x118>
/home/xl_ci/toolchain/riscv-gnu-toolchain/riscv-gcc/libgcc/soft-fp/muldf3.c:44
8000619c:	892a                	mv	s2,a0
8000619e:	7ff00993          	li	s3,2047
800061a2:	4b0d                	li	s6,3
800061a4:	b789                	j	800060e6 <__muldf3+0x50>
800061a6:	4481                	li	s1,0
800061a8:	4981                	li	s3,0
800061aa:	4b05                	li	s6,1
800061ac:	bf2d                	j	800060e6 <__muldf3+0x50>
800061ae:	4481                	li	s1,0
800061b0:	7ff00993          	li	s3,2047
800061b4:	4b09                	li	s6,2
800061b6:	bf05                	j	800060e6 <__muldf3+0x50>
/home/xl_ci/toolchain/riscv-gnu-toolchain/riscv-gcc/libgcc/soft-fp/muldf3.c:45 (discriminator 2)
800061b8:	017467b3          	or	a5,s0,s7
800061bc:	cfb1                	beqz	a5,80006218 <__muldf3+0x182>
/home/xl_ci/toolchain/riscv-gnu-toolchain/riscv-gcc/libgcc/soft-fp/muldf3.c:45 (discriminator 13)
800061be:	c80d                	beqz	s0,800061f0 <__muldf3+0x15a>
/home/xl_ci/toolchain/riscv-gnu-toolchain/riscv-gcc/libgcc/soft-fp/muldf3.c:45 (discriminator 17)
800061c0:	8522                	mv	a0,s0
800061c2:	4bd000ef          	jal	ra,80006e7e <__clzsi2>
/home/xl_ci/toolchain/riscv-gnu-toolchain/riscv-gcc/libgcc/soft-fp/muldf3.c:45 (discriminator 31)
800061c6:	ff550693          	addi	a3,a0,-11
800061ca:	47f1                	li	a5,28
800061cc:	02d7c863          	blt	a5,a3,800061fc <__muldf3+0x166>
/home/xl_ci/toolchain/riscv-gnu-toolchain/riscv-gcc/libgcc/soft-fp/muldf3.c:45 (discriminator 32)
800061d0:	4775                	li	a4,29
800061d2:	ff850793          	addi	a5,a0,-8
800061d6:	8f15                	sub	a4,a4,a3
800061d8:	00f41433          	sll	s0,s0,a5
800061dc:	00ebd733          	srl	a4,s7,a4
800061e0:	8c59                	or	s0,s0,a4
800061e2:	00fb97b3          	sll	a5,s7,a5
/home/xl_ci/toolchain/riscv-gnu-toolchain/riscv-gcc/libgcc/soft-fp/muldf3.c:45 (discriminator 41)
800061e6:	c0d00713          	li	a4,-1011
800061ea:	40a70533          	sub	a0,a4,a0
800061ee:	b72d                	j	80006118 <__muldf3+0x82>
/home/xl_ci/toolchain/riscv-gnu-toolchain/riscv-gcc/libgcc/soft-fp/muldf3.c:45 (discriminator 24)
800061f0:	855e                	mv	a0,s7
800061f2:	48d000ef          	jal	ra,80006e7e <__clzsi2>
800061f6:	02050513          	addi	a0,a0,32
800061fa:	b7f1                	j	800061c6 <__muldf3+0x130>
/home/xl_ci/toolchain/riscv-gnu-toolchain/riscv-gcc/libgcc/soft-fp/muldf3.c:45 (discriminator 33)
800061fc:	fd850413          	addi	s0,a0,-40
80006200:	008b9433          	sll	s0,s7,s0
80006204:	4781                	li	a5,0
80006206:	b7c5                	j	800061e6 <__muldf3+0x150>
/home/xl_ci/toolchain/riscv-gnu-toolchain/riscv-gcc/libgcc/soft-fp/muldf3.c:45 (discriminator 3)
80006208:	017467b3          	or	a5,s0,s7
8000620c:	cb91                	beqz	a5,80006220 <__muldf3+0x18a>
/home/xl_ci/toolchain/riscv-gnu-toolchain/riscv-gcc/libgcc/soft-fp/muldf3.c:45
8000620e:	87de                	mv	a5,s7
80006210:	7ff00513          	li	a0,2047
80006214:	470d                	li	a4,3
80006216:	b711                	j	8000611a <__muldf3+0x84>
80006218:	4401                	li	s0,0
8000621a:	4501                	li	a0,0
8000621c:	4705                	li	a4,1
8000621e:	bdf5                	j	8000611a <__muldf3+0x84>
80006220:	4401                	li	s0,0
80006222:	7ff00513          	li	a0,2047
80006226:	4709                	li	a4,2
80006228:	bdcd                	j	8000611a <__muldf3+0x84>
/home/xl_ci/toolchain/riscv-gnu-toolchain/riscv-gcc/libgcc/soft-fp/muldf3.c:46 (discriminator 2)
8000622a:	6f41                	lui	t5,0x10
8000622c:	ffff0e93          	addi	t4,t5,-1 # ffff <__stack_size+0xf7ff>
80006230:	01095713          	srli	a4,s2,0x10
80006234:	0107d893          	srli	a7,a5,0x10
80006238:	01d97933          	and	s2,s2,t4
8000623c:	01d7f7b3          	and	a5,a5,t4
80006240:	03288833          	mul	a6,a7,s2
80006244:	02f906b3          	mul	a3,s2,a5
80006248:	02f70fb3          	mul	t6,a4,a5
8000624c:	01f80333          	add	t1,a6,t6
80006250:	0106d813          	srli	a6,a3,0x10
80006254:	981a                	add	a6,a6,t1
80006256:	03170e33          	mul	t3,a4,a7
8000625a:	01f87363          	bgeu	a6,t6,80006260 <__muldf3+0x1ca>
/home/xl_ci/toolchain/riscv-gnu-toolchain/riscv-gcc/libgcc/soft-fp/muldf3.c:46 (discriminator 9)
8000625e:	9e7a                	add	t3,t3,t5
/home/xl_ci/toolchain/riscv-gnu-toolchain/riscv-gcc/libgcc/soft-fp/muldf3.c:46 (discriminator 11)
80006260:	01085393          	srli	t2,a6,0x10
80006264:	01d87833          	and	a6,a6,t4
80006268:	01d6f6b3          	and	a3,a3,t4
8000626c:	01045f13          	srli	t5,s0,0x10
80006270:	01d472b3          	and	t0,s0,t4
80006274:	0842                	slli	a6,a6,0x10
80006276:	9836                	add	a6,a6,a3
80006278:	02570eb3          	mul	t4,a4,t0
8000627c:	025906b3          	mul	a3,s2,t0
80006280:	032f0933          	mul	s2,t5,s2
80006284:	01d90333          	add	t1,s2,t4
80006288:	0106d913          	srli	s2,a3,0x10
8000628c:	991a                	add	s2,s2,t1
8000628e:	03e70733          	mul	a4,a4,t5
80006292:	01d97463          	bgeu	s2,t4,8000629a <__muldf3+0x204>
/home/xl_ci/toolchain/riscv-gnu-toolchain/riscv-gcc/libgcc/soft-fp/muldf3.c:46 (discriminator 12)
80006296:	6341                	lui	t1,0x10
80006298:	971a                	add	a4,a4,t1
/home/xl_ci/toolchain/riscv-gnu-toolchain/riscv-gcc/libgcc/soft-fp/muldf3.c:46 (discriminator 14)
8000629a:	01095e93          	srli	t4,s2,0x10
8000629e:	69c1                	lui	s3,0x10
800062a0:	9eba                	add	t4,t4,a4
800062a2:	fff98713          	addi	a4,s3,-1 # ffff <__stack_size+0xf7ff>
800062a6:	00e97933          	and	s2,s2,a4
800062aa:	8ef9                	and	a3,a3,a4
800062ac:	0104d413          	srli	s0,s1,0x10
800062b0:	0942                	slli	s2,s2,0x10
800062b2:	8cf9                	and	s1,s1,a4
800062b4:	02978733          	mul	a4,a5,s1
800062b8:	9936                	add	s2,s2,a3
800062ba:	93ca                	add	t2,t2,s2
800062bc:	02f40333          	mul	t1,s0,a5
800062c0:	029886b3          	mul	a3,a7,s1
800062c4:	028887b3          	mul	a5,a7,s0
800062c8:	006688b3          	add	a7,a3,t1
800062cc:	01075693          	srli	a3,a4,0x10
800062d0:	96c6                	add	a3,a3,a7
800062d2:	0066f363          	bgeu	a3,t1,800062d8 <__muldf3+0x242>
/home/xl_ci/toolchain/riscv-gnu-toolchain/riscv-gcc/libgcc/soft-fp/muldf3.c:46 (discriminator 15)
800062d6:	97ce                	add	a5,a5,s3
/home/xl_ci/toolchain/riscv-gnu-toolchain/riscv-gcc/libgcc/soft-fp/muldf3.c:46 (discriminator 17)
800062d8:	0106d893          	srli	a7,a3,0x10
800062dc:	69c1                	lui	s3,0x10
800062de:	00f88fb3          	add	t6,a7,a5
800062e2:	fff98793          	addi	a5,s3,-1 # ffff <__stack_size+0xf7ff>
800062e6:	029288b3          	mul	a7,t0,s1
800062ea:	8efd                	and	a3,a3,a5
800062ec:	8f7d                	and	a4,a4,a5
800062ee:	06c2                	slli	a3,a3,0x10
800062f0:	96ba                	add	a3,a3,a4
800062f2:	025407b3          	mul	a5,s0,t0
800062f6:	029f04b3          	mul	s1,t5,s1
800062fa:	028f0333          	mul	t1,t5,s0
800062fe:	94be                	add	s1,s1,a5
80006300:	0108d413          	srli	s0,a7,0x10
80006304:	94a2                	add	s1,s1,s0
80006306:	00f4f363          	bgeu	s1,a5,8000630c <__muldf3+0x276>
/home/xl_ci/toolchain/riscv-gnu-toolchain/riscv-gcc/libgcc/soft-fp/muldf3.c:46 (discriminator 18)
8000630a:	934e                	add	t1,t1,s3
/home/xl_ci/toolchain/riscv-gnu-toolchain/riscv-gcc/libgcc/soft-fp/muldf3.c:46 (discriminator 20)
8000630c:	67c1                	lui	a5,0x10
8000630e:	17fd                	addi	a5,a5,-1
80006310:	00f4f733          	and	a4,s1,a5
80006314:	00f8f8b3          	and	a7,a7,a5
80006318:	0742                	slli	a4,a4,0x10
8000631a:	9e1e                	add	t3,t3,t2
8000631c:	9746                	add	a4,a4,a7
8000631e:	012e3933          	sltu	s2,t3,s2
80006322:	9776                	add	a4,a4,t4
80006324:	01270433          	add	s0,a4,s2
80006328:	9e36                	add	t3,t3,a3
8000632a:	00de36b3          	sltu	a3,t3,a3
8000632e:	01f408b3          	add	a7,s0,t6
80006332:	00d88f33          	add	t5,a7,a3
80006336:	01d73733          	sltu	a4,a4,t4
8000633a:	01243433          	sltu	s0,s0,s2
8000633e:	8c59                	or	s0,s0,a4
80006340:	80c1                	srli	s1,s1,0x10
80006342:	01f8b8b3          	sltu	a7,a7,t6
80006346:	00df36b3          	sltu	a3,t5,a3
8000634a:	9426                	add	s0,s0,s1
8000634c:	00d8e6b3          	or	a3,a7,a3
80006350:	9436                	add	s0,s0,a3
80006352:	941a                	add	s0,s0,t1
80006354:	017f5793          	srli	a5,t5,0x17
80006358:	0426                	slli	s0,s0,0x9
8000635a:	8c5d                	or	s0,s0,a5
8000635c:	009e1793          	slli	a5,t3,0x9
80006360:	0107e7b3          	or	a5,a5,a6
80006364:	00f037b3          	snez	a5,a5
80006368:	017e5e13          	srli	t3,t3,0x17
8000636c:	009f1713          	slli	a4,t5,0x9
80006370:	01c7e7b3          	or	a5,a5,t3
80006374:	8fd9                	or	a5,a5,a4
80006376:	01000737          	lui	a4,0x1000
8000637a:	8f61                	and	a4,a4,s0
8000637c:	cb4d                	beqz	a4,8000642e <__muldf3+0x398>
/home/xl_ci/toolchain/riscv-gnu-toolchain/riscv-gcc/libgcc/soft-fp/muldf3.c:46 (discriminator 38)
8000637e:	0017d713          	srli	a4,a5,0x1
80006382:	8b85                	andi	a5,a5,1
80006384:	8fd9                	or	a5,a5,a4
80006386:	01f41713          	slli	a4,s0,0x1f
8000638a:	8fd9                	or	a5,a5,a4
8000638c:	8005                	srli	s0,s0,0x1
/home/xl_ci/toolchain/riscv-gnu-toolchain/riscv-gcc/libgcc/soft-fp/muldf3.c:47 (discriminator 2)
8000638e:	3ff58693          	addi	a3,a1,1023
80006392:	0ad05063          	blez	a3,80006432 <__muldf3+0x39c>
/home/xl_ci/toolchain/riscv-gnu-toolchain/riscv-gcc/libgcc/soft-fp/muldf3.c:47 (discriminator 6)
80006396:	0077f713          	andi	a4,a5,7
8000639a:	cf01                	beqz	a4,800063b2 <__muldf3+0x31c>
/home/xl_ci/toolchain/riscv-gnu-toolchain/riscv-gcc/libgcc/soft-fp/muldf3.c:47 (discriminator 8)
8000639c:	00f7f713          	andi	a4,a5,15
800063a0:	4511                	li	a0,4
800063a2:	00a70863          	beq	a4,a0,800063b2 <__muldf3+0x31c>
/home/xl_ci/toolchain/riscv-gnu-toolchain/riscv-gcc/libgcc/soft-fp/muldf3.c:47 (discriminator 10)
800063a6:	00478713          	addi	a4,a5,4 # 10004 <__stack_size+0xf804>
800063aa:	00f737b3          	sltu	a5,a4,a5
800063ae:	943e                	add	s0,s0,a5
800063b0:	87ba                	mv	a5,a4
/home/xl_ci/toolchain/riscv-gnu-toolchain/riscv-gcc/libgcc/soft-fp/muldf3.c:47 (discriminator 9)
800063b2:	01000737          	lui	a4,0x1000
800063b6:	8f61                	and	a4,a4,s0
800063b8:	c719                	beqz	a4,800063c6 <__muldf3+0x330>
/home/xl_ci/toolchain/riscv-gnu-toolchain/riscv-gcc/libgcc/soft-fp/muldf3.c:47 (discriminator 24)
800063ba:	ff000737          	lui	a4,0xff000
800063be:	177d                	addi	a4,a4,-1
800063c0:	8c79                	and	s0,s0,a4
800063c2:	40058693          	addi	a3,a1,1024
/home/xl_ci/toolchain/riscv-gnu-toolchain/riscv-gcc/libgcc/soft-fp/muldf3.c:47 (discriminator 26)
800063c6:	7fe00713          	li	a4,2046
800063ca:	0ed74e63          	blt	a4,a3,800064c6 <__muldf3+0x430>
/home/xl_ci/toolchain/riscv-gnu-toolchain/riscv-gcc/libgcc/soft-fp/muldf3.c:47
800063ce:	0037d713          	srli	a4,a5,0x3
800063d2:	01d41793          	slli	a5,s0,0x1d
800063d6:	8fd9                	or	a5,a5,a4
800063d8:	800d                	srli	s0,s0,0x3
/home/xl_ci/toolchain/riscv-gnu-toolchain/riscv-gcc/libgcc/soft-fp/muldf3.c:47 (discriminator 119)
800063da:	01469713          	slli	a4,a3,0x14
800063de:	0432                	slli	s0,s0,0xc
800063e0:	7ff006b7          	lui	a3,0x7ff00
800063e4:	8f75                	and	a4,a4,a3
800063e6:	8031                	srli	s0,s0,0xc
800063e8:	8c59                	or	s0,s0,a4
800063ea:	067e                	slli	a2,a2,0x1f
/home/xl_ci/toolchain/riscv-gnu-toolchain/riscv-gcc/libgcc/soft-fp/muldf3.c:51 (discriminator 119)
800063ec:	50b2                	lw	ra,44(sp)
/home/xl_ci/toolchain/riscv-gnu-toolchain/riscv-gcc/libgcc/soft-fp/muldf3.c:47 (discriminator 119)
800063ee:	00c46733          	or	a4,s0,a2
/home/xl_ci/toolchain/riscv-gnu-toolchain/riscv-gcc/libgcc/soft-fp/muldf3.c:51 (discriminator 119)
800063f2:	5422                	lw	s0,40(sp)
800063f4:	5492                	lw	s1,36(sp)
800063f6:	5902                	lw	s2,32(sp)
800063f8:	49f2                	lw	s3,28(sp)
800063fa:	4a62                	lw	s4,24(sp)
800063fc:	4ad2                	lw	s5,20(sp)
800063fe:	4b42                	lw	s6,16(sp)
80006400:	4bb2                	lw	s7,12(sp)
80006402:	853e                	mv	a0,a5
80006404:	85ba                	mv	a1,a4
80006406:	6145                	addi	sp,sp,48
80006408:	8082                	ret
/home/xl_ci/toolchain/riscv-gnu-toolchain/riscv-gcc/libgcc/soft-fp/muldf3.c:44 (discriminator 7)
8000640a:	8652                	mv	a2,s4
/home/xl_ci/toolchain/riscv-gnu-toolchain/riscv-gcc/libgcc/soft-fp/muldf3.c:46 (discriminator 7)
8000640c:	8426                	mv	s0,s1
8000640e:	87ca                	mv	a5,s2
80006410:	875a                	mv	a4,s6
/home/xl_ci/toolchain/riscv-gnu-toolchain/riscv-gcc/libgcc/soft-fp/muldf3.c:47 (discriminator 47)
80006412:	4689                	li	a3,2
80006414:	0ad70963          	beq	a4,a3,800064c6 <__muldf3+0x430>
/home/xl_ci/toolchain/riscv-gnu-toolchain/riscv-gcc/libgcc/soft-fp/muldf3.c:47
80006418:	468d                	li	a3,3
8000641a:	08d70f63          	beq	a4,a3,800064b8 <__muldf3+0x422>
8000641e:	4685                	li	a3,1
80006420:	f6d717e3          	bne	a4,a3,8000638e <__muldf3+0x2f8>
80006424:	4401                	li	s0,0
80006426:	4781                	li	a5,0
80006428:	a09d                	j	8000648e <__muldf3+0x3f8>
/home/xl_ci/toolchain/riscv-gnu-toolchain/riscv-gcc/libgcc/soft-fp/muldf3.c:45 (discriminator 4)
8000642a:	8656                	mv	a2,s5
/home/xl_ci/toolchain/riscv-gnu-toolchain/riscv-gcc/libgcc/soft-fp/muldf3.c:46 (discriminator 4)
8000642c:	b7dd                	j	80006412 <__muldf3+0x37c>
/home/xl_ci/toolchain/riscv-gnu-toolchain/riscv-gcc/libgcc/soft-fp/muldf3.c:46
8000642e:	85aa                	mv	a1,a0
80006430:	bfb9                	j	8000638e <__muldf3+0x2f8>
/home/xl_ci/toolchain/riscv-gnu-toolchain/riscv-gcc/libgcc/soft-fp/muldf3.c:47 (discriminator 59)
80006432:	4505                	li	a0,1
80006434:	8d15                	sub	a0,a0,a3
80006436:	03800713          	li	a4,56
8000643a:	fea745e3          	blt	a4,a0,80006424 <__muldf3+0x38e>
/home/xl_ci/toolchain/riscv-gnu-toolchain/riscv-gcc/libgcc/soft-fp/muldf3.c:47 (discriminator 60)
8000643e:	477d                	li	a4,31
80006440:	04a74963          	blt	a4,a0,80006492 <__muldf3+0x3fc>
/home/xl_ci/toolchain/riscv-gnu-toolchain/riscv-gcc/libgcc/soft-fp/muldf3.c:47 (discriminator 62)
80006444:	41e58593          	addi	a1,a1,1054
80006448:	00b41733          	sll	a4,s0,a1
8000644c:	00a7d6b3          	srl	a3,a5,a0
80006450:	00b797b3          	sll	a5,a5,a1
80006454:	8f55                	or	a4,a4,a3
80006456:	00f037b3          	snez	a5,a5
8000645a:	8fd9                	or	a5,a5,a4
8000645c:	00a45433          	srl	s0,s0,a0
/home/xl_ci/toolchain/riscv-gnu-toolchain/riscv-gcc/libgcc/soft-fp/muldf3.c:47 (discriminator 75)
80006460:	0077f713          	andi	a4,a5,7
80006464:	cf01                	beqz	a4,8000647c <__muldf3+0x3e6>
/home/xl_ci/toolchain/riscv-gnu-toolchain/riscv-gcc/libgcc/soft-fp/muldf3.c:47 (discriminator 76)
80006466:	00f7f713          	andi	a4,a5,15
8000646a:	4691                	li	a3,4
8000646c:	00d70863          	beq	a4,a3,8000647c <__muldf3+0x3e6>
/home/xl_ci/toolchain/riscv-gnu-toolchain/riscv-gcc/libgcc/soft-fp/muldf3.c:47 (discriminator 78)
80006470:	00478713          	addi	a4,a5,4
80006474:	00f737b3          	sltu	a5,a4,a5
80006478:	943e                	add	s0,s0,a5
8000647a:	87ba                	mv	a5,a4
/home/xl_ci/toolchain/riscv-gnu-toolchain/riscv-gcc/libgcc/soft-fp/muldf3.c:47 (discriminator 77)
8000647c:	00800737          	lui	a4,0x800
80006480:	8f61                	and	a4,a4,s0
80006482:	e739                	bnez	a4,800064d0 <__muldf3+0x43a>
/home/xl_ci/toolchain/riscv-gnu-toolchain/riscv-gcc/libgcc/soft-fp/muldf3.c:47 (discriminator 93)
80006484:	01d41713          	slli	a4,s0,0x1d
80006488:	838d                	srli	a5,a5,0x3
8000648a:	8fd9                	or	a5,a5,a4
8000648c:	800d                	srli	s0,s0,0x3
/home/xl_ci/toolchain/riscv-gnu-toolchain/riscv-gcc/libgcc/soft-fp/muldf3.c:47
8000648e:	4681                	li	a3,0
80006490:	b7a9                	j	800063da <__muldf3+0x344>
/home/xl_ci/toolchain/riscv-gnu-toolchain/riscv-gcc/libgcc/soft-fp/muldf3.c:47 (discriminator 63)
80006492:	5705                	li	a4,-31
80006494:	8f15                	sub	a4,a4,a3
80006496:	02000813          	li	a6,32
8000649a:	00e45733          	srl	a4,s0,a4
8000649e:	4681                	li	a3,0
800064a0:	01050663          	beq	a0,a6,800064ac <__muldf3+0x416>
/home/xl_ci/toolchain/riscv-gnu-toolchain/riscv-gcc/libgcc/soft-fp/muldf3.c:47 (discriminator 71)
800064a4:	43e58593          	addi	a1,a1,1086
800064a8:	00b416b3          	sll	a3,s0,a1
/home/xl_ci/toolchain/riscv-gnu-toolchain/riscv-gcc/libgcc/soft-fp/muldf3.c:47 (discriminator 74)
800064ac:	8fd5                	or	a5,a5,a3
800064ae:	00f037b3          	snez	a5,a5
800064b2:	8fd9                	or	a5,a5,a4
800064b4:	4401                	li	s0,0
800064b6:	b76d                	j	80006460 <__muldf3+0x3ca>
/home/xl_ci/toolchain/riscv-gnu-toolchain/riscv-gcc/libgcc/soft-fp/muldf3.c:47
800064b8:	00080437          	lui	s0,0x80
800064bc:	4781                	li	a5,0
800064be:	7ff00693          	li	a3,2047
800064c2:	4601                	li	a2,0
800064c4:	bf19                	j	800063da <__muldf3+0x344>
800064c6:	4401                	li	s0,0
800064c8:	4781                	li	a5,0
800064ca:	7ff00693          	li	a3,2047
800064ce:	b731                	j	800063da <__muldf3+0x344>
800064d0:	4401                	li	s0,0
800064d2:	4781                	li	a5,0
800064d4:	4685                	li	a3,1
800064d6:	b711                	j	800063da <__muldf3+0x344>

800064d8 <__subdf3>:
__subdf3():
/home/xl_ci/toolchain/riscv-gnu-toolchain/riscv-gcc/libgcc/soft-fp/subdf3.c:44
800064d8:	00100837          	lui	a6,0x100
800064dc:	187d                	addi	a6,a6,-1
/home/xl_ci/toolchain/riscv-gnu-toolchain/riscv-gcc/libgcc/soft-fp/subdf3.c:36
800064de:	1101                	addi	sp,sp,-32
/home/xl_ci/toolchain/riscv-gnu-toolchain/riscv-gcc/libgcc/soft-fp/subdf3.c:44
800064e0:	00b877b3          	and	a5,a6,a1
800064e4:	0145d713          	srli	a4,a1,0x14
/home/xl_ci/toolchain/riscv-gnu-toolchain/riscv-gcc/libgcc/soft-fp/subdf3.c:45
800064e8:	00d87833          	and	a6,a6,a3
800064ec:	0146d313          	srli	t1,a3,0x14
/home/xl_ci/toolchain/riscv-gnu-toolchain/riscv-gcc/libgcc/soft-fp/subdf3.c:36
800064f0:	cc22                	sw	s0,24(sp)
/home/xl_ci/toolchain/riscv-gnu-toolchain/riscv-gcc/libgcc/soft-fp/subdf3.c:44
800064f2:	078e                	slli	a5,a5,0x3
800064f4:	7ff77413          	andi	s0,a4,2047
800064f8:	01d55713          	srli	a4,a0,0x1d
/home/xl_ci/toolchain/riscv-gnu-toolchain/riscv-gcc/libgcc/soft-fp/subdf3.c:36
800064fc:	ca26                	sw	s1,20(sp)
/home/xl_ci/toolchain/riscv-gnu-toolchain/riscv-gcc/libgcc/soft-fp/subdf3.c:44
800064fe:	8fd9                	or	a5,a5,a4
80006500:	01f5d493          	srli	s1,a1,0x1f
/home/xl_ci/toolchain/riscv-gnu-toolchain/riscv-gcc/libgcc/soft-fp/subdf3.c:45
80006504:	01d65713          	srli	a4,a2,0x1d
/home/xl_ci/toolchain/riscv-gnu-toolchain/riscv-gcc/libgcc/soft-fp/subdf3.c:44
80006508:	00351593          	slli	a1,a0,0x3
/home/xl_ci/toolchain/riscv-gnu-toolchain/riscv-gcc/libgcc/soft-fp/subdf3.c:45
8000650c:	080e                	slli	a6,a6,0x3
/home/xl_ci/toolchain/riscv-gnu-toolchain/riscv-gcc/libgcc/soft-fp/subdf3.c:36
8000650e:	ce06                	sw	ra,28(sp)
80006510:	c84a                	sw	s2,16(sp)
80006512:	c64e                	sw	s3,12(sp)
/home/xl_ci/toolchain/riscv-gnu-toolchain/riscv-gcc/libgcc/soft-fp/subdf3.c:45
80006514:	7ff37313          	andi	t1,t1,2047
/home/xl_ci/toolchain/riscv-gnu-toolchain/riscv-gcc/libgcc/soft-fp/subdf3.c:46
80006518:	7ff00513          	li	a0,2047
/home/xl_ci/toolchain/riscv-gnu-toolchain/riscv-gcc/libgcc/soft-fp/subdf3.c:45
8000651c:	82fd                	srli	a3,a3,0x1f
8000651e:	01076733          	or	a4,a4,a6
80006522:	060e                	slli	a2,a2,0x3
/home/xl_ci/toolchain/riscv-gnu-toolchain/riscv-gcc/libgcc/soft-fp/subdf3.c:46
80006524:	00a31563          	bne	t1,a0,8000652e <__subdf3+0x56>
/home/xl_ci/toolchain/riscv-gnu-toolchain/riscv-gcc/libgcc/soft-fp/subdf3.c:46 (discriminator 2)
80006528:	00c76533          	or	a0,a4,a2
8000652c:	e119                	bnez	a0,80006532 <__subdf3+0x5a>
/home/xl_ci/toolchain/riscv-gnu-toolchain/riscv-gcc/libgcc/soft-fp/subdf3.c:46 (discriminator 3)
8000652e:	0016c693          	xori	a3,a3,1
/home/xl_ci/toolchain/riscv-gnu-toolchain/riscv-gcc/libgcc/soft-fp/subdf3.c:46 (discriminator 11)
80006532:	40640833          	sub	a6,s0,t1
80006536:	22969863          	bne	a3,s1,80006766 <__subdf3+0x28e>
/home/xl_ci/toolchain/riscv-gnu-toolchain/riscv-gcc/libgcc/soft-fp/subdf3.c:46 (discriminator 12)
8000653a:	0f005363          	blez	a6,80006620 <__subdf3+0x148>
/home/xl_ci/toolchain/riscv-gnu-toolchain/riscv-gcc/libgcc/soft-fp/subdf3.c:46 (discriminator 14)
8000653e:	02031863          	bnez	t1,8000656e <__subdf3+0x96>
/home/xl_ci/toolchain/riscv-gnu-toolchain/riscv-gcc/libgcc/soft-fp/subdf3.c:46 (discriminator 16)
80006542:	00c766b3          	or	a3,a4,a2
80006546:	58068163          	beqz	a3,80006ac8 <__subdf3+0x5f0>
/home/xl_ci/toolchain/riscv-gnu-toolchain/riscv-gcc/libgcc/soft-fp/subdf3.c:46 (discriminator 19)
8000654a:	fff80513          	addi	a0,a6,-1 # fffff <__stack_size+0xff7ff>
8000654e:	e909                	bnez	a0,80006560 <__subdf3+0x88>
/home/xl_ci/toolchain/riscv-gnu-toolchain/riscv-gcc/libgcc/soft-fp/subdf3.c:46 (discriminator 28)
80006550:	962e                	add	a2,a2,a1
80006552:	00b63533          	sltu	a0,a2,a1
80006556:	97ba                	add	a5,a5,a4
80006558:	97aa                	add	a5,a5,a0
8000655a:	85b2                	mv	a1,a2
/home/xl_ci/toolchain/riscv-gnu-toolchain/riscv-gcc/libgcc/soft-fp/subdf3.c:45 (discriminator 85)
8000655c:	4405                	li	s0,1
/home/xl_ci/toolchain/riscv-gnu-toolchain/riscv-gcc/libgcc/soft-fp/subdf3.c:46 (discriminator 85)
8000655e:	a8b9                	j	800065bc <__subdf3+0xe4>
/home/xl_ci/toolchain/riscv-gnu-toolchain/riscv-gcc/libgcc/soft-fp/subdf3.c:46 (discriminator 29)
80006560:	7ff00693          	li	a3,2047
80006564:	00d81d63          	bne	a6,a3,8000657e <__subdf3+0xa6>
/home/xl_ci/toolchain/riscv-gnu-toolchain/riscv-gcc/libgcc/soft-fp/subdf3.c:46
80006568:	7ff00413          	li	s0,2047
8000656c:	a24d                	j	8000670e <__subdf3+0x236>
/home/xl_ci/toolchain/riscv-gnu-toolchain/riscv-gcc/libgcc/soft-fp/subdf3.c:46 (discriminator 17)
8000656e:	7ff00693          	li	a3,2047
80006572:	18d40e63          	beq	s0,a3,8000670e <__subdf3+0x236>
/home/xl_ci/toolchain/riscv-gnu-toolchain/riscv-gcc/libgcc/soft-fp/subdf3.c:46 (discriminator 43)
80006576:	008006b7          	lui	a3,0x800
8000657a:	8f55                	or	a4,a4,a3
8000657c:	8542                	mv	a0,a6
/home/xl_ci/toolchain/riscv-gnu-toolchain/riscv-gcc/libgcc/soft-fp/subdf3.c:46 (discriminator 52)
8000657e:	03800693          	li	a3,56
80006582:	08a6cb63          	blt	a3,a0,80006618 <__subdf3+0x140>
/home/xl_ci/toolchain/riscv-gnu-toolchain/riscv-gcc/libgcc/soft-fp/subdf3.c:46 (discriminator 53)
80006586:	46fd                	li	a3,31
80006588:	06a6c263          	blt	a3,a0,800065ec <__subdf3+0x114>
/home/xl_ci/toolchain/riscv-gnu-toolchain/riscv-gcc/libgcc/soft-fp/subdf3.c:46 (discriminator 55)
8000658c:	02000813          	li	a6,32
80006590:	40a80833          	sub	a6,a6,a0
80006594:	010716b3          	sll	a3,a4,a6
80006598:	00a658b3          	srl	a7,a2,a0
8000659c:	01061633          	sll	a2,a2,a6
800065a0:	0116e6b3          	or	a3,a3,a7
800065a4:	00c03633          	snez	a2,a2
800065a8:	8e55                	or	a2,a2,a3
800065aa:	00a75733          	srl	a4,a4,a0
/home/xl_ci/toolchain/riscv-gnu-toolchain/riscv-gcc/libgcc/soft-fp/subdf3.c:46 (discriminator 69)
800065ae:	962e                	add	a2,a2,a1
800065b0:	00b63533          	sltu	a0,a2,a1
800065b4:	973e                	add	a4,a4,a5
800065b6:	00a707b3          	add	a5,a4,a0
800065ba:	85b2                	mv	a1,a2
/home/xl_ci/toolchain/riscv-gnu-toolchain/riscv-gcc/libgcc/soft-fp/subdf3.c:46 (discriminator 127)
800065bc:	00800737          	lui	a4,0x800
800065c0:	8f7d                	and	a4,a4,a5
800065c2:	14070663          	beqz	a4,8000670e <__subdf3+0x236>
/home/xl_ci/toolchain/riscv-gnu-toolchain/riscv-gcc/libgcc/soft-fp/subdf3.c:46 (discriminator 187)
800065c6:	0405                	addi	s0,s0,1
800065c8:	7ff00713          	li	a4,2047
800065cc:	48e40b63          	beq	s0,a4,80006a62 <__subdf3+0x58a>
/home/xl_ci/toolchain/riscv-gnu-toolchain/riscv-gcc/libgcc/soft-fp/subdf3.c:46
800065d0:	ff800737          	lui	a4,0xff800
800065d4:	177d                	addi	a4,a4,-1
800065d6:	8ff9                	and	a5,a5,a4
800065d8:	0015f513          	andi	a0,a1,1
800065dc:	0015d713          	srli	a4,a1,0x1
800065e0:	8d59                	or	a0,a0,a4
800065e2:	01f79593          	slli	a1,a5,0x1f
800065e6:	8dc9                	or	a1,a1,a0
800065e8:	8385                	srli	a5,a5,0x1
800065ea:	a215                	j	8000670e <__subdf3+0x236>
/home/xl_ci/toolchain/riscv-gnu-toolchain/riscv-gcc/libgcc/soft-fp/subdf3.c:46 (discriminator 56)
800065ec:	fe050693          	addi	a3,a0,-32
800065f0:	02000893          	li	a7,32
800065f4:	00d756b3          	srl	a3,a4,a3
800065f8:	4801                	li	a6,0
800065fa:	01150863          	beq	a0,a7,8000660a <__subdf3+0x132>
/home/xl_ci/toolchain/riscv-gnu-toolchain/riscv-gcc/libgcc/soft-fp/subdf3.c:46 (discriminator 63)
800065fe:	04000813          	li	a6,64
80006602:	40a80533          	sub	a0,a6,a0
80006606:	00a71833          	sll	a6,a4,a0
/home/xl_ci/toolchain/riscv-gnu-toolchain/riscv-gcc/libgcc/soft-fp/subdf3.c:46 (discriminator 66)
8000660a:	00c86633          	or	a2,a6,a2
8000660e:	00c03633          	snez	a2,a2
80006612:	8e55                	or	a2,a2,a3
/home/xl_ci/toolchain/riscv-gnu-toolchain/riscv-gcc/libgcc/soft-fp/subdf3.c:46 (discriminator 54)
80006614:	4701                	li	a4,0
80006616:	bf61                	j	800065ae <__subdf3+0xd6>
80006618:	8e59                	or	a2,a2,a4
8000661a:	00c03633          	snez	a2,a2
8000661e:	bfdd                	j	80006614 <__subdf3+0x13c>
/home/xl_ci/toolchain/riscv-gnu-toolchain/riscv-gcc/libgcc/soft-fp/subdf3.c:46 (discriminator 15)
80006620:	0a080b63          	beqz	a6,800066d6 <__subdf3+0x1fe>
/home/xl_ci/toolchain/riscv-gnu-toolchain/riscv-gcc/libgcc/soft-fp/subdf3.c:46 (discriminator 71)
80006624:	40830533          	sub	a0,t1,s0
80006628:	e40d                	bnez	s0,80006652 <__subdf3+0x17a>
/home/xl_ci/toolchain/riscv-gnu-toolchain/riscv-gcc/libgcc/soft-fp/subdf3.c:46 (discriminator 73)
8000662a:	00b7e6b3          	or	a3,a5,a1
8000662e:	42068163          	beqz	a3,80006a50 <__subdf3+0x578>
/home/xl_ci/toolchain/riscv-gnu-toolchain/riscv-gcc/libgcc/soft-fp/subdf3.c:46 (discriminator 76)
80006632:	fff50693          	addi	a3,a0,-1
80006636:	e699                	bnez	a3,80006644 <__subdf3+0x16c>
/home/xl_ci/toolchain/riscv-gnu-toolchain/riscv-gcc/libgcc/soft-fp/subdf3.c:46 (discriminator 85)
80006638:	95b2                	add	a1,a1,a2
8000663a:	97ba                	add	a5,a5,a4
8000663c:	00c5b633          	sltu	a2,a1,a2
80006640:	97b2                	add	a5,a5,a2
80006642:	bf29                	j	8000655c <__subdf3+0x84>
/home/xl_ci/toolchain/riscv-gnu-toolchain/riscv-gcc/libgcc/soft-fp/subdf3.c:46 (discriminator 86)
80006644:	7ff00813          	li	a6,2047
80006648:	01051d63          	bne	a0,a6,80006662 <__subdf3+0x18a>
/home/xl_ci/toolchain/riscv-gnu-toolchain/riscv-gcc/libgcc/soft-fp/subdf3.c:45
8000664c:	87ba                	mv	a5,a4
8000664e:	85b2                	mv	a1,a2
80006650:	bf21                	j	80006568 <__subdf3+0x90>
/home/xl_ci/toolchain/riscv-gnu-toolchain/riscv-gcc/libgcc/soft-fp/subdf3.c:46 (discriminator 74)
80006652:	7ff00693          	li	a3,2047
80006656:	fed30be3          	beq	t1,a3,8000664c <__subdf3+0x174>
/home/xl_ci/toolchain/riscv-gnu-toolchain/riscv-gcc/libgcc/soft-fp/subdf3.c:46 (discriminator 100)
8000665a:	008006b7          	lui	a3,0x800
8000665e:	8fd5                	or	a5,a5,a3
80006660:	86aa                	mv	a3,a0
/home/xl_ci/toolchain/riscv-gnu-toolchain/riscv-gcc/libgcc/soft-fp/subdf3.c:46 (discriminator 109)
80006662:	03800513          	li	a0,56
80006666:	06d54363          	blt	a0,a3,800066cc <__subdf3+0x1f4>
/home/xl_ci/toolchain/riscv-gnu-toolchain/riscv-gcc/libgcc/soft-fp/subdf3.c:46 (discriminator 110)
8000666a:	457d                	li	a0,31
8000666c:	02d54b63          	blt	a0,a3,800066a2 <__subdf3+0x1ca>
/home/xl_ci/toolchain/riscv-gnu-toolchain/riscv-gcc/libgcc/soft-fp/subdf3.c:46 (discriminator 112)
80006670:	02000813          	li	a6,32
80006674:	40d80833          	sub	a6,a6,a3
80006678:	01079533          	sll	a0,a5,a6
8000667c:	00d5d8b3          	srl	a7,a1,a3
80006680:	010595b3          	sll	a1,a1,a6
80006684:	01156533          	or	a0,a0,a7
80006688:	00b035b3          	snez	a1,a1
8000668c:	8d4d                	or	a0,a0,a1
8000668e:	00d7d7b3          	srl	a5,a5,a3
/home/xl_ci/toolchain/riscv-gnu-toolchain/riscv-gcc/libgcc/soft-fp/subdf3.c:46 (discriminator 126)
80006692:	00c505b3          	add	a1,a0,a2
80006696:	97ba                	add	a5,a5,a4
80006698:	00c5b633          	sltu	a2,a1,a2
8000669c:	97b2                	add	a5,a5,a2
/home/xl_ci/toolchain/riscv-gnu-toolchain/riscv-gcc/libgcc/soft-fp/subdf3.c:45 (discriminator 126)
8000669e:	841a                	mv	s0,t1
800066a0:	bf31                	j	800065bc <__subdf3+0xe4>
/home/xl_ci/toolchain/riscv-gnu-toolchain/riscv-gcc/libgcc/soft-fp/subdf3.c:46 (discriminator 113)
800066a2:	fe068513          	addi	a0,a3,-32 # 7fffe0 <__stack_size+0x7ff7e0>
800066a6:	02000893          	li	a7,32
800066aa:	00a7d833          	srl	a6,a5,a0
800066ae:	4501                	li	a0,0
800066b0:	01168763          	beq	a3,a7,800066be <__subdf3+0x1e6>
/home/xl_ci/toolchain/riscv-gnu-toolchain/riscv-gcc/libgcc/soft-fp/subdf3.c:46 (discriminator 120)
800066b4:	04000513          	li	a0,64
800066b8:	8d15                	sub	a0,a0,a3
800066ba:	00a79533          	sll	a0,a5,a0
/home/xl_ci/toolchain/riscv-gnu-toolchain/riscv-gcc/libgcc/soft-fp/subdf3.c:46 (discriminator 123)
800066be:	8d4d                	or	a0,a0,a1
800066c0:	00a03533          	snez	a0,a0
800066c4:	00a86533          	or	a0,a6,a0
/home/xl_ci/toolchain/riscv-gnu-toolchain/riscv-gcc/libgcc/soft-fp/subdf3.c:46 (discriminator 111)
800066c8:	4781                	li	a5,0
800066ca:	b7e1                	j	80006692 <__subdf3+0x1ba>
800066cc:	00b7e533          	or	a0,a5,a1
800066d0:	00a03533          	snez	a0,a0
800066d4:	bfd5                	j	800066c8 <__subdf3+0x1f0>
/home/xl_ci/toolchain/riscv-gnu-toolchain/riscv-gcc/libgcc/soft-fp/subdf3.c:46 (discriminator 72)
800066d6:	00140693          	addi	a3,s0,1 # 80001 <__stack_size+0x7f801>
800066da:	7fe6f513          	andi	a0,a3,2046
800066de:	e13d                	bnez	a0,80006744 <__subdf3+0x26c>
/home/xl_ci/toolchain/riscv-gnu-toolchain/riscv-gcc/libgcc/soft-fp/subdf3.c:46 (discriminator 128)
800066e0:	00b7e6b3          	or	a3,a5,a1
800066e4:	e429                	bnez	s0,8000672e <__subdf3+0x256>
/home/xl_ci/toolchain/riscv-gnu-toolchain/riscv-gcc/libgcc/soft-fp/subdf3.c:46 (discriminator 130)
800066e6:	36068963          	beqz	a3,80006a58 <__subdf3+0x580>
/home/xl_ci/toolchain/riscv-gnu-toolchain/riscv-gcc/libgcc/soft-fp/subdf3.c:46 (discriminator 133)
800066ea:	00c766b3          	or	a3,a4,a2
800066ee:	c285                	beqz	a3,8000670e <__subdf3+0x236>
/home/xl_ci/toolchain/riscv-gnu-toolchain/riscv-gcc/libgcc/soft-fp/subdf3.c:46 (discriminator 139)
800066f0:	962e                	add	a2,a2,a1
800066f2:	97ba                	add	a5,a5,a4
800066f4:	00b63533          	sltu	a0,a2,a1
800066f8:	97aa                	add	a5,a5,a0
800066fa:	00800737          	lui	a4,0x800
800066fe:	8f7d                	and	a4,a4,a5
80006700:	85b2                	mv	a1,a2
80006702:	c711                	beqz	a4,8000670e <__subdf3+0x236>
/home/xl_ci/toolchain/riscv-gnu-toolchain/riscv-gcc/libgcc/soft-fp/subdf3.c:46 (discriminator 141)
80006704:	ff800737          	lui	a4,0xff800
80006708:	177d                	addi	a4,a4,-1
8000670a:	8ff9                	and	a5,a5,a4
8000670c:	4405                	li	s0,1
/home/xl_ci/toolchain/riscv-gnu-toolchain/riscv-gcc/libgcc/soft-fp/subdf3.c:47 (discriminator 426)
8000670e:	0075f713          	andi	a4,a1,7
80006712:	34070a63          	beqz	a4,80006a66 <__subdf3+0x58e>
/home/xl_ci/toolchain/riscv-gnu-toolchain/riscv-gcc/libgcc/soft-fp/subdf3.c:47 (discriminator 37)
80006716:	00f5f713          	andi	a4,a1,15
8000671a:	4691                	li	a3,4
8000671c:	34d70563          	beq	a4,a3,80006a66 <__subdf3+0x58e>
/home/xl_ci/toolchain/riscv-gnu-toolchain/riscv-gcc/libgcc/soft-fp/subdf3.c:47 (discriminator 44)
80006720:	00458713          	addi	a4,a1,4
80006724:	00b73533          	sltu	a0,a4,a1
80006728:	97aa                	add	a5,a5,a0
8000672a:	85ba                	mv	a1,a4
8000672c:	ae2d                	j	80006a66 <__subdf3+0x58e>
/home/xl_ci/toolchain/riscv-gnu-toolchain/riscv-gcc/libgcc/soft-fp/subdf3.c:46 (discriminator 158)
8000672e:	de99                	beqz	a3,8000664c <__subdf3+0x174>
/home/xl_ci/toolchain/riscv-gnu-toolchain/riscv-gcc/libgcc/soft-fp/subdf3.c:46 (discriminator 160)
80006730:	8e59                	or	a2,a2,a4
80006732:	e2060be3          	beqz	a2,80006568 <__subdf3+0x90>
/home/xl_ci/toolchain/riscv-gnu-toolchain/riscv-gcc/libgcc/soft-fp/subdf3.c:46
80006736:	4481                	li	s1,0
80006738:	004007b7          	lui	a5,0x400
8000673c:	4581                	li	a1,0
8000673e:	7ff00413          	li	s0,2047
80006742:	a615                	j	80006a66 <__subdf3+0x58e>
/home/xl_ci/toolchain/riscv-gnu-toolchain/riscv-gcc/libgcc/soft-fp/subdf3.c:46 (discriminator 129)
80006744:	7ff00513          	li	a0,2047
80006748:	30a68b63          	beq	a3,a0,80006a5e <__subdf3+0x586>
/home/xl_ci/toolchain/riscv-gnu-toolchain/riscv-gcc/libgcc/soft-fp/subdf3.c:46
8000674c:	962e                	add	a2,a2,a1
8000674e:	00b63533          	sltu	a0,a2,a1
80006752:	97ba                	add	a5,a5,a4
80006754:	97aa                	add	a5,a5,a0
80006756:	01f79513          	slli	a0,a5,0x1f
8000675a:	8205                	srli	a2,a2,0x1
8000675c:	00c565b3          	or	a1,a0,a2
80006760:	8385                	srli	a5,a5,0x1
80006762:	8436                	mv	s0,a3
80006764:	b76d                	j	8000670e <__subdf3+0x236>
/home/xl_ci/toolchain/riscv-gnu-toolchain/riscv-gcc/libgcc/soft-fp/subdf3.c:46 (discriminator 13)
80006766:	0d005663          	blez	a6,80006832 <__subdf3+0x35a>
/home/xl_ci/toolchain/riscv-gnu-toolchain/riscv-gcc/libgcc/soft-fp/subdf3.c:46 (discriminator 205)
8000676a:	08031163          	bnez	t1,800067ec <__subdf3+0x314>
/home/xl_ci/toolchain/riscv-gnu-toolchain/riscv-gcc/libgcc/soft-fp/subdf3.c:46 (discriminator 207)
8000676e:	00c766b3          	or	a3,a4,a2
80006772:	34068b63          	beqz	a3,80006ac8 <__subdf3+0x5f0>
/home/xl_ci/toolchain/riscv-gnu-toolchain/riscv-gcc/libgcc/soft-fp/subdf3.c:46 (discriminator 210)
80006776:	fff80513          	addi	a0,a6,-1
8000677a:	e911                	bnez	a0,8000678e <__subdf3+0x2b6>
/home/xl_ci/toolchain/riscv-gnu-toolchain/riscv-gcc/libgcc/soft-fp/subdf3.c:46 (discriminator 219)
8000677c:	40c58633          	sub	a2,a1,a2
80006780:	00c5b533          	sltu	a0,a1,a2
80006784:	8f99                	sub	a5,a5,a4
80006786:	8f89                	sub	a5,a5,a0
80006788:	85b2                	mv	a1,a2
/home/xl_ci/toolchain/riscv-gnu-toolchain/riscv-gcc/libgcc/soft-fp/subdf3.c:45 (discriminator 276)
8000678a:	4405                	li	s0,1
/home/xl_ci/toolchain/riscv-gnu-toolchain/riscv-gcc/libgcc/soft-fp/subdf3.c:46 (discriminator 276)
8000678c:	a0b1                	j	800067d8 <__subdf3+0x300>
/home/xl_ci/toolchain/riscv-gnu-toolchain/riscv-gcc/libgcc/soft-fp/subdf3.c:46 (discriminator 220)
8000678e:	7ff00693          	li	a3,2047
80006792:	dcd80be3          	beq	a6,a3,80006568 <__subdf3+0x90>
/home/xl_ci/toolchain/riscv-gnu-toolchain/riscv-gcc/libgcc/soft-fp/subdf3.c:46 (discriminator 243)
80006796:	03800693          	li	a3,56
8000679a:	08a6c863          	blt	a3,a0,8000682a <__subdf3+0x352>
/home/xl_ci/toolchain/riscv-gnu-toolchain/riscv-gcc/libgcc/soft-fp/subdf3.c:46 (discriminator 244)
8000679e:	46fd                	li	a3,31
800067a0:	04a6cf63          	blt	a3,a0,800067fe <__subdf3+0x326>
/home/xl_ci/toolchain/riscv-gnu-toolchain/riscv-gcc/libgcc/soft-fp/subdf3.c:46 (discriminator 246)
800067a4:	02000813          	li	a6,32
800067a8:	40a80833          	sub	a6,a6,a0
800067ac:	010716b3          	sll	a3,a4,a6
800067b0:	00a658b3          	srl	a7,a2,a0
800067b4:	01061633          	sll	a2,a2,a6
800067b8:	0116e6b3          	or	a3,a3,a7
800067bc:	00c03633          	snez	a2,a2
800067c0:	8e55                	or	a2,a2,a3
800067c2:	00a75733          	srl	a4,a4,a0
/home/xl_ci/toolchain/riscv-gnu-toolchain/riscv-gcc/libgcc/soft-fp/subdf3.c:46 (discriminator 260)
800067c6:	40c58633          	sub	a2,a1,a2
800067ca:	00c5b533          	sltu	a0,a1,a2
800067ce:	40e78733          	sub	a4,a5,a4
800067d2:	40a707b3          	sub	a5,a4,a0
800067d6:	85b2                	mv	a1,a2
/home/xl_ci/toolchain/riscv-gnu-toolchain/riscv-gcc/libgcc/soft-fp/subdf3.c:46 (discriminator 318)
800067d8:	00800937          	lui	s2,0x800
800067dc:	0127f733          	and	a4,a5,s2
800067e0:	d71d                	beqz	a4,8000670e <__subdf3+0x236>
/home/xl_ci/toolchain/riscv-gnu-toolchain/riscv-gcc/libgcc/soft-fp/subdf3.c:46 (discriminator 378)
800067e2:	197d                	addi	s2,s2,-1
800067e4:	0127f933          	and	s2,a5,s2
800067e8:	89ae                	mv	s3,a1
800067ea:	aa5d                	j	800069a0 <__subdf3+0x4c8>
/home/xl_ci/toolchain/riscv-gnu-toolchain/riscv-gcc/libgcc/soft-fp/subdf3.c:46 (discriminator 208)
800067ec:	7ff00693          	li	a3,2047
800067f0:	f0d40fe3          	beq	s0,a3,8000670e <__subdf3+0x236>
/home/xl_ci/toolchain/riscv-gnu-toolchain/riscv-gcc/libgcc/soft-fp/subdf3.c:46 (discriminator 234)
800067f4:	008006b7          	lui	a3,0x800
800067f8:	8f55                	or	a4,a4,a3
800067fa:	8542                	mv	a0,a6
800067fc:	bf69                	j	80006796 <__subdf3+0x2be>
/home/xl_ci/toolchain/riscv-gnu-toolchain/riscv-gcc/libgcc/soft-fp/subdf3.c:46 (discriminator 247)
800067fe:	fe050693          	addi	a3,a0,-32
80006802:	02000893          	li	a7,32
80006806:	00d756b3          	srl	a3,a4,a3
8000680a:	4801                	li	a6,0
8000680c:	01150863          	beq	a0,a7,8000681c <__subdf3+0x344>
/home/xl_ci/toolchain/riscv-gnu-toolchain/riscv-gcc/libgcc/soft-fp/subdf3.c:46 (discriminator 254)
80006810:	04000813          	li	a6,64
80006814:	40a80533          	sub	a0,a6,a0
80006818:	00a71833          	sll	a6,a4,a0
/home/xl_ci/toolchain/riscv-gnu-toolchain/riscv-gcc/libgcc/soft-fp/subdf3.c:46 (discriminator 257)
8000681c:	00c86633          	or	a2,a6,a2
80006820:	00c03633          	snez	a2,a2
80006824:	8e55                	or	a2,a2,a3
/home/xl_ci/toolchain/riscv-gnu-toolchain/riscv-gcc/libgcc/soft-fp/subdf3.c:46 (discriminator 245)
80006826:	4701                	li	a4,0
80006828:	bf79                	j	800067c6 <__subdf3+0x2ee>
8000682a:	8e59                	or	a2,a2,a4
8000682c:	00c03633          	snez	a2,a2
80006830:	bfdd                	j	80006826 <__subdf3+0x34e>
/home/xl_ci/toolchain/riscv-gnu-toolchain/riscv-gcc/libgcc/soft-fp/subdf3.c:46 (discriminator 206)
80006832:	0c080563          	beqz	a6,800068fc <__subdf3+0x424>
/home/xl_ci/toolchain/riscv-gnu-toolchain/riscv-gcc/libgcc/soft-fp/subdf3.c:46 (discriminator 262)
80006836:	40830533          	sub	a0,t1,s0
8000683a:	e81d                	bnez	s0,80006870 <__subdf3+0x398>
/home/xl_ci/toolchain/riscv-gnu-toolchain/riscv-gcc/libgcc/soft-fp/subdf3.c:46 (discriminator 264)
8000683c:	00b7e833          	or	a6,a5,a1
80006840:	28080663          	beqz	a6,80006acc <__subdf3+0x5f4>
/home/xl_ci/toolchain/riscv-gnu-toolchain/riscv-gcc/libgcc/soft-fp/subdf3.c:46 (discriminator 267)
80006844:	fff50813          	addi	a6,a0,-1
80006848:	00081b63          	bnez	a6,8000685e <__subdf3+0x386>
/home/xl_ci/toolchain/riscv-gnu-toolchain/riscv-gcc/libgcc/soft-fp/subdf3.c:46 (discriminator 276)
8000684c:	40b605b3          	sub	a1,a2,a1
80006850:	40f707b3          	sub	a5,a4,a5
80006854:	00b63633          	sltu	a2,a2,a1
80006858:	8f91                	sub	a5,a5,a2
8000685a:	84b6                	mv	s1,a3
8000685c:	b73d                	j	8000678a <__subdf3+0x2b2>
/home/xl_ci/toolchain/riscv-gnu-toolchain/riscv-gcc/libgcc/soft-fp/subdf3.c:46 (discriminator 277)
8000685e:	7ff00893          	li	a7,2047
80006862:	03151063          	bne	a0,a7,80006882 <__subdf3+0x3aa>
/home/xl_ci/toolchain/riscv-gnu-toolchain/riscv-gcc/libgcc/soft-fp/subdf3.c:45
80006866:	87ba                	mv	a5,a4
80006868:	85b2                	mv	a1,a2
/home/xl_ci/toolchain/riscv-gnu-toolchain/riscv-gcc/libgcc/soft-fp/subdf3.c:46
8000686a:	7ff00413          	li	s0,2047
8000686e:	a07d                	j	8000691c <__subdf3+0x444>
/home/xl_ci/toolchain/riscv-gnu-toolchain/riscv-gcc/libgcc/soft-fp/subdf3.c:46 (discriminator 265)
80006870:	7ff00813          	li	a6,2047
80006874:	ff0309e3          	beq	t1,a6,80006866 <__subdf3+0x38e>
/home/xl_ci/toolchain/riscv-gnu-toolchain/riscv-gcc/libgcc/soft-fp/subdf3.c:46 (discriminator 291)
80006878:	00800837          	lui	a6,0x800
8000687c:	0107e7b3          	or	a5,a5,a6
80006880:	882a                	mv	a6,a0
/home/xl_ci/toolchain/riscv-gnu-toolchain/riscv-gcc/libgcc/soft-fp/subdf3.c:46 (discriminator 300)
80006882:	03800513          	li	a0,56
80006886:	07054663          	blt	a0,a6,800068f2 <__subdf3+0x41a>
/home/xl_ci/toolchain/riscv-gnu-toolchain/riscv-gcc/libgcc/soft-fp/subdf3.c:46 (discriminator 301)
8000688a:	457d                	li	a0,31
8000688c:	03054d63          	blt	a0,a6,800068c6 <__subdf3+0x3ee>
/home/xl_ci/toolchain/riscv-gnu-toolchain/riscv-gcc/libgcc/soft-fp/subdf3.c:46 (discriminator 303)
80006890:	02000893          	li	a7,32
80006894:	410888b3          	sub	a7,a7,a6
80006898:	01179533          	sll	a0,a5,a7
8000689c:	0105de33          	srl	t3,a1,a6
800068a0:	011595b3          	sll	a1,a1,a7
800068a4:	01c56533          	or	a0,a0,t3
800068a8:	00b035b3          	snez	a1,a1
800068ac:	8d4d                	or	a0,a0,a1
800068ae:	0107d7b3          	srl	a5,a5,a6
/home/xl_ci/toolchain/riscv-gnu-toolchain/riscv-gcc/libgcc/soft-fp/subdf3.c:46 (discriminator 317)
800068b2:	40a605b3          	sub	a1,a2,a0
800068b6:	40f707b3          	sub	a5,a4,a5
800068ba:	00b63633          	sltu	a2,a2,a1
800068be:	8f91                	sub	a5,a5,a2
/home/xl_ci/toolchain/riscv-gnu-toolchain/riscv-gcc/libgcc/soft-fp/subdf3.c:45 (discriminator 317)
800068c0:	841a                	mv	s0,t1
800068c2:	84b6                	mv	s1,a3
800068c4:	bf11                	j	800067d8 <__subdf3+0x300>
/home/xl_ci/toolchain/riscv-gnu-toolchain/riscv-gcc/libgcc/soft-fp/subdf3.c:46 (discriminator 304)
800068c6:	fe080513          	addi	a0,a6,-32 # 7fffe0 <__stack_size+0x7ff7e0>
800068ca:	02000e13          	li	t3,32
800068ce:	00a7d8b3          	srl	a7,a5,a0
800068d2:	4501                	li	a0,0
800068d4:	01c80863          	beq	a6,t3,800068e4 <__subdf3+0x40c>
/home/xl_ci/toolchain/riscv-gnu-toolchain/riscv-gcc/libgcc/soft-fp/subdf3.c:46 (discriminator 311)
800068d8:	04000513          	li	a0,64
800068dc:	41050533          	sub	a0,a0,a6
800068e0:	00a79533          	sll	a0,a5,a0
/home/xl_ci/toolchain/riscv-gnu-toolchain/riscv-gcc/libgcc/soft-fp/subdf3.c:46 (discriminator 314)
800068e4:	8d4d                	or	a0,a0,a1
800068e6:	00a03533          	snez	a0,a0
800068ea:	00a8e533          	or	a0,a7,a0
/home/xl_ci/toolchain/riscv-gnu-toolchain/riscv-gcc/libgcc/soft-fp/subdf3.c:46 (discriminator 302)
800068ee:	4781                	li	a5,0
800068f0:	b7c9                	j	800068b2 <__subdf3+0x3da>
800068f2:	00b7e533          	or	a0,a5,a1
800068f6:	00a03533          	snez	a0,a0
800068fa:	bfd5                	j	800068ee <__subdf3+0x416>
/home/xl_ci/toolchain/riscv-gnu-toolchain/riscv-gcc/libgcc/soft-fp/subdf3.c:46 (discriminator 263)
800068fc:	00140513          	addi	a0,s0,1
80006900:	7fe57513          	andi	a0,a0,2046
80006904:	e925                	bnez	a0,80006974 <__subdf3+0x49c>
/home/xl_ci/toolchain/riscv-gnu-toolchain/riscv-gcc/libgcc/soft-fp/subdf3.c:46 (discriminator 319)
80006906:	00b7e833          	or	a6,a5,a1
8000690a:	00c76533          	or	a0,a4,a2
8000690e:	e821                	bnez	s0,8000695e <__subdf3+0x486>
/home/xl_ci/toolchain/riscv-gnu-toolchain/riscv-gcc/libgcc/soft-fp/subdf3.c:46 (discriminator 321)
80006910:	00081863          	bnez	a6,80006920 <__subdf3+0x448>
/home/xl_ci/toolchain/riscv-gnu-toolchain/riscv-gcc/libgcc/soft-fp/subdf3.c:46 (discriminator 323)
80006914:	1c050063          	beqz	a0,80006ad4 <__subdf3+0x5fc>
/home/xl_ci/toolchain/riscv-gnu-toolchain/riscv-gcc/libgcc/soft-fp/subdf3.c:45
80006918:	87ba                	mv	a5,a4
8000691a:	85b2                	mv	a1,a2
8000691c:	84b6                	mv	s1,a3
8000691e:	bbc5                	j	8000670e <__subdf3+0x236>
/home/xl_ci/toolchain/riscv-gnu-toolchain/riscv-gcc/libgcc/soft-fp/subdf3.c:46 (discriminator 324)
80006920:	de0507e3          	beqz	a0,8000670e <__subdf3+0x236>
/home/xl_ci/toolchain/riscv-gnu-toolchain/riscv-gcc/libgcc/soft-fp/subdf3.c:46 (discriminator 331)
80006924:	40c58833          	sub	a6,a1,a2
80006928:	0105b8b3          	sltu	a7,a1,a6
8000692c:	40e78533          	sub	a0,a5,a4
80006930:	41150533          	sub	a0,a0,a7
80006934:	008008b7          	lui	a7,0x800
80006938:	011578b3          	and	a7,a0,a7
8000693c:	00088a63          	beqz	a7,80006950 <__subdf3+0x478>
/home/xl_ci/toolchain/riscv-gnu-toolchain/riscv-gcc/libgcc/soft-fp/subdf3.c:46 (discriminator 333)
80006940:	40b605b3          	sub	a1,a2,a1
80006944:	40f707b3          	sub	a5,a4,a5
80006948:	00b63633          	sltu	a2,a2,a1
8000694c:	8f91                	sub	a5,a5,a2
8000694e:	b7f9                	j	8000691c <__subdf3+0x444>
/home/xl_ci/toolchain/riscv-gnu-toolchain/riscv-gcc/libgcc/soft-fp/subdf3.c:46 (discriminator 334)
80006950:	00a865b3          	or	a1,a6,a0
80006954:	18058463          	beqz	a1,80006adc <__subdf3+0x604>
/home/xl_ci/toolchain/riscv-gnu-toolchain/riscv-gcc/libgcc/soft-fp/subdf3.c:46
80006958:	87aa                	mv	a5,a0
8000695a:	85c2                	mv	a1,a6
8000695c:	bb4d                	j	8000670e <__subdf3+0x236>
/home/xl_ci/toolchain/riscv-gnu-toolchain/riscv-gcc/libgcc/soft-fp/subdf3.c:46 (discriminator 353)
8000695e:	00081863          	bnez	a6,8000696e <__subdf3+0x496>
/home/xl_ci/toolchain/riscv-gnu-toolchain/riscv-gcc/libgcc/soft-fp/subdf3.c:46 (discriminator 354)
80006962:	16050f63          	beqz	a0,80006ae0 <__subdf3+0x608>
/home/xl_ci/toolchain/riscv-gnu-toolchain/riscv-gcc/libgcc/soft-fp/subdf3.c:45
80006966:	87ba                	mv	a5,a4
80006968:	85b2                	mv	a1,a2
/home/xl_ci/toolchain/riscv-gnu-toolchain/riscv-gcc/libgcc/soft-fp/subdf3.c:46
8000696a:	84b6                	mv	s1,a3
8000696c:	bef5                	j	80006568 <__subdf3+0x90>
/home/xl_ci/toolchain/riscv-gnu-toolchain/riscv-gcc/libgcc/soft-fp/subdf3.c:46 (discriminator 355)
8000696e:	be050de3          	beqz	a0,80006568 <__subdf3+0x90>
80006972:	b3d1                	j	80006736 <__subdf3+0x25e>
/home/xl_ci/toolchain/riscv-gnu-toolchain/riscv-gcc/libgcc/soft-fp/subdf3.c:46 (discriminator 320)
80006974:	40c589b3          	sub	s3,a1,a2
80006978:	0135b533          	sltu	a0,a1,s3
8000697c:	40e78933          	sub	s2,a5,a4
80006980:	40a90933          	sub	s2,s2,a0
80006984:	00800537          	lui	a0,0x800
80006988:	00a97533          	and	a0,s2,a0
8000698c:	c53d                	beqz	a0,800069fa <__subdf3+0x522>
/home/xl_ci/toolchain/riscv-gnu-toolchain/riscv-gcc/libgcc/soft-fp/subdf3.c:46 (discriminator 371)
8000698e:	40b609b3          	sub	s3,a2,a1
80006992:	40f707b3          	sub	a5,a4,a5
80006996:	01363633          	sltu	a2,a2,s3
8000699a:	40c78933          	sub	s2,a5,a2
8000699e:	84b6                	mv	s1,a3
/home/xl_ci/toolchain/riscv-gnu-toolchain/riscv-gcc/libgcc/soft-fp/subdf3.c:46 (discriminator 380)
800069a0:	06090363          	beqz	s2,80006a06 <__subdf3+0x52e>
/home/xl_ci/toolchain/riscv-gnu-toolchain/riscv-gcc/libgcc/soft-fp/subdf3.c:46 (discriminator 383)
800069a4:	854a                	mv	a0,s2
800069a6:	29e1                	jal	80006e7e <__clzsi2>
/home/xl_ci/toolchain/riscv-gnu-toolchain/riscv-gcc/libgcc/soft-fp/subdf3.c:46 (discriminator 397)
800069a8:	ff850713          	addi	a4,a0,-8 # 7ffff8 <__stack_size+0x7ff7f8>
800069ac:	47fd                	li	a5,31
800069ae:	06e7c163          	blt	a5,a4,80006a10 <__subdf3+0x538>
/home/xl_ci/toolchain/riscv-gnu-toolchain/riscv-gcc/libgcc/soft-fp/subdf3.c:46 (discriminator 403)
800069b2:	02000793          	li	a5,32
800069b6:	8f99                	sub	a5,a5,a4
800069b8:	00e91933          	sll	s2,s2,a4
800069bc:	00f9d7b3          	srl	a5,s3,a5
800069c0:	0127e7b3          	or	a5,a5,s2
800069c4:	00e995b3          	sll	a1,s3,a4
/home/xl_ci/toolchain/riscv-gnu-toolchain/riscv-gcc/libgcc/soft-fp/subdf3.c:46 (discriminator 407)
800069c8:	06874e63          	blt	a4,s0,80006a44 <__subdf3+0x56c>
/home/xl_ci/toolchain/riscv-gnu-toolchain/riscv-gcc/libgcc/soft-fp/subdf3.c:46 (discriminator 408)
800069cc:	8f01                	sub	a4,a4,s0
800069ce:	00170693          	addi	a3,a4,1 # ff800001 <_sp+0x6f7f0001>
800069d2:	467d                	li	a2,31
800069d4:	04d64463          	blt	a2,a3,80006a1c <__subdf3+0x544>
/home/xl_ci/toolchain/riscv-gnu-toolchain/riscv-gcc/libgcc/soft-fp/subdf3.c:46 (discriminator 410)
800069d8:	02000713          	li	a4,32
800069dc:	8f15                	sub	a4,a4,a3
800069de:	00e79633          	sll	a2,a5,a4
800069e2:	00d5d533          	srl	a0,a1,a3
800069e6:	00e595b3          	sll	a1,a1,a4
800069ea:	8e49                	or	a2,a2,a0
800069ec:	00b035b3          	snez	a1,a1
800069f0:	8dd1                	or	a1,a1,a2
800069f2:	00d7d7b3          	srl	a5,a5,a3
/home/xl_ci/toolchain/riscv-gnu-toolchain/riscv-gcc/libgcc/soft-fp/subdf3.c:46 (discriminator 422)
800069f6:	4401                	li	s0,0
800069f8:	bb19                	j	8000670e <__subdf3+0x236>
/home/xl_ci/toolchain/riscv-gnu-toolchain/riscv-gcc/libgcc/soft-fp/subdf3.c:46 (discriminator 372)
800069fa:	0129e5b3          	or	a1,s3,s2
800069fe:	f1cd                	bnez	a1,800069a0 <__subdf3+0x4c8>
80006a00:	4781                	li	a5,0
/home/xl_ci/toolchain/riscv-gnu-toolchain/riscv-gcc/libgcc/soft-fp/subdf3.c:46
80006a02:	4401                	li	s0,0
80006a04:	a8d1                	j	80006ad8 <__subdf3+0x600>
/home/xl_ci/toolchain/riscv-gnu-toolchain/riscv-gcc/libgcc/soft-fp/subdf3.c:46 (discriminator 390)
80006a06:	854e                	mv	a0,s3
80006a08:	299d                	jal	80006e7e <__clzsi2>
80006a0a:	02050513          	addi	a0,a0,32
80006a0e:	bf69                	j	800069a8 <__subdf3+0x4d0>
/home/xl_ci/toolchain/riscv-gnu-toolchain/riscv-gcc/libgcc/soft-fp/subdf3.c:46 (discriminator 399)
80006a10:	fd850793          	addi	a5,a0,-40
80006a14:	00f997b3          	sll	a5,s3,a5
80006a18:	4581                	li	a1,0
80006a1a:	b77d                	j	800069c8 <__subdf3+0x4f0>
/home/xl_ci/toolchain/riscv-gnu-toolchain/riscv-gcc/libgcc/soft-fp/subdf3.c:46 (discriminator 411)
80006a1c:	1705                	addi	a4,a4,-31
80006a1e:	02000613          	li	a2,32
80006a22:	00e7d733          	srl	a4,a5,a4
80006a26:	4501                	li	a0,0
80006a28:	00c68763          	beq	a3,a2,80006a36 <__subdf3+0x55e>
/home/xl_ci/toolchain/riscv-gnu-toolchain/riscv-gcc/libgcc/soft-fp/subdf3.c:46 (discriminator 419)
80006a2c:	04000513          	li	a0,64
80006a30:	8d15                	sub	a0,a0,a3
80006a32:	00a79533          	sll	a0,a5,a0
/home/xl_ci/toolchain/riscv-gnu-toolchain/riscv-gcc/libgcc/soft-fp/subdf3.c:46 (discriminator 422)
80006a36:	8d4d                	or	a0,a0,a1
80006a38:	00a03533          	snez	a0,a0
80006a3c:	00a765b3          	or	a1,a4,a0
80006a40:	4781                	li	a5,0
80006a42:	bf55                	j	800069f6 <__subdf3+0x51e>
/home/xl_ci/toolchain/riscv-gnu-toolchain/riscv-gcc/libgcc/soft-fp/subdf3.c:46 (discriminator 409)
80006a44:	8c19                	sub	s0,s0,a4
80006a46:	ff800737          	lui	a4,0xff800
80006a4a:	177d                	addi	a4,a4,-1
80006a4c:	8ff9                	and	a5,a5,a4
80006a4e:	b1c1                	j	8000670e <__subdf3+0x236>
/home/xl_ci/toolchain/riscv-gnu-toolchain/riscv-gcc/libgcc/soft-fp/subdf3.c:45
80006a50:	87ba                	mv	a5,a4
80006a52:	85b2                	mv	a1,a2
/home/xl_ci/toolchain/riscv-gnu-toolchain/riscv-gcc/libgcc/soft-fp/subdf3.c:46
80006a54:	842a                	mv	s0,a0
80006a56:	b965                	j	8000670e <__subdf3+0x236>
/home/xl_ci/toolchain/riscv-gnu-toolchain/riscv-gcc/libgcc/soft-fp/subdf3.c:45
80006a58:	87ba                	mv	a5,a4
80006a5a:	85b2                	mv	a1,a2
80006a5c:	b94d                	j	8000670e <__subdf3+0x236>
80006a5e:	7ff00413          	li	s0,2047
80006a62:	4781                	li	a5,0
80006a64:	4581                	li	a1,0
/home/xl_ci/toolchain/riscv-gnu-toolchain/riscv-gcc/libgcc/soft-fp/subdf3.c:47 (discriminator 47)
80006a66:	00800737          	lui	a4,0x800
80006a6a:	8f7d                	and	a4,a4,a5
80006a6c:	cb11                	beqz	a4,80006a80 <__subdf3+0x5a8>
/home/xl_ci/toolchain/riscv-gnu-toolchain/riscv-gcc/libgcc/soft-fp/subdf3.c:47 (discriminator 63)
80006a6e:	0405                	addi	s0,s0,1
80006a70:	7ff00713          	li	a4,2047
80006a74:	06e40b63          	beq	s0,a4,80006aea <__subdf3+0x612>
/home/xl_ci/toolchain/riscv-gnu-toolchain/riscv-gcc/libgcc/soft-fp/subdf3.c:47
80006a78:	ff800737          	lui	a4,0xff800
80006a7c:	177d                	addi	a4,a4,-1
80006a7e:	8ff9                	and	a5,a5,a4
/home/xl_ci/toolchain/riscv-gnu-toolchain/riscv-gcc/libgcc/soft-fp/subdf3.c:47 (discriminator 79)
80006a80:	01d79713          	slli	a4,a5,0x1d
80006a84:	0035d513          	srli	a0,a1,0x3
80006a88:	8d59                	or	a0,a0,a4
80006a8a:	7ff00713          	li	a4,2047
80006a8e:	838d                	srli	a5,a5,0x3
80006a90:	00e41963          	bne	s0,a4,80006aa2 <__subdf3+0x5ca>
/home/xl_ci/toolchain/riscv-gnu-toolchain/riscv-gcc/libgcc/soft-fp/subdf3.c:47 (discriminator 80)
80006a94:	8d5d                	or	a0,a0,a5
80006a96:	4781                	li	a5,0
80006a98:	c509                	beqz	a0,80006aa2 <__subdf3+0x5ca>
/home/xl_ci/toolchain/riscv-gnu-toolchain/riscv-gcc/libgcc/soft-fp/subdf3.c:47
80006a9a:	000807b7          	lui	a5,0x80
80006a9e:	4501                	li	a0,0
80006aa0:	4481                	li	s1,0
/home/xl_ci/toolchain/riscv-gnu-toolchain/riscv-gcc/libgcc/soft-fp/subdf3.c:47 (discriminator 90)
80006aa2:	01441713          	slli	a4,s0,0x14
80006aa6:	7ff006b7          	lui	a3,0x7ff00
80006aaa:	07b2                	slli	a5,a5,0xc
/home/xl_ci/toolchain/riscv-gnu-toolchain/riscv-gcc/libgcc/soft-fp/subdf3.c:51 (discriminator 90)
80006aac:	40f2                	lw	ra,28(sp)
80006aae:	4462                	lw	s0,24(sp)
/home/xl_ci/toolchain/riscv-gnu-toolchain/riscv-gcc/libgcc/soft-fp/subdf3.c:47 (discriminator 90)
80006ab0:	8f75                	and	a4,a4,a3
80006ab2:	83b1                	srli	a5,a5,0xc
80006ab4:	04fe                	slli	s1,s1,0x1f
80006ab6:	8fd9                	or	a5,a5,a4
80006ab8:	0097e733          	or	a4,a5,s1
/home/xl_ci/toolchain/riscv-gnu-toolchain/riscv-gcc/libgcc/soft-fp/subdf3.c:51 (discriminator 90)
80006abc:	4942                	lw	s2,16(sp)
80006abe:	44d2                	lw	s1,20(sp)
80006ac0:	49b2                	lw	s3,12(sp)
80006ac2:	85ba                	mv	a1,a4
80006ac4:	6105                	addi	sp,sp,32
80006ac6:	8082                	ret
80006ac8:	8442                	mv	s0,a6
80006aca:	b191                	j	8000670e <__subdf3+0x236>
/home/xl_ci/toolchain/riscv-gnu-toolchain/riscv-gcc/libgcc/soft-fp/subdf3.c:45
80006acc:	87ba                	mv	a5,a4
80006ace:	85b2                	mv	a1,a2
/home/xl_ci/toolchain/riscv-gnu-toolchain/riscv-gcc/libgcc/soft-fp/subdf3.c:46
80006ad0:	842a                	mv	s0,a0
80006ad2:	b5a9                	j	8000691c <__subdf3+0x444>
80006ad4:	4781                	li	a5,0
80006ad6:	4581                	li	a1,0
80006ad8:	4481                	li	s1,0
80006ada:	b771                	j	80006a66 <__subdf3+0x58e>
80006adc:	4781                	li	a5,0
80006ade:	bfed                	j	80006ad8 <__subdf3+0x600>
80006ae0:	4581                	li	a1,0
80006ae2:	4481                	li	s1,0
80006ae4:	004007b7          	lui	a5,0x400
80006ae8:	b999                	j	8000673e <__subdf3+0x266>
80006aea:	4781                	li	a5,0
80006aec:	4581                	li	a1,0
80006aee:	bf49                	j	80006a80 <__subdf3+0x5a8>

80006af0 <__unorddf2>:
__unorddf2():
/home/xl_ci/toolchain/riscv-gnu-toolchain/riscv-gcc/libgcc/soft-fp/unorddf2.c:42
80006af0:	00100737          	lui	a4,0x100
80006af4:	fff70793          	addi	a5,a4,-1 # fffff <__stack_size+0xff7ff>
80006af8:	00b7f733          	and	a4,a5,a1
80006afc:	81d1                	srli	a1,a1,0x14
/home/xl_ci/toolchain/riscv-gnu-toolchain/riscv-gcc/libgcc/soft-fp/unorddf2.c:43
80006afe:	8ff5                	and	a5,a5,a3
/home/xl_ci/toolchain/riscv-gnu-toolchain/riscv-gcc/libgcc/soft-fp/unorddf2.c:42
80006b00:	7ff5f593          	andi	a1,a1,2047
/home/xl_ci/toolchain/riscv-gnu-toolchain/riscv-gcc/libgcc/soft-fp/unorddf2.c:43
80006b04:	82d1                	srli	a3,a3,0x14
/home/xl_ci/toolchain/riscv-gnu-toolchain/riscv-gcc/libgcc/soft-fp/unorddf2.c:44
80006b06:	7ff00813          	li	a6,2047
/home/xl_ci/toolchain/riscv-gnu-toolchain/riscv-gcc/libgcc/soft-fp/unorddf2.c:43
80006b0a:	7ff6f693          	andi	a3,a3,2047
/home/xl_ci/toolchain/riscv-gnu-toolchain/riscv-gcc/libgcc/soft-fp/unorddf2.c:44
80006b0e:	01059563          	bne	a1,a6,80006b18 <__unorddf2+0x28>
/home/xl_ci/toolchain/riscv-gnu-toolchain/riscv-gcc/libgcc/soft-fp/unorddf2.c:44 (discriminator 20)
80006b12:	8f49                	or	a4,a4,a0
80006b14:	4505                	li	a0,1
80006b16:	eb09                	bnez	a4,80006b28 <__unorddf2+0x38>
/home/xl_ci/toolchain/riscv-gnu-toolchain/riscv-gcc/libgcc/soft-fp/unorddf2.c:44 (discriminator 23)
80006b18:	7ff00713          	li	a4,2047
80006b1c:	4501                	li	a0,0
80006b1e:	00e69563          	bne	a3,a4,80006b28 <__unorddf2+0x38>
/home/xl_ci/toolchain/riscv-gnu-toolchain/riscv-gcc/libgcc/soft-fp/unorddf2.c:44 (discriminator 24)
80006b22:	8fd1                	or	a5,a5,a2
80006b24:	00f03533          	snez	a0,a5
/home/xl_ci/toolchain/riscv-gnu-toolchain/riscv-gcc/libgcc/soft-fp/unorddf2.c:48
80006b28:	8082                	ret

80006b2a <__fixdfsi>:
__fixdfsi():
/home/xl_ci/toolchain/riscv-gnu-toolchain/riscv-gcc/libgcc/soft-fp/fixdfsi.c:42
80006b2a:	0145d713          	srli	a4,a1,0x14
80006b2e:	001006b7          	lui	a3,0x100
80006b32:	fff68793          	addi	a5,a3,-1 # fffff <__stack_size+0xff7ff>
80006b36:	7ff77713          	andi	a4,a4,2047
/home/xl_ci/toolchain/riscv-gnu-toolchain/riscv-gcc/libgcc/soft-fp/fixdfsi.c:43
80006b3a:	3fe00613          	li	a2,1022
/home/xl_ci/toolchain/riscv-gnu-toolchain/riscv-gcc/libgcc/soft-fp/fixdfsi.c:42
80006b3e:	8fed                	and	a5,a5,a1
80006b40:	81fd                	srli	a1,a1,0x1f
/home/xl_ci/toolchain/riscv-gnu-toolchain/riscv-gcc/libgcc/soft-fp/fixdfsi.c:43
80006b42:	04e65463          	bge	a2,a4,80006b8a <__fixdfsi+0x60>
/home/xl_ci/toolchain/riscv-gnu-toolchain/riscv-gcc/libgcc/soft-fp/fixdfsi.c:43 (discriminator 10)
80006b46:	41d00613          	li	a2,1053
80006b4a:	00e65863          	bge	a2,a4,80006b5a <__fixdfsi+0x30>
/home/xl_ci/toolchain/riscv-gnu-toolchain/riscv-gcc/libgcc/soft-fp/fixdfsi.c:43 (discriminator 14)
80006b4e:	80000537          	lui	a0,0x80000
80006b52:	fff54513          	not	a0,a0
80006b56:	952e                	add	a0,a0,a1
80006b58:	8082                	ret
/home/xl_ci/toolchain/riscv-gnu-toolchain/riscv-gcc/libgcc/soft-fp/fixdfsi.c:43 (discriminator 13)
80006b5a:	8fd5                	or	a5,a5,a3
80006b5c:	43300693          	li	a3,1075
80006b60:	8e99                	sub	a3,a3,a4
80006b62:	467d                	li	a2,31
80006b64:	00d64d63          	blt	a2,a3,80006b7e <__fixdfsi+0x54>
/home/xl_ci/toolchain/riscv-gnu-toolchain/riscv-gcc/libgcc/soft-fp/fixdfsi.c:43 (discriminator 30)
80006b68:	bed70713          	addi	a4,a4,-1043
80006b6c:	00e797b3          	sll	a5,a5,a4
80006b70:	00d55533          	srl	a0,a0,a3
80006b74:	8d5d                	or	a0,a0,a5
/home/xl_ci/toolchain/riscv-gnu-toolchain/riscv-gcc/libgcc/soft-fp/fixdfsi.c:43 (discriminator 43)
80006b76:	c999                	beqz	a1,80006b8c <__fixdfsi+0x62>
/home/xl_ci/toolchain/riscv-gnu-toolchain/riscv-gcc/libgcc/soft-fp/fixdfsi.c:43 (discriminator 45)
80006b78:	40a00533          	neg	a0,a0
80006b7c:	8082                	ret
/home/xl_ci/toolchain/riscv-gnu-toolchain/riscv-gcc/libgcc/soft-fp/fixdfsi.c:43 (discriminator 42)
80006b7e:	41300513          	li	a0,1043
80006b82:	8d19                	sub	a0,a0,a4
80006b84:	00a7d533          	srl	a0,a5,a0
80006b88:	b7fd                	j	80006b76 <__fixdfsi+0x4c>
/home/xl_ci/toolchain/riscv-gnu-toolchain/riscv-gcc/libgcc/soft-fp/fixdfsi.c:43
80006b8a:	4501                	li	a0,0
/home/xl_ci/toolchain/riscv-gnu-toolchain/riscv-gcc/libgcc/soft-fp/fixdfsi.c:47 (discriminator 59)
80006b8c:	8082                	ret

80006b8e <__floatsidf>:
__floatsidf():
/home/xl_ci/toolchain/riscv-gnu-toolchain/riscv-gcc/libgcc/soft-fp/floatsidf.c:37
80006b8e:	1141                	addi	sp,sp,-16
80006b90:	c606                	sw	ra,12(sp)
80006b92:	c422                	sw	s0,8(sp)
80006b94:	c226                	sw	s1,4(sp)
/home/xl_ci/toolchain/riscv-gnu-toolchain/riscv-gcc/libgcc/soft-fp/floatsidf.c:41
80006b96:	cd21                	beqz	a0,80006bee <__floatsidf+0x60>
/home/xl_ci/toolchain/riscv-gnu-toolchain/riscv-gcc/libgcc/soft-fp/floatsidf.c:41 (discriminator 1)
80006b98:	41f55793          	srai	a5,a0,0x1f
80006b9c:	00a7c433          	xor	s0,a5,a0
80006ba0:	8c1d                	sub	s0,s0,a5
80006ba2:	01f55493          	srli	s1,a0,0x1f
80006ba6:	8522                	mv	a0,s0
80006ba8:	2cd9                	jal	80006e7e <__clzsi2>
80006baa:	41e00713          	li	a4,1054
80006bae:	47a9                	li	a5,10
80006bb0:	8f09                	sub	a4,a4,a0
80006bb2:	02a7c863          	blt	a5,a0,80006be2 <__floatsidf+0x54>
/home/xl_ci/toolchain/riscv-gnu-toolchain/riscv-gcc/libgcc/soft-fp/floatsidf.c:41 (discriminator 23)
80006bb6:	47ad                	li	a5,11
80006bb8:	8f89                	sub	a5,a5,a0
80006bba:	0555                	addi	a0,a0,21
80006bbc:	00f457b3          	srl	a5,s0,a5
80006bc0:	00a41433          	sll	s0,s0,a0
80006bc4:	8526                	mv	a0,s1
/home/xl_ci/toolchain/riscv-gnu-toolchain/riscv-gcc/libgcc/soft-fp/floatsidf.c:42 (discriminator 126)
80006bc6:	07b2                	slli	a5,a5,0xc
80006bc8:	0752                	slli	a4,a4,0x14
80006bca:	83b1                	srli	a5,a5,0xc
80006bcc:	057e                	slli	a0,a0,0x1f
80006bce:	8fd9                	or	a5,a5,a4
/home/xl_ci/toolchain/riscv-gnu-toolchain/riscv-gcc/libgcc/soft-fp/floatsidf.c:45 (discriminator 126)
80006bd0:	40b2                	lw	ra,12(sp)
/home/xl_ci/toolchain/riscv-gnu-toolchain/riscv-gcc/libgcc/soft-fp/floatsidf.c:42 (discriminator 126)
80006bd2:	00a7e733          	or	a4,a5,a0
/home/xl_ci/toolchain/riscv-gnu-toolchain/riscv-gcc/libgcc/soft-fp/floatsidf.c:45 (discriminator 126)
80006bd6:	8522                	mv	a0,s0
80006bd8:	4422                	lw	s0,8(sp)
80006bda:	4492                	lw	s1,4(sp)
80006bdc:	85ba                	mv	a1,a4
80006bde:	0141                	addi	sp,sp,16
80006be0:	8082                	ret
/home/xl_ci/toolchain/riscv-gnu-toolchain/riscv-gcc/libgcc/soft-fp/floatsidf.c:41 (discriminator 24)
80006be2:	1555                	addi	a0,a0,-11
80006be4:	00a417b3          	sll	a5,s0,a0
80006be8:	8526                	mv	a0,s1
/home/xl_ci/toolchain/riscv-gnu-toolchain/riscv-gcc/libgcc/soft-fp/floatsidf.c:41
80006bea:	4401                	li	s0,0
80006bec:	bfe9                	j	80006bc6 <__floatsidf+0x38>
80006bee:	4701                	li	a4,0
80006bf0:	4781                	li	a5,0
80006bf2:	bfe5                	j	80006bea <__floatsidf+0x5c>

80006bf4 <__floatunsidf>:
__floatunsidf():
/home/xl_ci/toolchain/riscv-gnu-toolchain/riscv-gcc/libgcc/soft-fp/floatunsidf.c:37
80006bf4:	1141                	addi	sp,sp,-16
80006bf6:	c422                	sw	s0,8(sp)
80006bf8:	c606                	sw	ra,12(sp)
80006bfa:	842a                	mv	s0,a0
/home/xl_ci/toolchain/riscv-gnu-toolchain/riscv-gcc/libgcc/soft-fp/floatunsidf.c:41
80006bfc:	c121                	beqz	a0,80006c3c <__floatunsidf+0x48>
/home/xl_ci/toolchain/riscv-gnu-toolchain/riscv-gcc/libgcc/soft-fp/floatunsidf.c:41 (discriminator 6)
80006bfe:	2441                	jal	80006e7e <__clzsi2>
80006c00:	41e00713          	li	a4,1054
80006c04:	47a9                	li	a5,10
80006c06:	8f09                	sub	a4,a4,a0
80006c08:	02a7c463          	blt	a5,a0,80006c30 <__floatunsidf+0x3c>
/home/xl_ci/toolchain/riscv-gnu-toolchain/riscv-gcc/libgcc/soft-fp/floatunsidf.c:41 (discriminator 23)
80006c0c:	47ad                	li	a5,11
80006c0e:	8f89                	sub	a5,a5,a0
80006c10:	0555                	addi	a0,a0,21
80006c12:	00f457b3          	srl	a5,s0,a5
80006c16:	00a41433          	sll	s0,s0,a0
/home/xl_ci/toolchain/riscv-gnu-toolchain/riscv-gcc/libgcc/soft-fp/floatunsidf.c:45 (discriminator 126)
80006c1a:	40b2                	lw	ra,12(sp)
80006c1c:	8522                	mv	a0,s0
/home/xl_ci/toolchain/riscv-gnu-toolchain/riscv-gcc/libgcc/soft-fp/floatunsidf.c:42 (discriminator 126)
80006c1e:	07b2                	slli	a5,a5,0xc
/home/xl_ci/toolchain/riscv-gnu-toolchain/riscv-gcc/libgcc/soft-fp/floatunsidf.c:45 (discriminator 126)
80006c20:	4422                	lw	s0,8(sp)
/home/xl_ci/toolchain/riscv-gnu-toolchain/riscv-gcc/libgcc/soft-fp/floatunsidf.c:42 (discriminator 126)
80006c22:	0752                	slli	a4,a4,0x14
80006c24:	83b1                	srli	a5,a5,0xc
80006c26:	00f766b3          	or	a3,a4,a5
/home/xl_ci/toolchain/riscv-gnu-toolchain/riscv-gcc/libgcc/soft-fp/floatunsidf.c:45 (discriminator 126)
80006c2a:	85b6                	mv	a1,a3
80006c2c:	0141                	addi	sp,sp,16
80006c2e:	8082                	ret
/home/xl_ci/toolchain/riscv-gnu-toolchain/riscv-gcc/libgcc/soft-fp/floatunsidf.c:41 (discriminator 24)
80006c30:	ff550793          	addi	a5,a0,-11 # 7ffffff5 <_sp+0xeffefff5>
80006c34:	00f417b3          	sll	a5,s0,a5
80006c38:	4401                	li	s0,0
80006c3a:	b7c5                	j	80006c1a <__floatunsidf+0x26>
/home/xl_ci/toolchain/riscv-gnu-toolchain/riscv-gcc/libgcc/soft-fp/floatunsidf.c:41
80006c3c:	4781                	li	a5,0
80006c3e:	4701                	li	a4,0
80006c40:	bfe9                	j	80006c1a <__floatunsidf+0x26>

80006c42 <__trunctfdf2>:
__trunctfdf2():
/home/xl_ci/toolchain/riscv-gnu-toolchain/riscv-gcc/libgcc/soft-fp/trunctfdf2.c:37
80006c42:	7179                	addi	sp,sp,-48
80006c44:	451c                	lw	a5,8(a0)
80006c46:	d422                	sw	s0,40(sp)
80006c48:	4540                	lw	s0,12(a0)
80006c4a:	4158                	lw	a4,4(a0)
80006c4c:	4114                	lw	a3,0(a0)
/home/xl_ci/toolchain/riscv-gnu-toolchain/riscv-gcc/libgcc/soft-fp/trunctfdf2.c:44
80006c4e:	c43e                	sw	a5,8(sp)
80006c50:	cc3e                	sw	a5,24(sp)
80006c52:	01041793          	slli	a5,s0,0x10
80006c56:	c23a                	sw	a4,4(sp)
80006c58:	ca3a                	sw	a4,20(sp)
80006c5a:	83c1                	srli	a5,a5,0x10
80006c5c:	00141713          	slli	a4,s0,0x1
80006c60:	c622                	sw	s0,12(sp)
/home/xl_ci/toolchain/riscv-gnu-toolchain/riscv-gcc/libgcc/soft-fp/trunctfdf2.c:37
80006c62:	d606                	sw	ra,44(sp)
80006c64:	d226                	sw	s1,36(sp)
/home/xl_ci/toolchain/riscv-gnu-toolchain/riscv-gcc/libgcc/soft-fp/trunctfdf2.c:44
80006c66:	c036                	sw	a3,0(sp)
80006c68:	c836                	sw	a3,16(sp)
80006c6a:	ce3e                	sw	a5,28(sp)
80006c6c:	8345                	srli	a4,a4,0x11
80006c6e:	807d                	srli	s0,s0,0x1f
80006c70:	0808                	addi	a0,sp,16
80006c72:	0870                	addi	a2,sp,28
/home/xl_ci/toolchain/riscv-gnu-toolchain/riscv-gcc/libgcc/soft-fp/trunctfdf2.c:44 (discriminator 8)
80006c74:	421c                	lw	a5,0(a2)
80006c76:	ffc62683          	lw	a3,-4(a2) # 7feffffc <__stack_size+0x7feff7fc>
80006c7a:	1671                	addi	a2,a2,-4
80006c7c:	078e                	slli	a5,a5,0x3
80006c7e:	82f5                	srli	a3,a3,0x1d
80006c80:	8fd5                	or	a5,a5,a3
80006c82:	c25c                	sw	a5,4(a2)
80006c84:	fec518e3          	bne	a0,a2,80006c74 <__trunctfdf2+0x32>
/home/xl_ci/toolchain/riscv-gnu-toolchain/riscv-gcc/libgcc/soft-fp/trunctfdf2.c:44 (discriminator 9)
80006c88:	46c2                	lw	a3,16(sp)
/home/xl_ci/toolchain/riscv-gnu-toolchain/riscv-gcc/libgcc/soft-fp/trunctfdf2.c:46 (discriminator 9)
80006c8a:	00170793          	addi	a5,a4,1
/home/xl_ci/toolchain/riscv-gnu-toolchain/riscv-gcc/libgcc/soft-fp/trunctfdf2.c:44 (discriminator 9)
80006c8e:	00369593          	slli	a1,a3,0x3
/home/xl_ci/toolchain/riscv-gnu-toolchain/riscv-gcc/libgcc/soft-fp/trunctfdf2.c:46 (discriminator 9)
80006c92:	66a1                	lui	a3,0x8
80006c94:	16f9                	addi	a3,a3,-2
/home/xl_ci/toolchain/riscv-gnu-toolchain/riscv-gcc/libgcc/soft-fp/trunctfdf2.c:44 (discriminator 9)
80006c96:	c82e                	sw	a1,16(sp)
/home/xl_ci/toolchain/riscv-gnu-toolchain/riscv-gcc/libgcc/soft-fp/trunctfdf2.c:46 (discriminator 9)
80006c98:	8ff5                	and	a5,a5,a3
80006c9a:	12078f63          	beqz	a5,80006dd8 <__trunctfdf2+0x196>
/home/xl_ci/toolchain/riscv-gnu-toolchain/riscv-gcc/libgcc/soft-fp/trunctfdf2.c:46 (discriminator 1)
80006c9e:	77f1                	lui	a5,0xffffc
80006ca0:	40078793          	addi	a5,a5,1024 # ffffc400 <_sp+0x6ffec400>
80006ca4:	973e                	add	a4,a4,a5
80006ca6:	7fe00793          	li	a5,2046
80006caa:	16e7c363          	blt	a5,a4,80006e10 <__trunctfdf2+0x1ce>
/home/xl_ci/toolchain/riscv-gnu-toolchain/riscv-gcc/libgcc/soft-fp/trunctfdf2.c:46 (discriminator 4)
80006cae:	04e05663          	blez	a4,80006cfa <__trunctfdf2+0xb8>
/home/xl_ci/toolchain/riscv-gnu-toolchain/riscv-gcc/libgcc/soft-fp/trunctfdf2.c:46
80006cb2:	4562                	lw	a0,24(sp)
80006cb4:	4672                	lw	a2,28(sp)
80006cb6:	47d2                	lw	a5,20(sp)
80006cb8:	01c55693          	srli	a3,a0,0x1c
80006cbc:	0612                	slli	a2,a2,0x4
80006cbe:	8e55                	or	a2,a2,a3
80006cc0:	00479693          	slli	a3,a5,0x4
80006cc4:	8ecd                	or	a3,a3,a1
80006cc6:	83f1                	srli	a5,a5,0x1c
80006cc8:	0512                	slli	a0,a0,0x4
80006cca:	00d036b3          	snez	a3,a3
80006cce:	8fc9                	or	a5,a5,a0
80006cd0:	8edd                	or	a3,a3,a5
80006cd2:	ca32                	sw	a2,20(sp)
80006cd4:	c836                	sw	a3,16(sp)
/home/xl_ci/toolchain/riscv-gnu-toolchain/riscv-gcc/libgcc/soft-fp/trunctfdf2.c:46 (discriminator 59)
80006cd6:	46c2                	lw	a3,16(sp)
80006cd8:	47d2                	lw	a5,20(sp)
/home/xl_ci/toolchain/riscv-gnu-toolchain/riscv-gcc/libgcc/soft-fp/trunctfdf2.c:50 (discriminator 117)
80006cda:	0076f613          	andi	a2,a3,7
80006cde:	12060d63          	beqz	a2,80006e18 <__trunctfdf2+0x1d6>
/home/xl_ci/toolchain/riscv-gnu-toolchain/riscv-gcc/libgcc/soft-fp/trunctfdf2.c:50 (discriminator 37)
80006ce2:	00f6f613          	andi	a2,a3,15
80006ce6:	4591                	li	a1,4
80006ce8:	12b60863          	beq	a2,a1,80006e18 <__trunctfdf2+0x1d6>
/home/xl_ci/toolchain/riscv-gnu-toolchain/riscv-gcc/libgcc/soft-fp/trunctfdf2.c:50 (discriminator 44)
80006cec:	00468613          	addi	a2,a3,4 # 8004 <__stack_size+0x7804>
80006cf0:	00d636b3          	sltu	a3,a2,a3
80006cf4:	97b6                	add	a5,a5,a3
80006cf6:	86b2                	mv	a3,a2
80006cf8:	a205                	j	80006e18 <__trunctfdf2+0x1d6>
/home/xl_ci/toolchain/riscv-gnu-toolchain/riscv-gcc/libgcc/soft-fp/trunctfdf2.c:46 (discriminator 18)
80006cfa:	fcc00793          	li	a5,-52
80006cfe:	00f75763          	bge	a4,a5,80006d0c <__trunctfdf2+0xca>
/home/xl_ci/toolchain/riscv-gnu-toolchain/riscv-gcc/libgcc/soft-fp/trunctfdf2.c:46 (discriminator 20)
80006d02:	ca02                	sw	zero,20(sp)
80006d04:	4785                	li	a5,1
/home/xl_ci/toolchain/riscv-gnu-toolchain/riscv-gcc/libgcc/soft-fp/trunctfdf2.c:46 (discriminator 37)
80006d06:	c83e                	sw	a5,16(sp)
80006d08:	4701                	li	a4,0
80006d0a:	b7f1                	j	80006cd6 <__trunctfdf2+0x94>
/home/xl_ci/toolchain/riscv-gnu-toolchain/riscv-gcc/libgcc/soft-fp/trunctfdf2.c:46 (discriminator 21)
80006d0c:	47f2                	lw	a5,28(sp)
80006d0e:	000808b7          	lui	a7,0x80
/home/xl_ci/toolchain/riscv-gnu-toolchain/riscv-gcc/libgcc/soft-fp/trunctfdf2.c:44 (discriminator 21)
80006d12:	85aa                	mv	a1,a0
/home/xl_ci/toolchain/riscv-gnu-toolchain/riscv-gcc/libgcc/soft-fp/trunctfdf2.c:46 (discriminator 21)
80006d14:	00f8e8b3          	or	a7,a7,a5
80006d18:	03d00793          	li	a5,61
80006d1c:	40e78733          	sub	a4,a5,a4
80006d20:	ce46                	sw	a7,28(sp)
80006d22:	40575793          	srai	a5,a4,0x5
80006d26:	4681                	li	a3,0
80006d28:	4481                	li	s1,0
/home/xl_ci/toolchain/riscv-gnu-toolchain/riscv-gcc/libgcc/soft-fp/trunctfdf2.c:46 (discriminator 25)
80006d2a:	0005a803          	lw	a6,0(a1)
80006d2e:	0685                	addi	a3,a3,1
80006d30:	0591                	addi	a1,a1,4
80006d32:	0104e4b3          	or	s1,s1,a6
80006d36:	fed79ae3          	bne	a5,a3,80006d2a <__trunctfdf2+0xe8>
/home/xl_ci/toolchain/riscv-gnu-toolchain/riscv-gcc/libgcc/soft-fp/trunctfdf2.c:46 (discriminator 26)
80006d3a:	8b7d                	andi	a4,a4,31
80006d3c:	00279693          	slli	a3,a5,0x2
80006d40:	e30d                	bnez	a4,80006d62 <__trunctfdf2+0x120>
/home/xl_ci/toolchain/riscv-gnu-toolchain/riscv-gcc/libgcc/soft-fp/trunctfdf2.c:46
80006d42:	458d                	li	a1,3
80006d44:	8d9d                	sub	a1,a1,a5
/home/xl_ci/toolchain/riscv-gnu-toolchain/riscv-gcc/libgcc/soft-fp/trunctfdf2.c:46 (discriminator 31)
80006d46:	00d60833          	add	a6,a2,a3
80006d4a:	00082803          	lw	a6,0(a6)
80006d4e:	0705                	addi	a4,a4,1
80006d50:	01062023          	sw	a6,0(a2)
80006d54:	0611                	addi	a2,a2,4
80006d56:	fee5d8e3          	bge	a1,a4,80006d46 <__trunctfdf2+0x104>
80006d5a:	4711                	li	a4,4
80006d5c:	40f707b3          	sub	a5,a4,a5
80006d60:	a83d                	j	80006d9e <__trunctfdf2+0x15c>
80006d62:	5e71                	li	t3,-4
80006d64:	03c78e33          	mul	t3,a5,t3
/home/xl_ci/toolchain/riscv-gnu-toolchain/riscv-gcc/libgcc/soft-fp/trunctfdf2.c:46 (discriminator 28)
80006d68:	1010                	addi	a2,sp,32
80006d6a:	9636                	add	a2,a2,a3
80006d6c:	ff062603          	lw	a2,-16(a2)
80006d70:	02000813          	li	a6,32
80006d74:	40e80833          	sub	a6,a6,a4
80006d78:	01061633          	sll	a2,a2,a6
80006d7c:	8cd1                	or	s1,s1,a2
80006d7e:	460d                	li	a2,3
80006d80:	96aa                	add	a3,a3,a0
80006d82:	4301                	li	t1,0
80006d84:	8e1d                	sub	a2,a2,a5
/home/xl_ci/toolchain/riscv-gnu-toolchain/riscv-gcc/libgcc/soft-fp/trunctfdf2.c:46 (discriminator 32)
80006d86:	02c34963          	blt	t1,a2,80006db8 <__trunctfdf2+0x176>
/home/xl_ci/toolchain/riscv-gnu-toolchain/riscv-gcc/libgcc/soft-fp/trunctfdf2.c:46 (discriminator 35)
80006d8a:	4691                	li	a3,4
80006d8c:	40f687b3          	sub	a5,a3,a5
80006d90:	060a                	slli	a2,a2,0x2
80006d92:	1014                	addi	a3,sp,32
80006d94:	9636                	add	a2,a2,a3
80006d96:	00e8d733          	srl	a4,a7,a4
80006d9a:	fee62823          	sw	a4,-16(a2)
/home/xl_ci/toolchain/riscv-gnu-toolchain/riscv-gcc/libgcc/soft-fp/trunctfdf2.c:46 (discriminator 37)
80006d9e:	4611                	li	a2,4
80006da0:	8e1d                	sub	a2,a2,a5
80006da2:	078a                	slli	a5,a5,0x2
80006da4:	953e                	add	a0,a0,a5
80006da6:	060a                	slli	a2,a2,0x2
80006da8:	4581                	li	a1,0
80006daa:	c3afd0ef          	jal	ra,800041e4 <memset>
80006dae:	4742                	lw	a4,16(sp)
80006db0:	009037b3          	snez	a5,s1
80006db4:	8fd9                	or	a5,a5,a4
80006db6:	bf81                	j	80006d06 <__trunctfdf2+0xc4>
/home/xl_ci/toolchain/riscv-gnu-toolchain/riscv-gcc/libgcc/soft-fp/trunctfdf2.c:46 (discriminator 34)
80006db8:	428c                	lw	a1,0(a3)
80006dba:	0046ae83          	lw	t4,4(a3)
80006dbe:	01c68f33          	add	t5,a3,t3
80006dc2:	00e5d5b3          	srl	a1,a1,a4
80006dc6:	010e9eb3          	sll	t4,t4,a6
80006dca:	01d5e5b3          	or	a1,a1,t4
80006dce:	00bf2023          	sw	a1,0(t5)
80006dd2:	0305                	addi	t1,t1,1
80006dd4:	0691                	addi	a3,a3,4
80006dd6:	bf45                	j	80006d86 <__trunctfdf2+0x144>
/home/xl_ci/toolchain/riscv-gnu-toolchain/riscv-gcc/libgcc/soft-fp/trunctfdf2.c:46 (discriminator 2)
80006dd8:	4652                	lw	a2,20(sp)
80006dda:	47e2                	lw	a5,24(sp)
80006ddc:	4572                	lw	a0,28(sp)
80006dde:	00f666b3          	or	a3,a2,a5
80006de2:	8ec9                	or	a3,a3,a0
80006de4:	8ecd                	or	a3,a3,a1
80006de6:	e709                	bnez	a4,80006df0 <__trunctfdf2+0x1ae>
/home/xl_ci/toolchain/riscv-gnu-toolchain/riscv-gcc/libgcc/soft-fp/trunctfdf2.c:46 (discriminator 65)
80006de8:	00d036b3          	snez	a3,a3
80006dec:	4781                	li	a5,0
80006dee:	b5f5                	j	80006cda <__trunctfdf2+0x98>
/home/xl_ci/toolchain/riscv-gnu-toolchain/riscv-gcc/libgcc/soft-fp/trunctfdf2.c:46 (discriminator 62)
80006df0:	c2d1                	beqz	a3,80006e74 <__trunctfdf2+0x232>
/home/xl_ci/toolchain/riscv-gnu-toolchain/riscv-gcc/libgcc/soft-fp/trunctfdf2.c:46
80006df2:	01c65693          	srli	a3,a2,0x1c
80006df6:	0512                	slli	a0,a0,0x4
80006df8:	00479613          	slli	a2,a5,0x4
80006dfc:	83f1                	srli	a5,a5,0x1c
80006dfe:	00400737          	lui	a4,0x400
80006e02:	8ed1                	or	a3,a3,a2
80006e04:	8fc9                	or	a5,a5,a0
80006e06:	8fd9                	or	a5,a5,a4
80006e08:	9ae1                	andi	a3,a3,-8
80006e0a:	7ff00713          	li	a4,2047
80006e0e:	b5f1                	j	80006cda <__trunctfdf2+0x98>
80006e10:	4781                	li	a5,0
80006e12:	4681                	li	a3,0
80006e14:	7ff00713          	li	a4,2047
/home/xl_ci/toolchain/riscv-gnu-toolchain/riscv-gcc/libgcc/soft-fp/trunctfdf2.c:50 (discriminator 47)
80006e18:	00800637          	lui	a2,0x800
80006e1c:	8e7d                	and	a2,a2,a5
80006e1e:	ca11                	beqz	a2,80006e32 <__trunctfdf2+0x1f0>
/home/xl_ci/toolchain/riscv-gnu-toolchain/riscv-gcc/libgcc/soft-fp/trunctfdf2.c:50 (discriminator 63)
80006e20:	0705                	addi	a4,a4,1
80006e22:	7ff00613          	li	a2,2047
80006e26:	04c70963          	beq	a4,a2,80006e78 <__trunctfdf2+0x236>
/home/xl_ci/toolchain/riscv-gnu-toolchain/riscv-gcc/libgcc/soft-fp/trunctfdf2.c:50
80006e2a:	ff800637          	lui	a2,0xff800
80006e2e:	167d                	addi	a2,a2,-1
80006e30:	8ff1                	and	a5,a5,a2
/home/xl_ci/toolchain/riscv-gnu-toolchain/riscv-gcc/libgcc/soft-fp/trunctfdf2.c:50 (discriminator 79)
80006e32:	01d79613          	slli	a2,a5,0x1d
80006e36:	828d                	srli	a3,a3,0x3
80006e38:	8ed1                	or	a3,a3,a2
80006e3a:	7ff00613          	li	a2,2047
80006e3e:	838d                	srli	a5,a5,0x3
80006e40:	00c71963          	bne	a4,a2,80006e52 <__trunctfdf2+0x210>
/home/xl_ci/toolchain/riscv-gnu-toolchain/riscv-gcc/libgcc/soft-fp/trunctfdf2.c:50 (discriminator 80)
80006e44:	8edd                	or	a3,a3,a5
80006e46:	4781                	li	a5,0
80006e48:	c689                	beqz	a3,80006e52 <__trunctfdf2+0x210>
/home/xl_ci/toolchain/riscv-gnu-toolchain/riscv-gcc/libgcc/soft-fp/trunctfdf2.c:50
80006e4a:	000807b7          	lui	a5,0x80
80006e4e:	4681                	li	a3,0
80006e50:	4401                	li	s0,0
/home/xl_ci/toolchain/riscv-gnu-toolchain/riscv-gcc/libgcc/soft-fp/trunctfdf2.c:50 (discriminator 90)
80006e52:	0752                	slli	a4,a4,0x14
80006e54:	7ff00637          	lui	a2,0x7ff00
80006e58:	07b2                	slli	a5,a5,0xc
80006e5a:	8f71                	and	a4,a4,a2
80006e5c:	83b1                	srli	a5,a5,0xc
80006e5e:	047e                	slli	s0,s0,0x1f
80006e60:	8fd9                	or	a5,a5,a4
/home/xl_ci/toolchain/riscv-gnu-toolchain/riscv-gcc/libgcc/soft-fp/trunctfdf2.c:54 (discriminator 90)
80006e62:	50b2                	lw	ra,44(sp)
/home/xl_ci/toolchain/riscv-gnu-toolchain/riscv-gcc/libgcc/soft-fp/trunctfdf2.c:50 (discriminator 90)
80006e64:	0087e733          	or	a4,a5,s0
/home/xl_ci/toolchain/riscv-gnu-toolchain/riscv-gcc/libgcc/soft-fp/trunctfdf2.c:54 (discriminator 90)
80006e68:	5422                	lw	s0,40(sp)
80006e6a:	5492                	lw	s1,36(sp)
80006e6c:	8536                	mv	a0,a3
80006e6e:	85ba                	mv	a1,a4
80006e70:	6145                	addi	sp,sp,48
80006e72:	8082                	ret
80006e74:	4781                	li	a5,0
80006e76:	bf79                	j	80006e14 <__trunctfdf2+0x1d2>
80006e78:	4781                	li	a5,0
80006e7a:	4681                	li	a3,0
80006e7c:	bf5d                	j	80006e32 <__trunctfdf2+0x1f0>

80006e7e <__clzsi2>:
__clzsi2():
/home/xl_ci/toolchain/riscv-gnu-toolchain/riscv-gcc/libgcc/libgcc2.c:710
80006e7e:	67c1                	lui	a5,0x10
80006e80:	02f57663          	bgeu	a0,a5,80006eac <__clzsi2+0x2e>
/home/xl_ci/toolchain/riscv-gnu-toolchain/riscv-gcc/libgcc/libgcc2.c:710 (discriminator 3)
80006e84:	0ff00793          	li	a5,255
80006e88:	00a7b7b3          	sltu	a5,a5,a0
80006e8c:	078e                	slli	a5,a5,0x3
/home/xl_ci/toolchain/riscv-gnu-toolchain/riscv-gcc/libgcc/libgcc2.c:710 (discriminator 14)
80006e8e:	02000713          	li	a4,32
80006e92:	8f1d                	sub	a4,a4,a5
80006e94:	00f55533          	srl	a0,a0,a5
80006e98:	00000797          	auipc	a5,0x0
80006e9c:	42878793          	addi	a5,a5,1064 # 800072c0 <__clz_tab>
80006ea0:	953e                	add	a0,a0,a5
80006ea2:	00054503          	lbu	a0,0(a0)
/home/xl_ci/toolchain/riscv-gnu-toolchain/riscv-gcc/libgcc/libgcc2.c:713 (discriminator 14)
80006ea6:	40a70533          	sub	a0,a4,a0
80006eaa:	8082                	ret
/home/xl_ci/toolchain/riscv-gnu-toolchain/riscv-gcc/libgcc/libgcc2.c:710 (discriminator 4)
80006eac:	01000737          	lui	a4,0x1000
80006eb0:	47c1                	li	a5,16
80006eb2:	fce56ee3          	bltu	a0,a4,80006e8e <__clzsi2+0x10>
/home/xl_ci/toolchain/riscv-gnu-toolchain/riscv-gcc/libgcc/libgcc2.c:710
80006eb6:	47e1                	li	a5,24
80006eb8:	bfd9                	j	80006e8e <__clzsi2+0x10>
